
HomeSecuritySystem_Group10.elf:     file format elf32-littlearm

Sections:
Idx Name          Size      VMA       LMA       File off  Algn
  0 .isr_vector   00000194  08000000  08000000  00010000  2**0
                  CONTENTS, ALLOC, LOAD, READONLY, DATA
  1 .text         00005adc  080001a0  080001a0  000101a0  2**4
                  CONTENTS, ALLOC, LOAD, READONLY, CODE
  2 .rodata       00000688  08005c7c  08005c7c  00015c7c  2**1
                  CONTENTS, ALLOC, LOAD, READONLY, DATA
  3 .ARM.extab    00000000  08006304  08006304  000201fc  2**0
                  CONTENTS
  4 .ARM          00000008  08006304  08006304  00016304  2**2
                  CONTENTS, ALLOC, LOAD, READONLY, DATA
  5 .preinit_array 00000000  0800630c  0800630c  000201fc  2**0
                  CONTENTS, ALLOC, LOAD, DATA
  6 .init_array   00000004  0800630c  0800630c  0001630c  2**2
                  CONTENTS, ALLOC, LOAD, DATA
  7 .fini_array   00000004  08006310  08006310  00016310  2**2
                  CONTENTS, ALLOC, LOAD, DATA
  8 .data         000001fc  20000000  08006314  00020000  2**2
                  CONTENTS, ALLOC, LOAD, DATA
  9 .bss          00000474  200001fc  08006510  000201fc  2**2
                  ALLOC
 10 ._user_heap_stack 00000600  20000670  08006510  00020670  2**0
                  ALLOC
 11 .ARM.attributes 00000030  00000000  00000000  000201fc  2**0
                  CONTENTS, READONLY
 12 .comment      0000007b  00000000  00000000  0002022c  2**0
                  CONTENTS, READONLY
 13 .debug_frame  00000628  00000000  00000000  000202a8  2**2
                  CONTENTS, READONLY, DEBUGGING

Disassembly of section .text:

080001a0 <__do_global_dtors_aux>:
 80001a0:	b510      	push	{r4, lr}
 80001a2:	4c05      	ldr	r4, [pc, #20]	; (80001b8 <__do_global_dtors_aux+0x18>)
 80001a4:	7823      	ldrb	r3, [r4, #0]
 80001a6:	b933      	cbnz	r3, 80001b6 <__do_global_dtors_aux+0x16>
 80001a8:	4b04      	ldr	r3, [pc, #16]	; (80001bc <__do_global_dtors_aux+0x1c>)
 80001aa:	b113      	cbz	r3, 80001b2 <__do_global_dtors_aux+0x12>
 80001ac:	4804      	ldr	r0, [pc, #16]	; (80001c0 <__do_global_dtors_aux+0x20>)
 80001ae:	f3af 8000 	nop.w
 80001b2:	2301      	movs	r3, #1
 80001b4:	7023      	strb	r3, [r4, #0]
 80001b6:	bd10      	pop	{r4, pc}
 80001b8:	200001fc 	.word	0x200001fc
 80001bc:	00000000 	.word	0x00000000
 80001c0:	08005c64 	.word	0x08005c64

080001c4 <frame_dummy>:
 80001c4:	b508      	push	{r3, lr}
 80001c6:	4b03      	ldr	r3, [pc, #12]	; (80001d4 <frame_dummy+0x10>)
 80001c8:	b11b      	cbz	r3, 80001d2 <frame_dummy+0xe>
 80001ca:	4903      	ldr	r1, [pc, #12]	; (80001d8 <frame_dummy+0x14>)
 80001cc:	4803      	ldr	r0, [pc, #12]	; (80001dc <frame_dummy+0x18>)
 80001ce:	f3af 8000 	nop.w
 80001d2:	bd08      	pop	{r3, pc}
 80001d4:	00000000 	.word	0x00000000
 80001d8:	20000200 	.word	0x20000200
 80001dc:	08005c64 	.word	0x08005c64

080001e0 <strcmp>:
 80001e0:	f810 2b01 	ldrb.w	r2, [r0], #1
 80001e4:	f811 3b01 	ldrb.w	r3, [r1], #1
 80001e8:	2a01      	cmp	r2, #1
 80001ea:	bf28      	it	cs
 80001ec:	429a      	cmpcs	r2, r3
 80001ee:	d0f7      	beq.n	80001e0 <strcmp>
 80001f0:	1ad0      	subs	r0, r2, r3
 80001f2:	4770      	bx	lr

080001f4 <strlen>:
 80001f4:	4603      	mov	r3, r0
 80001f6:	f813 2b01 	ldrb.w	r2, [r3], #1
 80001fa:	2a00      	cmp	r2, #0
 80001fc:	d1fb      	bne.n	80001f6 <strlen+0x2>
 80001fe:	1a18      	subs	r0, r3, r0
 8000200:	3801      	subs	r0, #1
 8000202:	4770      	bx	lr
	...

08000210 <memchr>:
 8000210:	f001 01ff 	and.w	r1, r1, #255	; 0xff
 8000214:	2a10      	cmp	r2, #16
 8000216:	db2b      	blt.n	8000270 <memchr+0x60>
 8000218:	f010 0f07 	tst.w	r0, #7
 800021c:	d008      	beq.n	8000230 <memchr+0x20>
 800021e:	f810 3b01 	ldrb.w	r3, [r0], #1
 8000222:	3a01      	subs	r2, #1
 8000224:	428b      	cmp	r3, r1
 8000226:	d02d      	beq.n	8000284 <memchr+0x74>
 8000228:	f010 0f07 	tst.w	r0, #7
 800022c:	b342      	cbz	r2, 8000280 <memchr+0x70>
 800022e:	d1f6      	bne.n	800021e <memchr+0xe>
 8000230:	b4f0      	push	{r4, r5, r6, r7}
 8000232:	ea41 2101 	orr.w	r1, r1, r1, lsl #8
 8000236:	ea41 4101 	orr.w	r1, r1, r1, lsl #16
 800023a:	f022 0407 	bic.w	r4, r2, #7
 800023e:	f07f 0700 	mvns.w	r7, #0
 8000242:	2300      	movs	r3, #0
 8000244:	e8f0 5602 	ldrd	r5, r6, [r0], #8
 8000248:	3c08      	subs	r4, #8
 800024a:	ea85 0501 	eor.w	r5, r5, r1
 800024e:	ea86 0601 	eor.w	r6, r6, r1
 8000252:	fa85 f547 	uadd8	r5, r5, r7
 8000256:	faa3 f587 	sel	r5, r3, r7
 800025a:	fa86 f647 	uadd8	r6, r6, r7
 800025e:	faa5 f687 	sel	r6, r5, r7
 8000262:	b98e      	cbnz	r6, 8000288 <memchr+0x78>
 8000264:	d1ee      	bne.n	8000244 <memchr+0x34>
 8000266:	bcf0      	pop	{r4, r5, r6, r7}
 8000268:	f001 01ff 	and.w	r1, r1, #255	; 0xff
 800026c:	f002 0207 	and.w	r2, r2, #7
 8000270:	b132      	cbz	r2, 8000280 <memchr+0x70>
 8000272:	f810 3b01 	ldrb.w	r3, [r0], #1
 8000276:	3a01      	subs	r2, #1
 8000278:	ea83 0301 	eor.w	r3, r3, r1
 800027c:	b113      	cbz	r3, 8000284 <memchr+0x74>
 800027e:	d1f8      	bne.n	8000272 <memchr+0x62>
 8000280:	2000      	movs	r0, #0
 8000282:	4770      	bx	lr
 8000284:	3801      	subs	r0, #1
 8000286:	4770      	bx	lr
 8000288:	2d00      	cmp	r5, #0
 800028a:	bf06      	itte	eq
 800028c:	4635      	moveq	r5, r6
 800028e:	3803      	subeq	r0, #3
 8000290:	3807      	subne	r0, #7
 8000292:	f015 0f01 	tst.w	r5, #1
 8000296:	d107      	bne.n	80002a8 <memchr+0x98>
 8000298:	3001      	adds	r0, #1
 800029a:	f415 7f80 	tst.w	r5, #256	; 0x100
 800029e:	bf02      	ittt	eq
 80002a0:	3001      	addeq	r0, #1
 80002a2:	f415 3fc0 	tsteq.w	r5, #98304	; 0x18000
 80002a6:	3001      	addeq	r0, #1
 80002a8:	bcf0      	pop	{r4, r5, r6, r7}
 80002aa:	3801      	subs	r0, #1
 80002ac:	4770      	bx	lr
 80002ae:	bf00      	nop

080002b0 <__aeabi_uldivmod>:
 80002b0:	b953      	cbnz	r3, 80002c8 <__aeabi_uldivmod+0x18>
 80002b2:	b94a      	cbnz	r2, 80002c8 <__aeabi_uldivmod+0x18>
 80002b4:	2900      	cmp	r1, #0
 80002b6:	bf08      	it	eq
 80002b8:	2800      	cmpeq	r0, #0
 80002ba:	bf1c      	itt	ne
 80002bc:	f04f 31ff 	movne.w	r1, #4294967295
 80002c0:	f04f 30ff 	movne.w	r0, #4294967295
 80002c4:	f000 b972 	b.w	80005ac <__aeabi_idiv0>
 80002c8:	f1ad 0c08 	sub.w	ip, sp, #8
 80002cc:	e96d ce04 	strd	ip, lr, [sp, #-16]!
 80002d0:	f000 f806 	bl	80002e0 <__udivmoddi4>
 80002d4:	f8dd e004 	ldr.w	lr, [sp, #4]
 80002d8:	e9dd 2302 	ldrd	r2, r3, [sp, #8]
 80002dc:	b004      	add	sp, #16
 80002de:	4770      	bx	lr

080002e0 <__udivmoddi4>:
 80002e0:	e92d 47f0 	stmdb	sp!, {r4, r5, r6, r7, r8, r9, sl, lr}
 80002e4:	9e08      	ldr	r6, [sp, #32]
 80002e6:	4604      	mov	r4, r0
 80002e8:	4688      	mov	r8, r1
 80002ea:	2b00      	cmp	r3, #0
 80002ec:	d14b      	bne.n	8000386 <__udivmoddi4+0xa6>
 80002ee:	428a      	cmp	r2, r1
 80002f0:	4615      	mov	r5, r2
 80002f2:	d967      	bls.n	80003c4 <__udivmoddi4+0xe4>
 80002f4:	fab2 f282 	clz	r2, r2
 80002f8:	b14a      	cbz	r2, 800030e <__udivmoddi4+0x2e>
 80002fa:	f1c2 0720 	rsb	r7, r2, #32
 80002fe:	fa01 f302 	lsl.w	r3, r1, r2
 8000302:	fa20 f707 	lsr.w	r7, r0, r7
 8000306:	4095      	lsls	r5, r2
 8000308:	ea47 0803 	orr.w	r8, r7, r3
 800030c:	4094      	lsls	r4, r2
 800030e:	ea4f 4e15 	mov.w	lr, r5, lsr #16
 8000312:	0c23      	lsrs	r3, r4, #16
 8000314:	fbb8 f7fe 	udiv	r7, r8, lr
 8000318:	fa1f fc85 	uxth.w	ip, r5
 800031c:	fb0e 8817 	mls	r8, lr, r7, r8
 8000320:	ea43 4308 	orr.w	r3, r3, r8, lsl #16
 8000324:	fb07 f10c 	mul.w	r1, r7, ip
 8000328:	4299      	cmp	r1, r3
 800032a:	d909      	bls.n	8000340 <__udivmoddi4+0x60>
 800032c:	18eb      	adds	r3, r5, r3
 800032e:	f107 30ff 	add.w	r0, r7, #4294967295
 8000332:	f080 811b 	bcs.w	800056c <__udivmoddi4+0x28c>
 8000336:	4299      	cmp	r1, r3
 8000338:	f240 8118 	bls.w	800056c <__udivmoddi4+0x28c>
 800033c:	3f02      	subs	r7, #2
 800033e:	442b      	add	r3, r5
 8000340:	1a5b      	subs	r3, r3, r1
 8000342:	b2a4      	uxth	r4, r4
 8000344:	fbb3 f0fe 	udiv	r0, r3, lr
 8000348:	fb0e 3310 	mls	r3, lr, r0, r3
 800034c:	ea44 4403 	orr.w	r4, r4, r3, lsl #16
 8000350:	fb00 fc0c 	mul.w	ip, r0, ip
 8000354:	45a4      	cmp	ip, r4
 8000356:	d909      	bls.n	800036c <__udivmoddi4+0x8c>
 8000358:	192c      	adds	r4, r5, r4
 800035a:	f100 33ff 	add.w	r3, r0, #4294967295
 800035e:	f080 8107 	bcs.w	8000570 <__udivmoddi4+0x290>
 8000362:	45a4      	cmp	ip, r4
 8000364:	f240 8104 	bls.w	8000570 <__udivmoddi4+0x290>
 8000368:	3802      	subs	r0, #2
 800036a:	442c      	add	r4, r5
 800036c:	ea40 4007 	orr.w	r0, r0, r7, lsl #16
 8000370:	eba4 040c 	sub.w	r4, r4, ip
 8000374:	2700      	movs	r7, #0
 8000376:	b11e      	cbz	r6, 8000380 <__udivmoddi4+0xa0>
 8000378:	40d4      	lsrs	r4, r2
 800037a:	2300      	movs	r3, #0
 800037c:	e9c6 4300 	strd	r4, r3, [r6]
 8000380:	4639      	mov	r1, r7
 8000382:	e8bd 87f0 	ldmia.w	sp!, {r4, r5, r6, r7, r8, r9, sl, pc}
 8000386:	428b      	cmp	r3, r1
 8000388:	d909      	bls.n	800039e <__udivmoddi4+0xbe>
 800038a:	2e00      	cmp	r6, #0
 800038c:	f000 80eb 	beq.w	8000566 <__udivmoddi4+0x286>
 8000390:	2700      	movs	r7, #0
 8000392:	e9c6 0100 	strd	r0, r1, [r6]
 8000396:	4638      	mov	r0, r7
 8000398:	4639      	mov	r1, r7
 800039a:	e8bd 87f0 	ldmia.w	sp!, {r4, r5, r6, r7, r8, r9, sl, pc}
 800039e:	fab3 f783 	clz	r7, r3
 80003a2:	2f00      	cmp	r7, #0
 80003a4:	d147      	bne.n	8000436 <__udivmoddi4+0x156>
 80003a6:	428b      	cmp	r3, r1
 80003a8:	d302      	bcc.n	80003b0 <__udivmoddi4+0xd0>
 80003aa:	4282      	cmp	r2, r0
 80003ac:	f200 80fa 	bhi.w	80005a4 <__udivmoddi4+0x2c4>
 80003b0:	1a84      	subs	r4, r0, r2
 80003b2:	eb61 0303 	sbc.w	r3, r1, r3
 80003b6:	2001      	movs	r0, #1
 80003b8:	4698      	mov	r8, r3
 80003ba:	2e00      	cmp	r6, #0
 80003bc:	d0e0      	beq.n	8000380 <__udivmoddi4+0xa0>
 80003be:	e9c6 4800 	strd	r4, r8, [r6]
 80003c2:	e7dd      	b.n	8000380 <__udivmoddi4+0xa0>
 80003c4:	b902      	cbnz	r2, 80003c8 <__udivmoddi4+0xe8>
 80003c6:	deff      	udf	#255	; 0xff
 80003c8:	fab2 f282 	clz	r2, r2
 80003cc:	2a00      	cmp	r2, #0
 80003ce:	f040 808f 	bne.w	80004f0 <__udivmoddi4+0x210>
 80003d2:	1b49      	subs	r1, r1, r5
 80003d4:	ea4f 4e15 	mov.w	lr, r5, lsr #16
 80003d8:	fa1f f885 	uxth.w	r8, r5
 80003dc:	2701      	movs	r7, #1
 80003de:	fbb1 fcfe 	udiv	ip, r1, lr
 80003e2:	0c23      	lsrs	r3, r4, #16
 80003e4:	fb0e 111c 	mls	r1, lr, ip, r1
 80003e8:	ea43 4301 	orr.w	r3, r3, r1, lsl #16
 80003ec:	fb08 f10c 	mul.w	r1, r8, ip
 80003f0:	4299      	cmp	r1, r3
 80003f2:	d907      	bls.n	8000404 <__udivmoddi4+0x124>
 80003f4:	18eb      	adds	r3, r5, r3
 80003f6:	f10c 30ff 	add.w	r0, ip, #4294967295
 80003fa:	d202      	bcs.n	8000402 <__udivmoddi4+0x122>
 80003fc:	4299      	cmp	r1, r3
 80003fe:	f200 80cd 	bhi.w	800059c <__udivmoddi4+0x2bc>
 8000402:	4684      	mov	ip, r0
 8000404:	1a59      	subs	r1, r3, r1
 8000406:	b2a3      	uxth	r3, r4
 8000408:	fbb1 f0fe 	udiv	r0, r1, lr
 800040c:	fb0e 1410 	mls	r4, lr, r0, r1
 8000410:	ea43 4404 	orr.w	r4, r3, r4, lsl #16
 8000414:	fb08 f800 	mul.w	r8, r8, r0
 8000418:	45a0      	cmp	r8, r4
 800041a:	d907      	bls.n	800042c <__udivmoddi4+0x14c>
 800041c:	192c      	adds	r4, r5, r4
 800041e:	f100 33ff 	add.w	r3, r0, #4294967295
 8000422:	d202      	bcs.n	800042a <__udivmoddi4+0x14a>
 8000424:	45a0      	cmp	r8, r4
 8000426:	f200 80b6 	bhi.w	8000596 <__udivmoddi4+0x2b6>
 800042a:	4618      	mov	r0, r3
 800042c:	eba4 0408 	sub.w	r4, r4, r8
 8000430:	ea40 400c 	orr.w	r0, r0, ip, lsl #16
 8000434:	e79f      	b.n	8000376 <__udivmoddi4+0x96>
 8000436:	f1c7 0c20 	rsb	ip, r7, #32
 800043a:	40bb      	lsls	r3, r7
 800043c:	fa22 fe0c 	lsr.w	lr, r2, ip
 8000440:	ea4e 0e03 	orr.w	lr, lr, r3
 8000444:	fa01 f407 	lsl.w	r4, r1, r7
 8000448:	fa20 f50c 	lsr.w	r5, r0, ip
 800044c:	fa21 f30c 	lsr.w	r3, r1, ip
 8000450:	ea4f 481e 	mov.w	r8, lr, lsr #16
 8000454:	4325      	orrs	r5, r4
 8000456:	fbb3 f9f8 	udiv	r9, r3, r8
 800045a:	0c2c      	lsrs	r4, r5, #16
 800045c:	fb08 3319 	mls	r3, r8, r9, r3
 8000460:	fa1f fa8e 	uxth.w	sl, lr
 8000464:	ea44 4303 	orr.w	r3, r4, r3, lsl #16
 8000468:	fb09 f40a 	mul.w	r4, r9, sl
 800046c:	429c      	cmp	r4, r3
 800046e:	fa02 f207 	lsl.w	r2, r2, r7
 8000472:	fa00 f107 	lsl.w	r1, r0, r7
 8000476:	d90b      	bls.n	8000490 <__udivmoddi4+0x1b0>
 8000478:	eb1e 0303 	adds.w	r3, lr, r3
 800047c:	f109 30ff 	add.w	r0, r9, #4294967295
 8000480:	f080 8087 	bcs.w	8000592 <__udivmoddi4+0x2b2>
 8000484:	429c      	cmp	r4, r3
 8000486:	f240 8084 	bls.w	8000592 <__udivmoddi4+0x2b2>
 800048a:	f1a9 0902 	sub.w	r9, r9, #2
 800048e:	4473      	add	r3, lr
 8000490:	1b1b      	subs	r3, r3, r4
 8000492:	b2ad      	uxth	r5, r5
 8000494:	fbb3 f0f8 	udiv	r0, r3, r8
 8000498:	fb08 3310 	mls	r3, r8, r0, r3
 800049c:	ea45 4403 	orr.w	r4, r5, r3, lsl #16
 80004a0:	fb00 fa0a 	mul.w	sl, r0, sl
 80004a4:	45a2      	cmp	sl, r4
 80004a6:	d908      	bls.n	80004ba <__udivmoddi4+0x1da>
 80004a8:	eb1e 0404 	adds.w	r4, lr, r4
 80004ac:	f100 33ff 	add.w	r3, r0, #4294967295
 80004b0:	d26b      	bcs.n	800058a <__udivmoddi4+0x2aa>
 80004b2:	45a2      	cmp	sl, r4
 80004b4:	d969      	bls.n	800058a <__udivmoddi4+0x2aa>
 80004b6:	3802      	subs	r0, #2
 80004b8:	4474      	add	r4, lr
 80004ba:	ea40 4009 	orr.w	r0, r0, r9, lsl #16
 80004be:	fba0 8902 	umull	r8, r9, r0, r2
 80004c2:	eba4 040a 	sub.w	r4, r4, sl
 80004c6:	454c      	cmp	r4, r9
 80004c8:	46c2      	mov	sl, r8
 80004ca:	464b      	mov	r3, r9
 80004cc:	d354      	bcc.n	8000578 <__udivmoddi4+0x298>
 80004ce:	d051      	beq.n	8000574 <__udivmoddi4+0x294>
 80004d0:	2e00      	cmp	r6, #0
 80004d2:	d069      	beq.n	80005a8 <__udivmoddi4+0x2c8>
 80004d4:	ebb1 050a 	subs.w	r5, r1, sl
 80004d8:	eb64 0403 	sbc.w	r4, r4, r3
 80004dc:	fa04 fc0c 	lsl.w	ip, r4, ip
 80004e0:	40fd      	lsrs	r5, r7
 80004e2:	40fc      	lsrs	r4, r7
 80004e4:	ea4c 0505 	orr.w	r5, ip, r5
 80004e8:	e9c6 5400 	strd	r5, r4, [r6]
 80004ec:	2700      	movs	r7, #0
 80004ee:	e747      	b.n	8000380 <__udivmoddi4+0xa0>
 80004f0:	f1c2 0320 	rsb	r3, r2, #32
 80004f4:	fa20 f703 	lsr.w	r7, r0, r3
 80004f8:	4095      	lsls	r5, r2
 80004fa:	fa01 f002 	lsl.w	r0, r1, r2
 80004fe:	fa21 f303 	lsr.w	r3, r1, r3
 8000502:	ea4f 4e15 	mov.w	lr, r5, lsr #16
 8000506:	4338      	orrs	r0, r7
 8000508:	0c01      	lsrs	r1, r0, #16
 800050a:	fbb3 f7fe 	udiv	r7, r3, lr
 800050e:	fa1f f885 	uxth.w	r8, r5
 8000512:	fb0e 3317 	mls	r3, lr, r7, r3
 8000516:	ea41 4103 	orr.w	r1, r1, r3, lsl #16
 800051a:	fb07 f308 	mul.w	r3, r7, r8
 800051e:	428b      	cmp	r3, r1
 8000520:	fa04 f402 	lsl.w	r4, r4, r2
 8000524:	d907      	bls.n	8000536 <__udivmoddi4+0x256>
 8000526:	1869      	adds	r1, r5, r1
 8000528:	f107 3cff 	add.w	ip, r7, #4294967295
 800052c:	d22f      	bcs.n	800058e <__udivmoddi4+0x2ae>
 800052e:	428b      	cmp	r3, r1
 8000530:	d92d      	bls.n	800058e <__udivmoddi4+0x2ae>
 8000532:	3f02      	subs	r7, #2
 8000534:	4429      	add	r1, r5
 8000536:	1acb      	subs	r3, r1, r3
 8000538:	b281      	uxth	r1, r0
 800053a:	fbb3 f0fe 	udiv	r0, r3, lr
 800053e:	fb0e 3310 	mls	r3, lr, r0, r3
 8000542:	ea41 4103 	orr.w	r1, r1, r3, lsl #16
 8000546:	fb00 f308 	mul.w	r3, r0, r8
 800054a:	428b      	cmp	r3, r1
 800054c:	d907      	bls.n	800055e <__udivmoddi4+0x27e>
 800054e:	1869      	adds	r1, r5, r1
 8000550:	f100 3cff 	add.w	ip, r0, #4294967295
 8000554:	d217      	bcs.n	8000586 <__udivmoddi4+0x2a6>
 8000556:	428b      	cmp	r3, r1
 8000558:	d915      	bls.n	8000586 <__udivmoddi4+0x2a6>
 800055a:	3802      	subs	r0, #2
 800055c:	4429      	add	r1, r5
 800055e:	1ac9      	subs	r1, r1, r3
 8000560:	ea40 4707 	orr.w	r7, r0, r7, lsl #16
 8000564:	e73b      	b.n	80003de <__udivmoddi4+0xfe>
 8000566:	4637      	mov	r7, r6
 8000568:	4630      	mov	r0, r6
 800056a:	e709      	b.n	8000380 <__udivmoddi4+0xa0>
 800056c:	4607      	mov	r7, r0
 800056e:	e6e7      	b.n	8000340 <__udivmoddi4+0x60>
 8000570:	4618      	mov	r0, r3
 8000572:	e6fb      	b.n	800036c <__udivmoddi4+0x8c>
 8000574:	4541      	cmp	r1, r8
 8000576:	d2ab      	bcs.n	80004d0 <__udivmoddi4+0x1f0>
 8000578:	ebb8 0a02 	subs.w	sl, r8, r2
 800057c:	eb69 020e 	sbc.w	r2, r9, lr
 8000580:	3801      	subs	r0, #1
 8000582:	4613      	mov	r3, r2
 8000584:	e7a4      	b.n	80004d0 <__udivmoddi4+0x1f0>
 8000586:	4660      	mov	r0, ip
 8000588:	e7e9      	b.n	800055e <__udivmoddi4+0x27e>
 800058a:	4618      	mov	r0, r3
 800058c:	e795      	b.n	80004ba <__udivmoddi4+0x1da>
 800058e:	4667      	mov	r7, ip
 8000590:	e7d1      	b.n	8000536 <__udivmoddi4+0x256>
 8000592:	4681      	mov	r9, r0
 8000594:	e77c      	b.n	8000490 <__udivmoddi4+0x1b0>
 8000596:	3802      	subs	r0, #2
 8000598:	442c      	add	r4, r5
 800059a:	e747      	b.n	800042c <__udivmoddi4+0x14c>
 800059c:	f1ac 0c02 	sub.w	ip, ip, #2
 80005a0:	442b      	add	r3, r5
 80005a2:	e72f      	b.n	8000404 <__udivmoddi4+0x124>
 80005a4:	4638      	mov	r0, r7
 80005a6:	e708      	b.n	80003ba <__udivmoddi4+0xda>
 80005a8:	4637      	mov	r7, r6
 80005aa:	e6e9      	b.n	8000380 <__udivmoddi4+0xa0>

080005ac <__aeabi_idiv0>:
 80005ac:	4770      	bx	lr
 80005ae:	bf00      	nop

080005b0 <MX_ADC1_Init>:
 80005b0:	b530      	push	{r4, r5, lr}
 80005b2:	b085      	sub	sp, #20
 80005b4:	2210      	movs	r2, #16
 80005b6:	2100      	movs	r1, #0
 80005b8:	4668      	mov	r0, sp
 80005ba:	f004 fe8f 	bl	80052dc <memset>
 80005be:	4812      	ldr	r0, [pc, #72]	; (8000608 <MX_ADC1_Init+0x58>)
 80005c0:	4b12      	ldr	r3, [pc, #72]	; (800060c <MX_ADC1_Init+0x5c>)
 80005c2:	2400      	movs	r4, #0
 80005c4:	2501      	movs	r5, #1
 80005c6:	e9c0 3400 	strd	r3, r4, [r0]
 80005ca:	4b11      	ldr	r3, [pc, #68]	; (8000610 <MX_ADC1_Init+0x60>)
 80005cc:	6084      	str	r4, [r0, #8]
 80005ce:	6104      	str	r4, [r0, #16]
 80005d0:	7604      	strb	r4, [r0, #24]
 80005d2:	f880 4020 	strb.w	r4, [r0, #32]
 80005d6:	62c4      	str	r4, [r0, #44]	; 0x2c
 80005d8:	6283      	str	r3, [r0, #40]	; 0x28
 80005da:	60c4      	str	r4, [r0, #12]
 80005dc:	61c5      	str	r5, [r0, #28]
 80005de:	f880 5030 	strb.w	r5, [r0, #48]	; 0x30
 80005e2:	6145      	str	r5, [r0, #20]
 80005e4:	f001 fd22 	bl	800202c <HAL_ADC_Init>
 80005e8:	b108      	cbz	r0, 80005ee <MX_ADC1_Init+0x3e>
 80005ea:	f000 fe75 	bl	80012d8 <Error_Handler>
 80005ee:	4669      	mov	r1, sp
 80005f0:	4805      	ldr	r0, [pc, #20]	; (8000608 <MX_ADC1_Init+0x58>)
 80005f2:	9402      	str	r4, [sp, #8]
 80005f4:	e9cd 4500 	strd	r4, r5, [sp]
 80005f8:	f001 ff48 	bl	800248c <HAL_ADC_ConfigChannel>
 80005fc:	b108      	cbz	r0, 8000602 <MX_ADC1_Init+0x52>
 80005fe:	f000 fe6b 	bl	80012d8 <Error_Handler>
 8000602:	b005      	add	sp, #20
 8000604:	bd30      	pop	{r4, r5, pc}
 8000606:	bf00      	nop
 8000608:	20000238 	.word	0x20000238
 800060c:	40012000 	.word	0x40012000
 8000610:	0f000001 	.word	0x0f000001

08000614 <HAL_ADC_MspInit>:
 8000614:	b570      	push	{r4, r5, r6, lr}
 8000616:	4606      	mov	r6, r0
 8000618:	b088      	sub	sp, #32
 800061a:	2214      	movs	r2, #20
 800061c:	2100      	movs	r1, #0
 800061e:	a803      	add	r0, sp, #12
 8000620:	f004 fe5c 	bl	80052dc <memset>
 8000624:	6832      	ldr	r2, [r6, #0]
 8000626:	4b23      	ldr	r3, [pc, #140]	; (80006b4 <HAL_ADC_MspInit+0xa0>)
 8000628:	429a      	cmp	r2, r3
 800062a:	d140      	bne.n	80006ae <HAL_ADC_MspInit+0x9a>
 800062c:	2500      	movs	r5, #0
 800062e:	f503 338c 	add.w	r3, r3, #71680	; 0x11800
 8000632:	9501      	str	r5, [sp, #4]
 8000634:	6c5a      	ldr	r2, [r3, #68]	; 0x44
 8000636:	4820      	ldr	r0, [pc, #128]	; (80006b8 <HAL_ADC_MspInit+0xa4>)
 8000638:	4c20      	ldr	r4, [pc, #128]	; (80006bc <HAL_ADC_MspInit+0xa8>)
 800063a:	f442 7280 	orr.w	r2, r2, #256	; 0x100
 800063e:	645a      	str	r2, [r3, #68]	; 0x44
 8000640:	6c5a      	ldr	r2, [r3, #68]	; 0x44
 8000642:	f402 7280 	and.w	r2, r2, #256	; 0x100
 8000646:	9201      	str	r2, [sp, #4]
 8000648:	9a01      	ldr	r2, [sp, #4]
 800064a:	9502      	str	r5, [sp, #8]
 800064c:	6b1a      	ldr	r2, [r3, #48]	; 0x30
 800064e:	f042 0201 	orr.w	r2, r2, #1
 8000652:	631a      	str	r2, [r3, #48]	; 0x30
 8000654:	6b1b      	ldr	r3, [r3, #48]	; 0x30
 8000656:	f003 0301 	and.w	r3, r3, #1
 800065a:	9302      	str	r3, [sp, #8]
 800065c:	9b02      	ldr	r3, [sp, #8]
 800065e:	2201      	movs	r2, #1
 8000660:	2303      	movs	r3, #3
 8000662:	a903      	add	r1, sp, #12
 8000664:	e9cd 2303 	strd	r2, r3, [sp, #12]
 8000668:	f002 f9f4 	bl	8002a54 <HAL_GPIO_Init>
 800066c:	4b14      	ldr	r3, [pc, #80]	; (80006c0 <HAL_ADC_MspInit+0xac>)
 800066e:	f44f 6180 	mov.w	r1, #1024	; 0x400
 8000672:	e9c4 3500 	strd	r3, r5, [r4]
 8000676:	f44f 6300 	mov.w	r3, #2048	; 0x800
 800067a:	e9c4 1304 	strd	r1, r3, [r4, #16]
 800067e:	4620      	mov	r0, r4
 8000680:	f44f 5300 	mov.w	r3, #8192	; 0x2000
 8000684:	e9c4 5502 	strd	r5, r5, [r4, #8]
 8000688:	e9c4 3506 	strd	r3, r5, [r4, #24]
 800068c:	e9c4 5508 	strd	r5, r5, [r4, #32]
 8000690:	f002 f80e 	bl	80026b0 <HAL_DMA_Init>
 8000694:	b108      	cbz	r0, 800069a <HAL_ADC_MspInit+0x86>
 8000696:	f000 fe1f 	bl	80012d8 <Error_Handler>
 800069a:	2200      	movs	r2, #0
 800069c:	63b4      	str	r4, [r6, #56]	; 0x38
 800069e:	2012      	movs	r0, #18
 80006a0:	4611      	mov	r1, r2
 80006a2:	63a6      	str	r6, [r4, #56]	; 0x38
 80006a4:	f001 ff96 	bl	80025d4 <HAL_NVIC_SetPriority>
 80006a8:	2012      	movs	r0, #18
 80006aa:	f001 ffc7 	bl	800263c <HAL_NVIC_EnableIRQ>
 80006ae:	b008      	add	sp, #32
 80006b0:	bd70      	pop	{r4, r5, r6, pc}
 80006b2:	bf00      	nop
 80006b4:	40012000 	.word	0x40012000
 80006b8:	40020000 	.word	0x40020000
 80006bc:	20000280 	.word	0x20000280
 80006c0:	40026410 	.word	0x40026410

080006c4 <check_date>:
 80006c4:	b57f      	push	{r0, r1, r2, r3, r4, r5, r6, lr}
 80006c6:	4e11      	ldr	r6, [pc, #68]	; (800070c <check_date+0x48>)
 80006c8:	460b      	mov	r3, r1
 80006ca:	4605      	mov	r5, r0
 80006cc:	6871      	ldr	r1, [r6, #4]
 80006ce:	6830      	ldr	r0, [r6, #0]
 80006d0:	ac01      	add	r4, sp, #4
 80006d2:	c403      	stmia	r4!, {r0, r1}
 80006d4:	2b0c      	cmp	r3, #12
 80006d6:	68b0      	ldr	r0, [r6, #8]
 80006d8:	6020      	str	r0, [r4, #0]
 80006da:	d813      	bhi.n	8000704 <check_date+0x40>
 80006dc:	2d1f      	cmp	r5, #31
 80006de:	d811      	bhi.n	8000704 <check_date+0x40>
 80006e0:	2a13      	cmp	r2, #19
 80006e2:	dd0f      	ble.n	8000704 <check_date+0x40>
 80006e4:	0792      	lsls	r2, r2, #30
 80006e6:	d103      	bne.n	80006f0 <check_date+0x2c>
 80006e8:	2b02      	cmp	r3, #2
 80006ea:	d101      	bne.n	80006f0 <check_date+0x2c>
 80006ec:	2d1d      	cmp	r5, #29
 80006ee:	dd0b      	ble.n	8000708 <check_date+0x44>
 80006f0:	aa04      	add	r2, sp, #16
 80006f2:	4413      	add	r3, r2
 80006f4:	f813 0c0d 	ldrb.w	r0, [r3, #-13]
 80006f8:	42a8      	cmp	r0, r5
 80006fa:	bfb4      	ite	lt
 80006fc:	2000      	movlt	r0, #0
 80006fe:	2001      	movge	r0, #1
 8000700:	b004      	add	sp, #16
 8000702:	bd70      	pop	{r4, r5, r6, pc}
 8000704:	2000      	movs	r0, #0
 8000706:	e7fb      	b.n	8000700 <check_date+0x3c>
 8000708:	2001      	movs	r0, #1
 800070a:	e7f9      	b.n	8000700 <check_date+0x3c>
 800070c:	08005c7c 	.word	0x08005c7c

08000710 <check_time>:
 8000710:	283b      	cmp	r0, #59	; 0x3b
 8000712:	d806      	bhi.n	8000722 <check_time+0x12>
 8000714:	293b      	cmp	r1, #59	; 0x3b
 8000716:	d804      	bhi.n	8000722 <check_time+0x12>
 8000718:	2a17      	cmp	r2, #23
 800071a:	bf8c      	ite	hi
 800071c:	2000      	movhi	r0, #0
 800071e:	2001      	movls	r0, #1
 8000720:	4770      	bx	lr
 8000722:	2000      	movs	r0, #0
 8000724:	4770      	bx	lr

08000726 <check_alarm_delay>:
 8000726:	281e      	cmp	r0, #30
 8000728:	bf8c      	ite	hi
 800072a:	2000      	movhi	r0, #0
 800072c:	2001      	movls	r0, #1
 800072e:	4770      	bx	lr

08000730 <check_alarm_duration>:
 8000730:	3801      	subs	r0, #1
 8000732:	283b      	cmp	r0, #59	; 0x3b
 8000734:	bf8c      	ite	hi
 8000736:	2000      	movhi	r0, #0
 8000738:	2001      	movls	r0, #1
 800073a:	4770      	bx	lr

0800073c <is_number>:
 800073c:	b510      	push	{r4, lr}
 800073e:	4c08      	ldr	r4, [pc, #32]	; (8000760 <is_number+0x24>)
 8000740:	f004 fda4 	bl	800528c <__locale_ctype_ptr>
 8000744:	7823      	ldrb	r3, [r4, #0]
 8000746:	4418      	add	r0, r3
 8000748:	7840      	ldrb	r0, [r0, #1]
 800074a:	f010 0004 	ands.w	r0, r0, #4
 800074e:	d006      	beq.n	800075e <is_number+0x22>
 8000750:	f004 fd9c 	bl	800528c <__locale_ctype_ptr>
 8000754:	7863      	ldrb	r3, [r4, #1]
 8000756:	4418      	add	r0, r3
 8000758:	7840      	ldrb	r0, [r0, #1]
 800075a:	f3c0 0080 	ubfx	r0, r0, #2, #1
 800075e:	bd10      	pop	{r4, pc}
 8000760:	20000370 	.word	0x20000370

08000764 <check_user_pin>:
 8000764:	b538      	push	{r3, r4, r5, lr}
 8000766:	4d07      	ldr	r5, [pc, #28]	; (8000784 <check_user_pin+0x20>)
 8000768:	2400      	movs	r4, #0
 800076a:	f004 fd8f 	bl	800528c <__locale_ctype_ptr>
 800076e:	5d63      	ldrb	r3, [r4, r5]
 8000770:	4418      	add	r0, r3
 8000772:	7840      	ldrb	r0, [r0, #1]
 8000774:	f010 0004 	ands.w	r0, r0, #4
 8000778:	d003      	beq.n	8000782 <check_user_pin+0x1e>
 800077a:	3401      	adds	r4, #1
 800077c:	2c04      	cmp	r4, #4
 800077e:	d1f4      	bne.n	800076a <check_user_pin+0x6>
 8000780:	2001      	movs	r0, #1
 8000782:	bd38      	pop	{r3, r4, r5, pc}
 8000784:	200002f4 	.word	0x200002f4

08000788 <configuration_rejected>:
 8000788:	b510      	push	{r4, lr}
 800078a:	4604      	mov	r4, r0
 800078c:	f7ff fd32 	bl	80001f4 <strlen>
 8000790:	4621      	mov	r1, r4
 8000792:	b282      	uxth	r2, r0
 8000794:	e8bd 4010 	ldmia.w	sp!, {r4, lr}
 8000798:	4801      	ldr	r0, [pc, #4]	; (80007a0 <configuration_rejected+0x18>)
 800079a:	f004 bba9 	b.w	8004ef0 <HAL_UART_Transmit_DMA>
 800079e:	bf00      	nop
 80007a0:	20000628 	.word	0x20000628

080007a4 <configuration_accepted>:
 80007a4:	f7ff bff0 	b.w	8000788 <configuration_rejected>

080007a8 <command_rejected>:
 80007a8:	b510      	push	{r4, lr}
 80007aa:	4604      	mov	r4, r0
 80007ac:	f7ff fd22 	bl	80001f4 <strlen>
 80007b0:	4621      	mov	r1, r4
 80007b2:	b282      	uxth	r2, r0
 80007b4:	e8bd 4010 	ldmia.w	sp!, {r4, lr}
 80007b8:	4801      	ldr	r0, [pc, #4]	; (80007c0 <command_rejected+0x18>)
 80007ba:	f004 bb99 	b.w	8004ef0 <HAL_UART_Transmit_DMA>
 80007be:	bf00      	nop
 80007c0:	20000628 	.word	0x20000628

080007c4 <command_accepted>:
 80007c4:	f7ff bff0 	b.w	80007a8 <command_rejected>

080007c8 <user_pin_rejected>:
 80007c8:	f7ff bfee 	b.w	80007a8 <command_rejected>

080007cc <matchPin>:
 80007cc:	b508      	push	{r3, lr}
 80007ce:	f7ff fd07 	bl	80001e0 <strcmp>
 80007d2:	fab0 f080 	clz	r0, r0
 80007d6:	0940      	lsrs	r0, r0, #5
 80007d8:	bd08      	pop	{r3, pc}
	...

080007dc <setup>:
 80007dc:	4b03      	ldr	r3, [pc, #12]	; (80007ec <setup+0x10>)
 80007de:	f04f 32ff 	mov.w	r2, #4294967295
 80007e2:	e9c3 2202 	strd	r2, r2, [r3, #8]
 80007e6:	611a      	str	r2, [r3, #16]
 80007e8:	4770      	bx	lr
 80007ea:	bf00      	nop
 80007ec:	200002e0 	.word	0x200002e0

080007f0 <default_configuration>:
 80007f0:	4b0e      	ldr	r3, [pc, #56]	; (800082c <default_configuration+0x3c>)
 80007f2:	490f      	ldr	r1, [pc, #60]	; (8000830 <default_configuration+0x40>)
 80007f4:	f04f 3230 	mov.w	r2, #808464432	; 0x30303030
 80007f8:	b510      	push	{r4, lr}
 80007fa:	601a      	str	r2, [r3, #0]
 80007fc:	2200      	movs	r2, #0
 80007fe:	4c0d      	ldr	r4, [pc, #52]	; (8000834 <default_configuration+0x44>)
 8000800:	711a      	strb	r2, [r3, #4]
 8000802:	e9c3 2202 	strd	r2, r2, [r3, #8]
 8000806:	2205      	movs	r2, #5
 8000808:	611a      	str	r2, [r3, #16]
 800080a:	4b0b      	ldr	r3, [pc, #44]	; (8000838 <default_configuration+0x48>)
 800080c:	2203      	movs	r2, #3
 800080e:	4620      	mov	r0, r4
 8000810:	601a      	str	r2, [r3, #0]
 8000812:	f004 fe52 	bl	80054ba <strcpy>
 8000816:	4620      	mov	r0, r4
 8000818:	f7ff fcec 	bl	80001f4 <strlen>
 800081c:	4621      	mov	r1, r4
 800081e:	b282      	uxth	r2, r0
 8000820:	e8bd 4010 	ldmia.w	sp!, {r4, lr}
 8000824:	4805      	ldr	r0, [pc, #20]	; (800083c <default_configuration+0x4c>)
 8000826:	f004 bb63 	b.w	8004ef0 <HAL_UART_Transmit_DMA>
 800082a:	bf00      	nop
 800082c:	200002e0 	.word	0x200002e0
 8000830:	08005f44 	.word	0x08005f44
 8000834:	200002f8 	.word	0x200002f8
 8000838:	2000021c 	.word	0x2000021c
 800083c:	20000628 	.word	0x20000628

08000840 <user_configuration>:
 8000840:	b510      	push	{r4, lr}
 8000842:	4c08      	ldr	r4, [pc, #32]	; (8000864 <user_configuration+0x24>)
 8000844:	f7ff ffca 	bl	80007dc <setup>
 8000848:	4907      	ldr	r1, [pc, #28]	; (8000868 <user_configuration+0x28>)
 800084a:	4620      	mov	r0, r4
 800084c:	f004 fe35 	bl	80054ba <strcpy>
 8000850:	4620      	mov	r0, r4
 8000852:	f7ff fccf 	bl	80001f4 <strlen>
 8000856:	4621      	mov	r1, r4
 8000858:	b282      	uxth	r2, r0
 800085a:	e8bd 4010 	ldmia.w	sp!, {r4, lr}
 800085e:	4803      	ldr	r0, [pc, #12]	; (800086c <user_configuration+0x2c>)
 8000860:	f004 bb46 	b.w	8004ef0 <HAL_UART_Transmit_DMA>
 8000864:	200002f8 	.word	0x200002f8
 8000868:	08005f8d 	.word	0x08005f8d
 800086c:	20000628 	.word	0x20000628

08000870 <HAL_UART_RxCpltCallback>:
 8000870:	b510      	push	{r4, lr}
 8000872:	4c66      	ldr	r4, [pc, #408]	; (8000a0c <HAL_UART_RxCpltCallback+0x19c>)
 8000874:	6823      	ldr	r3, [r4, #0]
 8000876:	2b09      	cmp	r3, #9
 8000878:	f200 80c7 	bhi.w	8000a0a <HAL_UART_RxCpltCallback+0x19a>
 800087c:	e8df f003 	tbb	[pc, r3]
 8000880:	48362405 	.word	0x48362405
 8000884:	8e76685a 	.word	0x8e76685a
 8000888:	a99c      	.short	0xa99c
 800088a:	f7ff ff6b 	bl	8000764 <check_user_pin>
 800088e:	b1b0      	cbz	r0, 80008be <HAL_UART_RxCpltCallback+0x4e>
 8000890:	6823      	ldr	r3, [r4, #0]
 8000892:	4a5f      	ldr	r2, [pc, #380]	; (8000a10 <HAL_UART_RxCpltCallback+0x1a0>)
 8000894:	485f      	ldr	r0, [pc, #380]	; (8000a14 <HAL_UART_RxCpltCallback+0x1a4>)
 8000896:	7811      	ldrb	r1, [r2, #0]
 8000898:	3301      	adds	r3, #1
 800089a:	6023      	str	r3, [r4, #0]
 800089c:	4b5e      	ldr	r3, [pc, #376]	; (8000a18 <HAL_UART_RxCpltCallback+0x1a8>)
 800089e:	7019      	strb	r1, [r3, #0]
 80008a0:	7851      	ldrb	r1, [r2, #1]
 80008a2:	7059      	strb	r1, [r3, #1]
 80008a4:	7891      	ldrb	r1, [r2, #2]
 80008a6:	78d2      	ldrb	r2, [r2, #3]
 80008a8:	70da      	strb	r2, [r3, #3]
 80008aa:	2200      	movs	r2, #0
 80008ac:	7099      	strb	r1, [r3, #2]
 80008ae:	711a      	strb	r2, [r3, #4]
 80008b0:	4b5a      	ldr	r3, [pc, #360]	; (8000a1c <HAL_UART_RxCpltCallback+0x1ac>)
 80008b2:	2201      	movs	r2, #1
 80008b4:	601a      	str	r2, [r3, #0]
 80008b6:	e8bd 4010 	ldmia.w	sp!, {r4, lr}
 80008ba:	f7ff bf73 	b.w	80007a4 <configuration_accepted>
 80008be:	4858      	ldr	r0, [pc, #352]	; (8000a20 <HAL_UART_RxCpltCallback+0x1b0>)
 80008c0:	e8bd 4010 	ldmia.w	sp!, {r4, lr}
 80008c4:	f7ff bf60 	b.w	8000788 <configuration_rejected>
 80008c8:	f7ff ff38 	bl	800073c <is_number>
 80008cc:	b160      	cbz	r0, 80008e8 <HAL_UART_RxCpltCallback+0x78>
 80008ce:	4855      	ldr	r0, [pc, #340]	; (8000a24 <HAL_UART_RxCpltCallback+0x1b4>)
 80008d0:	f004 fcaa 	bl	8005228 <atoi>
 80008d4:	4b50      	ldr	r3, [pc, #320]	; (8000a18 <HAL_UART_RxCpltCallback+0x1a8>)
 80008d6:	6098      	str	r0, [r3, #8]
 80008d8:	f7ff ff25 	bl	8000726 <check_alarm_delay>
 80008dc:	b120      	cbz	r0, 80008e8 <HAL_UART_RxCpltCallback+0x78>
 80008de:	6823      	ldr	r3, [r4, #0]
 80008e0:	4851      	ldr	r0, [pc, #324]	; (8000a28 <HAL_UART_RxCpltCallback+0x1b8>)
 80008e2:	3301      	adds	r3, #1
 80008e4:	6023      	str	r3, [r4, #0]
 80008e6:	e7e6      	b.n	80008b6 <HAL_UART_RxCpltCallback+0x46>
 80008e8:	4850      	ldr	r0, [pc, #320]	; (8000a2c <HAL_UART_RxCpltCallback+0x1bc>)
 80008ea:	e7e9      	b.n	80008c0 <HAL_UART_RxCpltCallback+0x50>
 80008ec:	f7ff ff26 	bl	800073c <is_number>
 80008f0:	2800      	cmp	r0, #0
 80008f2:	d0f9      	beq.n	80008e8 <HAL_UART_RxCpltCallback+0x78>
 80008f4:	484b      	ldr	r0, [pc, #300]	; (8000a24 <HAL_UART_RxCpltCallback+0x1b4>)
 80008f6:	f004 fc97 	bl	8005228 <atoi>
 80008fa:	4b47      	ldr	r3, [pc, #284]	; (8000a18 <HAL_UART_RxCpltCallback+0x1a8>)
 80008fc:	60d8      	str	r0, [r3, #12]
 80008fe:	f7ff ff12 	bl	8000726 <check_alarm_delay>
 8000902:	2800      	cmp	r0, #0
 8000904:	d0f0      	beq.n	80008e8 <HAL_UART_RxCpltCallback+0x78>
 8000906:	6823      	ldr	r3, [r4, #0]
 8000908:	4849      	ldr	r0, [pc, #292]	; (8000a30 <HAL_UART_RxCpltCallback+0x1c0>)
 800090a:	3301      	adds	r3, #1
 800090c:	6023      	str	r3, [r4, #0]
 800090e:	e7d2      	b.n	80008b6 <HAL_UART_RxCpltCallback+0x46>
 8000910:	f7ff ff14 	bl	800073c <is_number>
 8000914:	b160      	cbz	r0, 8000930 <HAL_UART_RxCpltCallback+0xc0>
 8000916:	4843      	ldr	r0, [pc, #268]	; (8000a24 <HAL_UART_RxCpltCallback+0x1b4>)
 8000918:	f004 fc86 	bl	8005228 <atoi>
 800091c:	4b3e      	ldr	r3, [pc, #248]	; (8000a18 <HAL_UART_RxCpltCallback+0x1a8>)
 800091e:	6118      	str	r0, [r3, #16]
 8000920:	f7ff ff06 	bl	8000730 <check_alarm_duration>
 8000924:	b120      	cbz	r0, 8000930 <HAL_UART_RxCpltCallback+0xc0>
 8000926:	6823      	ldr	r3, [r4, #0]
 8000928:	4842      	ldr	r0, [pc, #264]	; (8000a34 <HAL_UART_RxCpltCallback+0x1c4>)
 800092a:	3301      	adds	r3, #1
 800092c:	6023      	str	r3, [r4, #0]
 800092e:	e7c2      	b.n	80008b6 <HAL_UART_RxCpltCallback+0x46>
 8000930:	4841      	ldr	r0, [pc, #260]	; (8000a38 <HAL_UART_RxCpltCallback+0x1c8>)
 8000932:	e7c5      	b.n	80008c0 <HAL_UART_RxCpltCallback+0x50>
 8000934:	f7ff ff02 	bl	800073c <is_number>
 8000938:	2800      	cmp	r0, #0
 800093a:	d066      	beq.n	8000a0a <HAL_UART_RxCpltCallback+0x19a>
 800093c:	4839      	ldr	r0, [pc, #228]	; (8000a24 <HAL_UART_RxCpltCallback+0x1b4>)
 800093e:	f004 fc73 	bl	8005228 <atoi>
 8000942:	4b3e      	ldr	r3, [pc, #248]	; (8000a3c <HAL_UART_RxCpltCallback+0x1cc>)
 8000944:	7018      	strb	r0, [r3, #0]
 8000946:	6823      	ldr	r3, [r4, #0]
 8000948:	483d      	ldr	r0, [pc, #244]	; (8000a40 <HAL_UART_RxCpltCallback+0x1d0>)
 800094a:	3301      	adds	r3, #1
 800094c:	6023      	str	r3, [r4, #0]
 800094e:	e7b2      	b.n	80008b6 <HAL_UART_RxCpltCallback+0x46>
 8000950:	f7ff fef4 	bl	800073c <is_number>
 8000954:	2800      	cmp	r0, #0
 8000956:	d058      	beq.n	8000a0a <HAL_UART_RxCpltCallback+0x19a>
 8000958:	4832      	ldr	r0, [pc, #200]	; (8000a24 <HAL_UART_RxCpltCallback+0x1b4>)
 800095a:	f004 fc65 	bl	8005228 <atoi>
 800095e:	4b37      	ldr	r3, [pc, #220]	; (8000a3c <HAL_UART_RxCpltCallback+0x1cc>)
 8000960:	7058      	strb	r0, [r3, #1]
 8000962:	6823      	ldr	r3, [r4, #0]
 8000964:	4837      	ldr	r0, [pc, #220]	; (8000a44 <HAL_UART_RxCpltCallback+0x1d4>)
 8000966:	3301      	adds	r3, #1
 8000968:	6023      	str	r3, [r4, #0]
 800096a:	e7a4      	b.n	80008b6 <HAL_UART_RxCpltCallback+0x46>
 800096c:	f7ff fee6 	bl	800073c <is_number>
 8000970:	2800      	cmp	r0, #0
 8000972:	d04a      	beq.n	8000a0a <HAL_UART_RxCpltCallback+0x19a>
 8000974:	482b      	ldr	r0, [pc, #172]	; (8000a24 <HAL_UART_RxCpltCallback+0x1b4>)
 8000976:	f004 fc57 	bl	8005228 <atoi>
 800097a:	4b30      	ldr	r3, [pc, #192]	; (8000a3c <HAL_UART_RxCpltCallback+0x1cc>)
 800097c:	b2c2      	uxtb	r2, r0
 800097e:	7098      	strb	r0, [r3, #2]
 8000980:	7859      	ldrb	r1, [r3, #1]
 8000982:	7818      	ldrb	r0, [r3, #0]
 8000984:	f7ff fec4 	bl	8000710 <check_time>
 8000988:	b120      	cbz	r0, 8000994 <HAL_UART_RxCpltCallback+0x124>
 800098a:	6823      	ldr	r3, [r4, #0]
 800098c:	482e      	ldr	r0, [pc, #184]	; (8000a48 <HAL_UART_RxCpltCallback+0x1d8>)
 800098e:	3301      	adds	r3, #1
 8000990:	6023      	str	r3, [r4, #0]
 8000992:	e790      	b.n	80008b6 <HAL_UART_RxCpltCallback+0x46>
 8000994:	2304      	movs	r3, #4
 8000996:	6023      	str	r3, [r4, #0]
 8000998:	482c      	ldr	r0, [pc, #176]	; (8000a4c <HAL_UART_RxCpltCallback+0x1dc>)
 800099a:	e791      	b.n	80008c0 <HAL_UART_RxCpltCallback+0x50>
 800099c:	f7ff fece 	bl	800073c <is_number>
 80009a0:	2800      	cmp	r0, #0
 80009a2:	d032      	beq.n	8000a0a <HAL_UART_RxCpltCallback+0x19a>
 80009a4:	481f      	ldr	r0, [pc, #124]	; (8000a24 <HAL_UART_RxCpltCallback+0x1b4>)
 80009a6:	f004 fc3f 	bl	8005228 <atoi>
 80009aa:	4b24      	ldr	r3, [pc, #144]	; (8000a3c <HAL_UART_RxCpltCallback+0x1cc>)
 80009ac:	7118      	strb	r0, [r3, #4]
 80009ae:	6823      	ldr	r3, [r4, #0]
 80009b0:	4827      	ldr	r0, [pc, #156]	; (8000a50 <HAL_UART_RxCpltCallback+0x1e0>)
 80009b2:	3301      	adds	r3, #1
 80009b4:	6023      	str	r3, [r4, #0]
 80009b6:	e77e      	b.n	80008b6 <HAL_UART_RxCpltCallback+0x46>
 80009b8:	f7ff fec0 	bl	800073c <is_number>
 80009bc:	b328      	cbz	r0, 8000a0a <HAL_UART_RxCpltCallback+0x19a>
 80009be:	4819      	ldr	r0, [pc, #100]	; (8000a24 <HAL_UART_RxCpltCallback+0x1b4>)
 80009c0:	f004 fc32 	bl	8005228 <atoi>
 80009c4:	4b1d      	ldr	r3, [pc, #116]	; (8000a3c <HAL_UART_RxCpltCallback+0x1cc>)
 80009c6:	7158      	strb	r0, [r3, #5]
 80009c8:	6823      	ldr	r3, [r4, #0]
 80009ca:	4822      	ldr	r0, [pc, #136]	; (8000a54 <HAL_UART_RxCpltCallback+0x1e4>)
 80009cc:	3301      	adds	r3, #1
 80009ce:	6023      	str	r3, [r4, #0]
 80009d0:	e771      	b.n	80008b6 <HAL_UART_RxCpltCallback+0x46>
 80009d2:	f7ff feb3 	bl	800073c <is_number>
 80009d6:	b1c0      	cbz	r0, 8000a0a <HAL_UART_RxCpltCallback+0x19a>
 80009d8:	4812      	ldr	r0, [pc, #72]	; (8000a24 <HAL_UART_RxCpltCallback+0x1b4>)
 80009da:	f004 fc25 	bl	8005228 <atoi>
 80009de:	4b17      	ldr	r3, [pc, #92]	; (8000a3c <HAL_UART_RxCpltCallback+0x1cc>)
 80009e0:	b2c2      	uxtb	r2, r0
 80009e2:	7959      	ldrb	r1, [r3, #5]
 80009e4:	7918      	ldrb	r0, [r3, #4]
 80009e6:	80da      	strh	r2, [r3, #6]
 80009e8:	f7ff fe6c 	bl	80006c4 <check_date>
 80009ec:	b148      	cbz	r0, 8000a02 <HAL_UART_RxCpltCallback+0x192>
 80009ee:	f000 f8ef 	bl	8000bd0 <ds1307rtc_set_date_time>
 80009f2:	6823      	ldr	r3, [r4, #0]
 80009f4:	4818      	ldr	r0, [pc, #96]	; (8000a58 <HAL_UART_RxCpltCallback+0x1e8>)
 80009f6:	3301      	adds	r3, #1
 80009f8:	6023      	str	r3, [r4, #0]
 80009fa:	4b08      	ldr	r3, [pc, #32]	; (8000a1c <HAL_UART_RxCpltCallback+0x1ac>)
 80009fc:	2204      	movs	r2, #4
 80009fe:	601a      	str	r2, [r3, #0]
 8000a00:	e759      	b.n	80008b6 <HAL_UART_RxCpltCallback+0x46>
 8000a02:	2307      	movs	r3, #7
 8000a04:	6023      	str	r3, [r4, #0]
 8000a06:	4815      	ldr	r0, [pc, #84]	; (8000a5c <HAL_UART_RxCpltCallback+0x1ec>)
 8000a08:	e75a      	b.n	80008c0 <HAL_UART_RxCpltCallback+0x50>
 8000a0a:	bd10      	pop	{r4, pc}
 8000a0c:	20000218 	.word	0x20000218
 8000a10:	200002f4 	.word	0x200002f4
 8000a14:	08005c88 	.word	0x08005c88
 8000a18:	200002e0 	.word	0x200002e0
 8000a1c:	2000021c 	.word	0x2000021c
 8000a20:	08005cbe 	.word	0x08005cbe
 8000a24:	20000370 	.word	0x20000370
 8000a28:	08005ce6 	.word	0x08005ce6
 8000a2c:	08005d22 	.word	0x08005d22
 8000a30:	08005d4f 	.word	0x08005d4f
 8000a34:	08005d91 	.word	0x08005d91
 8000a38:	08005dd2 	.word	0x08005dd2
 8000a3c:	2000037a 	.word	0x2000037a
 8000a40:	08005e02 	.word	0x08005e02
 8000a44:	08005e15 	.word	0x08005e15
 8000a48:	08005e26 	.word	0x08005e26
 8000a4c:	08005e53 	.word	0x08005e53
 8000a50:	08005e89 	.word	0x08005e89
 8000a54:	08005eb3 	.word	0x08005eb3
 8000a58:	08005ed6 	.word	0x08005ed6
 8000a5c:	08005f09 	.word	0x08005f09

08000a60 <HAL_UART_TxCpltCallback>:
 8000a60:	b538      	push	{r3, r4, r5, lr}
 8000a62:	4c1e      	ldr	r4, [pc, #120]	; (8000adc <HAL_UART_TxCpltCallback+0x7c>)
 8000a64:	6823      	ldr	r3, [r4, #0]
 8000a66:	2b04      	cmp	r3, #4
 8000a68:	d823      	bhi.n	8000ab2 <HAL_UART_TxCpltCallback+0x52>
 8000a6a:	e8df f003 	tbb	[pc, r3]
 8000a6e:	0a03      	.short	0x0a03
 8000a70:	0d22      	.short	0x0d22
 8000a72:	23          	.byte	0x23
 8000a73:	00          	.byte	0x00
 8000a74:	491a      	ldr	r1, [pc, #104]	; (8000ae0 <HAL_UART_TxCpltCallback+0x80>)
 8000a76:	2204      	movs	r2, #4
 8000a78:	481a      	ldr	r0, [pc, #104]	; (8000ae4 <HAL_UART_TxCpltCallback+0x84>)
 8000a7a:	e8bd 4038 	ldmia.w	sp!, {r3, r4, r5, lr}
 8000a7e:	f004 ba0f 	b.w	8004ea0 <HAL_UART_Receive_IT>
 8000a82:	2202      	movs	r2, #2
 8000a84:	4918      	ldr	r1, [pc, #96]	; (8000ae8 <HAL_UART_TxCpltCallback+0x88>)
 8000a86:	e7f7      	b.n	8000a78 <HAL_UART_TxCpltCallback+0x18>
 8000a88:	2201      	movs	r2, #1
 8000a8a:	4818      	ldr	r0, [pc, #96]	; (8000aec <HAL_UART_TxCpltCallback+0x8c>)
 8000a8c:	2120      	movs	r1, #32
 8000a8e:	f002 f8b5 	bl	8002bfc <HAL_GPIO_WritePin>
 8000a92:	f000 fa17 	bl	8000ec4 <KeyPad_Init>
 8000a96:	f000 ffa3 	bl	80019e0 <MX_TIM10_Init>
 8000a9a:	4815      	ldr	r0, [pc, #84]	; (8000af0 <HAL_UART_TxCpltCallback+0x90>)
 8000a9c:	6802      	ldr	r2, [r0, #0]
 8000a9e:	f242 730f 	movw	r3, #9999	; 0x270f
 8000aa2:	62d3      	str	r3, [r2, #44]	; 0x2c
 8000aa4:	60c3      	str	r3, [r0, #12]
 8000aa6:	f003 fdf3 	bl	8004690 <HAL_TIM_Base_Start_IT>
 8000aaa:	f000 fc57 	bl	800135c <boot_system>
 8000aae:	2305      	movs	r3, #5
 8000ab0:	6023      	str	r3, [r4, #0]
 8000ab2:	bd38      	pop	{r3, r4, r5, pc}
 8000ab4:	4d0e      	ldr	r5, [pc, #56]	; (8000af0 <HAL_UART_TxCpltCallback+0x90>)
 8000ab6:	4628      	mov	r0, r5
 8000ab8:	f003 fdfa 	bl	80046b0 <HAL_TIM_Base_Stop_IT>
 8000abc:	2201      	movs	r2, #1
 8000abe:	480b      	ldr	r0, [pc, #44]	; (8000aec <HAL_UART_TxCpltCallback+0x8c>)
 8000ac0:	2120      	movs	r1, #32
 8000ac2:	f002 f89b 	bl	8002bfc <HAL_GPIO_WritePin>
 8000ac6:	f000 f9fd 	bl	8000ec4 <KeyPad_Init>
 8000aca:	f000 ff89 	bl	80019e0 <MX_TIM10_Init>
 8000ace:	682a      	ldr	r2, [r5, #0]
 8000ad0:	f242 730f 	movw	r3, #9999	; 0x270f
 8000ad4:	62d3      	str	r3, [r2, #44]	; 0x2c
 8000ad6:	60eb      	str	r3, [r5, #12]
 8000ad8:	4628      	mov	r0, r5
 8000ada:	e7e4      	b.n	8000aa6 <HAL_UART_TxCpltCallback+0x46>
 8000adc:	2000021c 	.word	0x2000021c
 8000ae0:	200002f4 	.word	0x200002f4
 8000ae4:	20000628 	.word	0x20000628
 8000ae8:	20000370 	.word	0x20000370
 8000aec:	40020000 	.word	0x40020000
 8000af0:	20000488 	.word	0x20000488

08000af4 <MX_DMA_Init>:
 8000af4:	b513      	push	{r0, r1, r4, lr}
 8000af6:	4b18      	ldr	r3, [pc, #96]	; (8000b58 <MX_DMA_Init+0x64>)
 8000af8:	2400      	movs	r4, #0
 8000afa:	9400      	str	r4, [sp, #0]
 8000afc:	6b1a      	ldr	r2, [r3, #48]	; 0x30
 8000afe:	f442 1200 	orr.w	r2, r2, #2097152	; 0x200000
 8000b02:	631a      	str	r2, [r3, #48]	; 0x30
 8000b04:	6b1a      	ldr	r2, [r3, #48]	; 0x30
 8000b06:	f402 1200 	and.w	r2, r2, #2097152	; 0x200000
 8000b0a:	9200      	str	r2, [sp, #0]
 8000b0c:	9a00      	ldr	r2, [sp, #0]
 8000b0e:	9401      	str	r4, [sp, #4]
 8000b10:	6b1a      	ldr	r2, [r3, #48]	; 0x30
 8000b12:	f442 0280 	orr.w	r2, r2, #4194304	; 0x400000
 8000b16:	631a      	str	r2, [r3, #48]	; 0x30
 8000b18:	6b1b      	ldr	r3, [r3, #48]	; 0x30
 8000b1a:	f403 0380 	and.w	r3, r3, #4194304	; 0x400000
 8000b1e:	4622      	mov	r2, r4
 8000b20:	4621      	mov	r1, r4
 8000b22:	9301      	str	r3, [sp, #4]
 8000b24:	200b      	movs	r0, #11
 8000b26:	9b01      	ldr	r3, [sp, #4]
 8000b28:	f001 fd54 	bl	80025d4 <HAL_NVIC_SetPriority>
 8000b2c:	200b      	movs	r0, #11
 8000b2e:	f001 fd85 	bl	800263c <HAL_NVIC_EnableIRQ>
 8000b32:	4622      	mov	r2, r4
 8000b34:	4621      	mov	r1, r4
 8000b36:	2011      	movs	r0, #17
 8000b38:	f001 fd4c 	bl	80025d4 <HAL_NVIC_SetPriority>
 8000b3c:	2011      	movs	r0, #17
 8000b3e:	f001 fd7d 	bl	800263c <HAL_NVIC_EnableIRQ>
 8000b42:	4622      	mov	r2, r4
 8000b44:	4621      	mov	r1, r4
 8000b46:	2038      	movs	r0, #56	; 0x38
 8000b48:	f001 fd44 	bl	80025d4 <HAL_NVIC_SetPriority>
 8000b4c:	2038      	movs	r0, #56	; 0x38
 8000b4e:	b002      	add	sp, #8
 8000b50:	e8bd 4010 	ldmia.w	sp!, {r4, lr}
 8000b54:	f001 bd72 	b.w	800263c <HAL_NVIC_EnableIRQ>
 8000b58:	40023800 	.word	0x40023800

08000b5c <bcd2Dec>:
 8000b5c:	0903      	lsrs	r3, r0, #4
 8000b5e:	eb03 0383 	add.w	r3, r3, r3, lsl #2
 8000b62:	f000 000f 	and.w	r0, r0, #15
 8000b66:	eb00 0043 	add.w	r0, r0, r3, lsl #1
 8000b6a:	b2c0      	uxtb	r0, r0
 8000b6c:	4770      	bx	lr

08000b6e <dec2Bcd>:
 8000b6e:	230a      	movs	r3, #10
 8000b70:	fbb0 f2f3 	udiv	r2, r0, r3
 8000b74:	fb03 0012 	mls	r0, r3, r2, r0
 8000b78:	eb00 1002 	add.w	r0, r0, r2, lsl #4
 8000b7c:	b2c0      	uxtb	r0, r0
 8000b7e:	4770      	bx	lr

08000b80 <ds1307rtc_init>:
 8000b80:	b508      	push	{r3, lr}
 8000b82:	2203      	movs	r2, #3
 8000b84:	f04f 33ff 	mov.w	r3, #4294967295
 8000b88:	21d0      	movs	r1, #208	; 0xd0
 8000b8a:	4804      	ldr	r0, [pc, #16]	; (8000b9c <ds1307rtc_init+0x1c>)
 8000b8c:	f002 fc2e 	bl	80033ec <HAL_I2C_IsDeviceReady>
 8000b90:	3000      	adds	r0, #0
 8000b92:	bf18      	it	ne
 8000b94:	2001      	movne	r0, #1
 8000b96:	4240      	negs	r0, r0
 8000b98:	bd08      	pop	{r3, pc}
 8000b9a:	bf00      	nop
 8000b9c:	20000384 	.word	0x20000384

08000ba0 <ds1307rtc_get_date_time>:
 8000ba0:	b507      	push	{r0, r1, r2, lr}
 8000ba2:	2307      	movs	r3, #7
 8000ba4:	9301      	str	r3, [sp, #4]
 8000ba6:	4b08      	ldr	r3, [pc, #32]	; (8000bc8 <ds1307rtc_get_date_time+0x28>)
 8000ba8:	9300      	str	r3, [sp, #0]
 8000baa:	2200      	movs	r2, #0
 8000bac:	2301      	movs	r3, #1
 8000bae:	21d0      	movs	r1, #208	; 0xd0
 8000bb0:	4806      	ldr	r0, [pc, #24]	; (8000bcc <ds1307rtc_get_date_time+0x2c>)
 8000bb2:	f002 fb53 	bl	800325c <HAL_I2C_Mem_Read_DMA>
 8000bb6:	2800      	cmp	r0, #0
 8000bb8:	bf14      	ite	ne
 8000bba:	f06f 0001 	mvnne.w	r0, #1
 8000bbe:	2000      	moveq	r0, #0
 8000bc0:	b003      	add	sp, #12
 8000bc2:	f85d fb04 	ldr.w	pc, [sp], #4
 8000bc6:	bf00      	nop
 8000bc8:	20000372 	.word	0x20000372
 8000bcc:	20000384 	.word	0x20000384

08000bd0 <ds1307rtc_set_date_time>:
 8000bd0:	b57f      	push	{r0, r1, r2, r3, r4, r5, r6, lr}
 8000bd2:	491c      	ldr	r1, [pc, #112]	; (8000c44 <ds1307rtc_set_date_time+0x74>)
 8000bd4:	7808      	ldrb	r0, [r1, #0]
 8000bd6:	f7ff ffca 	bl	8000b6e <dec2Bcd>
 8000bda:	f88d 0010 	strb.w	r0, [sp, #16]
 8000bde:	7848      	ldrb	r0, [r1, #1]
 8000be0:	f7ff ffc5 	bl	8000b6e <dec2Bcd>
 8000be4:	f88d 0011 	strb.w	r0, [sp, #17]
 8000be8:	7888      	ldrb	r0, [r1, #2]
 8000bea:	f7ff ffc0 	bl	8000b6e <dec2Bcd>
 8000bee:	f88d 0012 	strb.w	r0, [sp, #18]
 8000bf2:	78c8      	ldrb	r0, [r1, #3]
 8000bf4:	f7ff ffbb 	bl	8000b6e <dec2Bcd>
 8000bf8:	f88d 0013 	strb.w	r0, [sp, #19]
 8000bfc:	7908      	ldrb	r0, [r1, #4]
 8000bfe:	f7ff ffb6 	bl	8000b6e <dec2Bcd>
 8000c02:	f88d 0014 	strb.w	r0, [sp, #20]
 8000c06:	7948      	ldrb	r0, [r1, #5]
 8000c08:	f7ff ffb1 	bl	8000b6e <dec2Bcd>
 8000c0c:	f88d 0015 	strb.w	r0, [sp, #21]
 8000c10:	7988      	ldrb	r0, [r1, #6]
 8000c12:	f7ff ffac 	bl	8000b6e <dec2Bcd>
 8000c16:	2307      	movs	r3, #7
 8000c18:	f04f 32ff 	mov.w	r2, #4294967295
 8000c1c:	e9cd 3201 	strd	r3, r2, [sp, #4]
 8000c20:	ab04      	add	r3, sp, #16
 8000c22:	f88d 0016 	strb.w	r0, [sp, #22]
 8000c26:	9300      	str	r3, [sp, #0]
 8000c28:	2200      	movs	r2, #0
 8000c2a:	2301      	movs	r3, #1
 8000c2c:	21d0      	movs	r1, #208	; 0xd0
 8000c2e:	4806      	ldr	r0, [pc, #24]	; (8000c48 <ds1307rtc_set_date_time+0x78>)
 8000c30:	f002 fa84 	bl	800313c <HAL_I2C_Mem_Write>
 8000c34:	2800      	cmp	r0, #0
 8000c36:	bf14      	ite	ne
 8000c38:	f06f 0001 	mvnne.w	r0, #1
 8000c3c:	2000      	moveq	r0, #0
 8000c3e:	b007      	add	sp, #28
 8000c40:	f85d fb04 	ldr.w	pc, [sp], #4
 8000c44:	2000037a 	.word	0x2000037a
 8000c48:	20000384 	.word	0x20000384

08000c4c <HAL_I2C_MemTxCpltCallback>:
 8000c4c:	4770      	bx	lr
	...

08000c50 <HAL_I2C_MemRxCpltCallback>:
 8000c50:	b508      	push	{r3, lr}
 8000c52:	6802      	ldr	r2, [r0, #0]
 8000c54:	4b12      	ldr	r3, [pc, #72]	; (8000ca0 <HAL_I2C_MemRxCpltCallback+0x50>)
 8000c56:	429a      	cmp	r2, r3
 8000c58:	d121      	bne.n	8000c9e <HAL_I2C_MemRxCpltCallback+0x4e>
 8000c5a:	4912      	ldr	r1, [pc, #72]	; (8000ca4 <HAL_I2C_MemRxCpltCallback+0x54>)
 8000c5c:	7808      	ldrb	r0, [r1, #0]
 8000c5e:	f7ff ff7d 	bl	8000b5c <bcd2Dec>
 8000c62:	4a11      	ldr	r2, [pc, #68]	; (8000ca8 <HAL_I2C_MemRxCpltCallback+0x58>)
 8000c64:	7010      	strb	r0, [r2, #0]
 8000c66:	7848      	ldrb	r0, [r1, #1]
 8000c68:	f7ff ff78 	bl	8000b5c <bcd2Dec>
 8000c6c:	7050      	strb	r0, [r2, #1]
 8000c6e:	7888      	ldrb	r0, [r1, #2]
 8000c70:	f7ff ff74 	bl	8000b5c <bcd2Dec>
 8000c74:	7090      	strb	r0, [r2, #2]
 8000c76:	78c8      	ldrb	r0, [r1, #3]
 8000c78:	f7ff ff70 	bl	8000b5c <bcd2Dec>
 8000c7c:	70d0      	strb	r0, [r2, #3]
 8000c7e:	7908      	ldrb	r0, [r1, #4]
 8000c80:	f7ff ff6c 	bl	8000b5c <bcd2Dec>
 8000c84:	7110      	strb	r0, [r2, #4]
 8000c86:	7948      	ldrb	r0, [r1, #5]
 8000c88:	f7ff ff68 	bl	8000b5c <bcd2Dec>
 8000c8c:	7150      	strb	r0, [r2, #5]
 8000c8e:	7988      	ldrb	r0, [r1, #6]
 8000c90:	f7ff ff64 	bl	8000b5c <bcd2Dec>
 8000c94:	e8bd 4008 	ldmia.w	sp!, {r3, lr}
 8000c98:	80d0      	strh	r0, [r2, #6]
 8000c9a:	f000 bd97 	b.w	80017cc <period_log>
 8000c9e:	bd08      	pop	{r3, pc}
 8000ca0:	40005400 	.word	0x40005400
 8000ca4:	20000372 	.word	0x20000372
 8000ca8:	2000037a 	.word	0x2000037a

08000cac <MX_GPIO_Init>:
 8000cac:	e92d 41f0 	stmdb	sp!, {r4, r5, r6, r7, r8, lr}
 8000cb0:	b088      	sub	sp, #32
 8000cb2:	2214      	movs	r2, #20
 8000cb4:	2100      	movs	r1, #0
 8000cb6:	a803      	add	r0, sp, #12
 8000cb8:	f004 fb10 	bl	80052dc <memset>
 8000cbc:	2400      	movs	r4, #0
 8000cbe:	4b3f      	ldr	r3, [pc, #252]	; (8000dbc <MX_GPIO_Init+0x110>)
 8000cc0:	9400      	str	r4, [sp, #0]
 8000cc2:	6b1a      	ldr	r2, [r3, #48]	; 0x30
 8000cc4:	4f3e      	ldr	r7, [pc, #248]	; (8000dc0 <MX_GPIO_Init+0x114>)
 8000cc6:	f8df 8104 	ldr.w	r8, [pc, #260]	; 8000dcc <MX_GPIO_Init+0x120>
 8000cca:	4e3e      	ldr	r6, [pc, #248]	; (8000dc4 <MX_GPIO_Init+0x118>)
 8000ccc:	f042 0201 	orr.w	r2, r2, #1
 8000cd0:	631a      	str	r2, [r3, #48]	; 0x30
 8000cd2:	6b1a      	ldr	r2, [r3, #48]	; 0x30
 8000cd4:	f002 0201 	and.w	r2, r2, #1
 8000cd8:	9200      	str	r2, [sp, #0]
 8000cda:	9a00      	ldr	r2, [sp, #0]
 8000cdc:	9401      	str	r4, [sp, #4]
 8000cde:	6b1a      	ldr	r2, [r3, #48]	; 0x30
 8000ce0:	f042 0204 	orr.w	r2, r2, #4
 8000ce4:	631a      	str	r2, [r3, #48]	; 0x30
 8000ce6:	6b1a      	ldr	r2, [r3, #48]	; 0x30
 8000ce8:	f002 0204 	and.w	r2, r2, #4
 8000cec:	9201      	str	r2, [sp, #4]
 8000cee:	9a01      	ldr	r2, [sp, #4]
 8000cf0:	9402      	str	r4, [sp, #8]
 8000cf2:	6b1a      	ldr	r2, [r3, #48]	; 0x30
 8000cf4:	f042 0202 	orr.w	r2, r2, #2
 8000cf8:	631a      	str	r2, [r3, #48]	; 0x30
 8000cfa:	6b1b      	ldr	r3, [r3, #48]	; 0x30
 8000cfc:	f003 0302 	and.w	r3, r3, #2
 8000d00:	9302      	str	r3, [sp, #8]
 8000d02:	4622      	mov	r2, r4
 8000d04:	4638      	mov	r0, r7
 8000d06:	f44f 7148 	mov.w	r1, #800	; 0x320
 8000d0a:	9b02      	ldr	r3, [sp, #8]
 8000d0c:	f001 ff76 	bl	8002bfc <HAL_GPIO_WritePin>
 8000d10:	4622      	mov	r2, r4
 8000d12:	4640      	mov	r0, r8
 8000d14:	2110      	movs	r1, #16
 8000d16:	f001 ff71 	bl	8002bfc <HAL_GPIO_WritePin>
 8000d1a:	4622      	mov	r2, r4
 8000d1c:	4630      	mov	r0, r6
 8000d1e:	f24a 0134 	movw	r1, #41012	; 0xa034
 8000d22:	f001 ff6b 	bl	8002bfc <HAL_GPIO_WritePin>
 8000d26:	2501      	movs	r5, #1
 8000d28:	f44f 7348 	mov.w	r3, #800	; 0x320
 8000d2c:	a903      	add	r1, sp, #12
 8000d2e:	4638      	mov	r0, r7
 8000d30:	e9cd 3503 	strd	r3, r5, [sp, #12]
 8000d34:	e9cd 4405 	strd	r4, r4, [sp, #20]
 8000d38:	f001 fe8c 	bl	8002a54 <HAL_GPIO_Init>
 8000d3c:	2310      	movs	r3, #16
 8000d3e:	a903      	add	r1, sp, #12
 8000d40:	4640      	mov	r0, r8
 8000d42:	e9cd 3503 	strd	r3, r5, [sp, #12]
 8000d46:	e9cd 4405 	strd	r4, r4, [sp, #20]
 8000d4a:	f001 fe83 	bl	8002a54 <HAL_GPIO_Init>
 8000d4e:	f44f 7390 	mov.w	r3, #288	; 0x120
 8000d52:	a903      	add	r1, sp, #12
 8000d54:	4640      	mov	r0, r8
 8000d56:	e9cd 3403 	strd	r3, r4, [sp, #12]
 8000d5a:	9505      	str	r5, [sp, #20]
 8000d5c:	f001 fe7a 	bl	8002a54 <HAL_GPIO_Init>
 8000d60:	f24a 0334 	movw	r3, #41012	; 0xa034
 8000d64:	a903      	add	r1, sp, #12
 8000d66:	4630      	mov	r0, r6
 8000d68:	e9cd 3503 	strd	r3, r5, [sp, #12]
 8000d6c:	f44f 5880 	mov.w	r8, #4096	; 0x1000
 8000d70:	e9cd 4405 	strd	r4, r4, [sp, #20]
 8000d74:	f001 fe6e 	bl	8002a54 <HAL_GPIO_Init>
 8000d78:	a903      	add	r1, sp, #12
 8000d7a:	4630      	mov	r0, r6
 8000d7c:	e9cd 8403 	strd	r8, r4, [sp, #12]
 8000d80:	9505      	str	r5, [sp, #20]
 8000d82:	f001 fe67 	bl	8002a54 <HAL_GPIO_Init>
 8000d86:	a903      	add	r1, sp, #12
 8000d88:	4638      	mov	r0, r7
 8000d8a:	e9cd 8403 	strd	r8, r4, [sp, #12]
 8000d8e:	9505      	str	r5, [sp, #20]
 8000d90:	f001 fe60 	bl	8002a54 <HAL_GPIO_Init>
 8000d94:	4b0c      	ldr	r3, [pc, #48]	; (8000dc8 <MX_GPIO_Init+0x11c>)
 8000d96:	9405      	str	r4, [sp, #20]
 8000d98:	2208      	movs	r2, #8
 8000d9a:	a903      	add	r1, sp, #12
 8000d9c:	4630      	mov	r0, r6
 8000d9e:	e9cd 2303 	strd	r2, r3, [sp, #12]
 8000da2:	f001 fe57 	bl	8002a54 <HAL_GPIO_Init>
 8000da6:	4622      	mov	r2, r4
 8000da8:	4621      	mov	r1, r4
 8000daa:	2009      	movs	r0, #9
 8000dac:	f001 fc12 	bl	80025d4 <HAL_NVIC_SetPriority>
 8000db0:	2009      	movs	r0, #9
 8000db2:	f001 fc43 	bl	800263c <HAL_NVIC_EnableIRQ>
 8000db6:	b008      	add	sp, #32
 8000db8:	e8bd 81f0 	ldmia.w	sp!, {r4, r5, r6, r7, r8, pc}
 8000dbc:	40023800 	.word	0x40023800
 8000dc0:	40020000 	.word	0x40020000
 8000dc4:	40020400 	.word	0x40020400
 8000dc8:	10310000 	.word	0x10310000
 8000dcc:	40020800 	.word	0x40020800

08000dd0 <MX_I2C1_Init>:
 8000dd0:	b508      	push	{r3, lr}
 8000dd2:	480b      	ldr	r0, [pc, #44]	; (8000e00 <MX_I2C1_Init+0x30>)
 8000dd4:	4a0b      	ldr	r2, [pc, #44]	; (8000e04 <MX_I2C1_Init+0x34>)
 8000dd6:	4b0c      	ldr	r3, [pc, #48]	; (8000e08 <MX_I2C1_Init+0x38>)
 8000dd8:	e9c0 2300 	strd	r2, r3, [r0]
 8000ddc:	2300      	movs	r3, #0
 8000dde:	f44f 4280 	mov.w	r2, #16384	; 0x4000
 8000de2:	e9c0 3302 	strd	r3, r3, [r0, #8]
 8000de6:	e9c0 2304 	strd	r2, r3, [r0, #16]
 8000dea:	e9c0 3306 	strd	r3, r3, [r0, #24]
 8000dee:	6203      	str	r3, [r0, #32]
 8000df0:	f002 f8f8 	bl	8002fe4 <HAL_I2C_Init>
 8000df4:	b118      	cbz	r0, 8000dfe <MX_I2C1_Init+0x2e>
 8000df6:	e8bd 4008 	ldmia.w	sp!, {r3, lr}
 8000dfa:	f000 ba6d 	b.w	80012d8 <Error_Handler>
 8000dfe:	bd08      	pop	{r3, pc}
 8000e00:	20000384 	.word	0x20000384
 8000e04:	40005400 	.word	0x40005400
 8000e08:	000186a0 	.word	0x000186a0

08000e0c <HAL_I2C_MspInit>:
 8000e0c:	b570      	push	{r4, r5, r6, lr}
 8000e0e:	4606      	mov	r6, r0
 8000e10:	b088      	sub	sp, #32
 8000e12:	2214      	movs	r2, #20
 8000e14:	2100      	movs	r1, #0
 8000e16:	a803      	add	r0, sp, #12
 8000e18:	f004 fa60 	bl	80052dc <memset>
 8000e1c:	6832      	ldr	r2, [r6, #0]
 8000e1e:	4b24      	ldr	r3, [pc, #144]	; (8000eb0 <HAL_I2C_MspInit+0xa4>)
 8000e20:	429a      	cmp	r2, r3
 8000e22:	d143      	bne.n	8000eac <HAL_I2C_MspInit+0xa0>
 8000e24:	4c23      	ldr	r4, [pc, #140]	; (8000eb4 <HAL_I2C_MspInit+0xa8>)
 8000e26:	4824      	ldr	r0, [pc, #144]	; (8000eb8 <HAL_I2C_MspInit+0xac>)
 8000e28:	2500      	movs	r5, #0
 8000e2a:	9501      	str	r5, [sp, #4]
 8000e2c:	6b23      	ldr	r3, [r4, #48]	; 0x30
 8000e2e:	f043 0302 	orr.w	r3, r3, #2
 8000e32:	6323      	str	r3, [r4, #48]	; 0x30
 8000e34:	6b23      	ldr	r3, [r4, #48]	; 0x30
 8000e36:	f003 0302 	and.w	r3, r3, #2
 8000e3a:	9301      	str	r3, [sp, #4]
 8000e3c:	9b01      	ldr	r3, [sp, #4]
 8000e3e:	22c0      	movs	r2, #192	; 0xc0
 8000e40:	2312      	movs	r3, #18
 8000e42:	e9cd 2303 	strd	r2, r3, [sp, #12]
 8000e46:	2101      	movs	r1, #1
 8000e48:	2303      	movs	r3, #3
 8000e4a:	e9cd 1305 	strd	r1, r3, [sp, #20]
 8000e4e:	2304      	movs	r3, #4
 8000e50:	a903      	add	r1, sp, #12
 8000e52:	9307      	str	r3, [sp, #28]
 8000e54:	f001 fdfe 	bl	8002a54 <HAL_GPIO_Init>
 8000e58:	9502      	str	r5, [sp, #8]
 8000e5a:	6c23      	ldr	r3, [r4, #64]	; 0x40
 8000e5c:	4817      	ldr	r0, [pc, #92]	; (8000ebc <HAL_I2C_MspInit+0xb0>)
 8000e5e:	f443 1300 	orr.w	r3, r3, #2097152	; 0x200000
 8000e62:	6423      	str	r3, [r4, #64]	; 0x40
 8000e64:	6c23      	ldr	r3, [r4, #64]	; 0x40
 8000e66:	4c16      	ldr	r4, [pc, #88]	; (8000ec0 <HAL_I2C_MspInit+0xb4>)
 8000e68:	f403 1300 	and.w	r3, r3, #2097152	; 0x200000
 8000e6c:	9302      	str	r3, [sp, #8]
 8000e6e:	9b02      	ldr	r3, [sp, #8]
 8000e70:	f04f 7300 	mov.w	r3, #33554432	; 0x2000000
 8000e74:	e9c4 0300 	strd	r0, r3, [r4]
 8000e78:	f44f 6380 	mov.w	r3, #1024	; 0x400
 8000e7c:	4620      	mov	r0, r4
 8000e7e:	e9c4 5502 	strd	r5, r5, [r4, #8]
 8000e82:	e9c4 3504 	strd	r3, r5, [r4, #16]
 8000e86:	e9c4 5506 	strd	r5, r5, [r4, #24]
 8000e8a:	e9c4 5508 	strd	r5, r5, [r4, #32]
 8000e8e:	f001 fc0f 	bl	80026b0 <HAL_DMA_Init>
 8000e92:	b108      	cbz	r0, 8000e98 <HAL_I2C_MspInit+0x8c>
 8000e94:	f000 fa20 	bl	80012d8 <Error_Handler>
 8000e98:	2200      	movs	r2, #0
 8000e9a:	63b4      	str	r4, [r6, #56]	; 0x38
 8000e9c:	201f      	movs	r0, #31
 8000e9e:	4611      	mov	r1, r2
 8000ea0:	63a6      	str	r6, [r4, #56]	; 0x38
 8000ea2:	f001 fb97 	bl	80025d4 <HAL_NVIC_SetPriority>
 8000ea6:	201f      	movs	r0, #31
 8000ea8:	f001 fbc8 	bl	800263c <HAL_NVIC_EnableIRQ>
 8000eac:	b008      	add	sp, #32
 8000eae:	bd70      	pop	{r4, r5, r6, pc}
 8000eb0:	40005400 	.word	0x40005400
 8000eb4:	40023800 	.word	0x40023800
 8000eb8:	40020400 	.word	0x40020400
 8000ebc:	40026010 	.word	0x40026010
 8000ec0:	200003d8 	.word	0x200003d8

08000ec4 <KeyPad_Init>:
 8000ec4:	e92d 4ff0 	stmdb	sp!, {r4, r5, r6, r7, r8, r9, sl, fp, lr}
 8000ec8:	4d21      	ldr	r5, [pc, #132]	; (8000f50 <KeyPad_Init+0x8c>)
 8000eca:	f8df a094 	ldr.w	sl, [pc, #148]	; 8000f60 <KeyPad_Init+0x9c>
 8000ece:	4f21      	ldr	r7, [pc, #132]	; (8000f54 <KeyPad_Init+0x90>)
 8000ed0:	f240 4304 	movw	r3, #1028	; 0x404
 8000ed4:	2400      	movs	r4, #0
 8000ed6:	b087      	sub	sp, #28
 8000ed8:	802b      	strh	r3, [r5, #0]
 8000eda:	4626      	mov	r6, r4
 8000edc:	782b      	ldrb	r3, [r5, #0]
 8000ede:	f104 0901 	add.w	r9, r4, #1
 8000ee2:	b2e4      	uxtb	r4, r4
 8000ee4:	42a3      	cmp	r3, r4
 8000ee6:	d80e      	bhi.n	8000f06 <KeyPad_Init+0x42>
 8000ee8:	4f1b      	ldr	r7, [pc, #108]	; (8000f58 <KeyPad_Init+0x94>)
 8000eea:	f8df 8078 	ldr.w	r8, [pc, #120]	; 8000f64 <KeyPad_Init+0xa0>
 8000eee:	2300      	movs	r3, #0
 8000ef0:	2401      	movs	r4, #1
 8000ef2:	786a      	ldrb	r2, [r5, #1]
 8000ef4:	1c5e      	adds	r6, r3, #1
 8000ef6:	b2db      	uxtb	r3, r3
 8000ef8:	429a      	cmp	r2, r3
 8000efa:	d81a      	bhi.n	8000f32 <KeyPad_Init+0x6e>
 8000efc:	4b17      	ldr	r3, [pc, #92]	; (8000f5c <KeyPad_Init+0x98>)
 8000efe:	701c      	strb	r4, [r3, #0]
 8000f00:	b007      	add	sp, #28
 8000f02:	e8bd 8ff0 	ldmia.w	sp!, {r4, r5, r6, r7, r8, r9, sl, fp, pc}
 8000f06:	a906      	add	r1, sp, #24
 8000f08:	f83a 8014 	ldrh.w	r8, [sl, r4, lsl #1]
 8000f0c:	f857 0024 	ldr.w	r0, [r7, r4, lsl #2]
 8000f10:	f841 8d14 	str.w	r8, [r1, #-20]!
 8000f14:	f04f 0b01 	mov.w	fp, #1
 8000f18:	e9cd b602 	strd	fp, r6, [sp, #8]
 8000f1c:	9604      	str	r6, [sp, #16]
 8000f1e:	f001 fd99 	bl	8002a54 <HAL_GPIO_Init>
 8000f22:	f857 0024 	ldr.w	r0, [r7, r4, lsl #2]
 8000f26:	465a      	mov	r2, fp
 8000f28:	4641      	mov	r1, r8
 8000f2a:	f001 fe67 	bl	8002bfc <HAL_GPIO_WritePin>
 8000f2e:	464c      	mov	r4, r9
 8000f30:	e7d4      	b.n	8000edc <KeyPad_Init+0x18>
 8000f32:	2200      	movs	r2, #0
 8000f34:	a906      	add	r1, sp, #24
 8000f36:	e9cd 2402 	strd	r2, r4, [sp, #8]
 8000f3a:	9204      	str	r2, [sp, #16]
 8000f3c:	f837 2013 	ldrh.w	r2, [r7, r3, lsl #1]
 8000f40:	f858 0023 	ldr.w	r0, [r8, r3, lsl #2]
 8000f44:	f841 2d14 	str.w	r2, [r1, #-20]!
 8000f48:	f001 fd84 	bl	8002a54 <HAL_GPIO_Init>
 8000f4c:	4633      	mov	r3, r6
 8000f4e:	e7d0      	b.n	8000ef2 <KeyPad_Init+0x2e>
 8000f50:	20000438 	.word	0x20000438
 8000f54:	20000000 	.word	0x20000000
 8000f58:	0800600e 	.word	0x0800600e
 8000f5c:	20000220 	.word	0x20000220
 8000f60:	08006006 	.word	0x08006006
 8000f64:	20000010 	.word	0x20000010

08000f68 <KeyPad_Scan>:
 8000f68:	e92d 4ff8 	stmdb	sp!, {r3, r4, r5, r6, r7, r8, r9, sl, fp, lr}
 8000f6c:	4e2e      	ldr	r6, [pc, #184]	; (8001028 <KeyPad_Scan+0xc0>)
 8000f6e:	f04f 0900 	mov.w	r9, #0
 8000f72:	4c2e      	ldr	r4, [pc, #184]	; (800102c <KeyPad_Scan+0xc4>)
 8000f74:	7823      	ldrb	r3, [r4, #0]
 8000f76:	fa5f f789 	uxtb.w	r7, r9
 8000f7a:	42bb      	cmp	r3, r7
 8000f7c:	d825      	bhi.n	8000fca <KeyPad_Scan+0x62>
 8000f7e:	2400      	movs	r4, #0
 8000f80:	e048      	b.n	8001014 <KeyPad_Scan+0xac>
 8000f82:	f838 1013 	ldrh.w	r1, [r8, r3, lsl #1]
 8000f86:	f855 0023 	ldr.w	r0, [r5, r3, lsl #2]
 8000f8a:	2201      	movs	r2, #1
 8000f8c:	f001 fe36 	bl	8002bfc <HAL_GPIO_WritePin>
 8000f90:	4653      	mov	r3, sl
 8000f92:	7822      	ldrb	r2, [r4, #0]
 8000f94:	f103 0a01 	add.w	sl, r3, #1
 8000f98:	b2db      	uxtb	r3, r3
 8000f9a:	429a      	cmp	r2, r3
 8000f9c:	d8f1      	bhi.n	8000f82 <KeyPad_Scan+0x1a>
 8000f9e:	2200      	movs	r2, #0
 8000fa0:	f838 1017 	ldrh.w	r1, [r8, r7, lsl #1]
 8000fa4:	f855 0027 	ldr.w	r0, [r5, r7, lsl #2]
 8000fa8:	f8df b088 	ldr.w	fp, [pc, #136]	; 8001034 <KeyPad_Scan+0xcc>
 8000fac:	f001 fe26 	bl	8002bfc <HAL_GPIO_WritePin>
 8000fb0:	2005      	movs	r0, #5
 8000fb2:	f001 f827 	bl	8002004 <HAL_Delay>
 8000fb6:	f04f 0a00 	mov.w	sl, #0
 8000fba:	7863      	ldrb	r3, [r4, #1]
 8000fbc:	fa5f f58a 	uxtb.w	r5, sl
 8000fc0:	42ab      	cmp	r3, r5
 8000fc2:	d807      	bhi.n	8000fd4 <KeyPad_Scan+0x6c>
 8000fc4:	f109 0901 	add.w	r9, r9, #1
 8000fc8:	e7d3      	b.n	8000f72 <KeyPad_Scan+0xa>
 8000fca:	2300      	movs	r3, #0
 8000fcc:	f8df 8068 	ldr.w	r8, [pc, #104]	; 8001038 <KeyPad_Scan+0xd0>
 8000fd0:	4d17      	ldr	r5, [pc, #92]	; (8001030 <KeyPad_Scan+0xc8>)
 8000fd2:	e7de      	b.n	8000f92 <KeyPad_Scan+0x2a>
 8000fd4:	f83b 8015 	ldrh.w	r8, [fp, r5, lsl #1]
 8000fd8:	f856 0025 	ldr.w	r0, [r6, r5, lsl #2]
 8000fdc:	4641      	mov	r1, r8
 8000fde:	f001 fe07 	bl	8002bf0 <HAL_GPIO_ReadPin>
 8000fe2:	b9f0      	cbnz	r0, 8001022 <KeyPad_Scan+0xba>
 8000fe4:	2014      	movs	r0, #20
 8000fe6:	f001 f80d 	bl	8002004 <HAL_Delay>
 8000fea:	4641      	mov	r1, r8
 8000fec:	f856 0025 	ldr.w	r0, [r6, r5, lsl #2]
 8000ff0:	f001 fdfe 	bl	8002bf0 <HAL_GPIO_ReadPin>
 8000ff4:	b9a8      	cbnz	r0, 8001022 <KeyPad_Scan+0xba>
 8000ff6:	2301      	movs	r3, #1
 8000ff8:	f105 0408 	add.w	r4, r5, #8
 8000ffc:	fa03 f404 	lsl.w	r4, r3, r4
 8001000:	fa03 f707 	lsl.w	r7, r3, r7
 8001004:	433c      	orrs	r4, r7
 8001006:	b2a4      	uxth	r4, r4
 8001008:	4641      	mov	r1, r8
 800100a:	f856 0025 	ldr.w	r0, [r6, r5, lsl #2]
 800100e:	f001 fdef 	bl	8002bf0 <HAL_GPIO_ReadPin>
 8001012:	b110      	cbz	r0, 800101a <KeyPad_Scan+0xb2>
 8001014:	4620      	mov	r0, r4
 8001016:	e8bd 8ff8 	ldmia.w	sp!, {r3, r4, r5, r6, r7, r8, r9, sl, fp, pc}
 800101a:	2005      	movs	r0, #5
 800101c:	f000 fff2 	bl	8002004 <HAL_Delay>
 8001020:	e7f2      	b.n	8001008 <KeyPad_Scan+0xa0>
 8001022:	f10a 0a01 	add.w	sl, sl, #1
 8001026:	e7c8      	b.n	8000fba <KeyPad_Scan+0x52>
 8001028:	20000010 	.word	0x20000010
 800102c:	20000438 	.word	0x20000438
 8001030:	20000000 	.word	0x20000000
 8001034:	0800600e 	.word	0x0800600e
 8001038:	08006006 	.word	0x08006006

0800103c <KeyPad_WaitForKey>:
 800103c:	b538      	push	{r3, r4, r5, lr}
 800103e:	4604      	mov	r4, r0
 8001040:	b948      	cbnz	r0, 8001056 <KeyPad_WaitForKey+0x1a>
 8001042:	f7ff ff91 	bl	8000f68 <KeyPad_Scan>
 8001046:	b110      	cbz	r0, 800104e <KeyPad_WaitForKey+0x12>
 8001048:	4b0c      	ldr	r3, [pc, #48]	; (800107c <KeyPad_WaitForKey+0x40>)
 800104a:	8058      	strh	r0, [r3, #2]
 800104c:	bd38      	pop	{r3, r4, r5, pc}
 800104e:	2014      	movs	r0, #20
 8001050:	f000 ffd8 	bl	8002004 <HAL_Delay>
 8001054:	e7f5      	b.n	8001042 <KeyPad_WaitForKey+0x6>
 8001056:	f000 ffcf 	bl	8001ff8 <HAL_GetTick>
 800105a:	4605      	mov	r5, r0
 800105c:	f000 ffcc 	bl	8001ff8 <HAL_GetTick>
 8001060:	1b40      	subs	r0, r0, r5
 8001062:	4284      	cmp	r4, r0
 8001064:	d801      	bhi.n	800106a <KeyPad_WaitForKey+0x2e>
 8001066:	2000      	movs	r0, #0
 8001068:	e7ee      	b.n	8001048 <KeyPad_WaitForKey+0xc>
 800106a:	f7ff ff7d 	bl	8000f68 <KeyPad_Scan>
 800106e:	2800      	cmp	r0, #0
 8001070:	d1ea      	bne.n	8001048 <KeyPad_WaitForKey+0xc>
 8001072:	2014      	movs	r0, #20
 8001074:	f000 ffc6 	bl	8002004 <HAL_Delay>
 8001078:	e7f0      	b.n	800105c <KeyPad_WaitForKey+0x20>
 800107a:	bf00      	nop
 800107c:	20000438 	.word	0x20000438

08001080 <buzz>:
 8001080:	b510      	push	{r4, lr}
 8001082:	4c08      	ldr	r4, [pc, #32]	; (80010a4 <buzz+0x24>)
 8001084:	2201      	movs	r2, #1
 8001086:	2110      	movs	r1, #16
 8001088:	4620      	mov	r0, r4
 800108a:	f001 fdb7 	bl	8002bfc <HAL_GPIO_WritePin>
 800108e:	2014      	movs	r0, #20
 8001090:	f000 ffb8 	bl	8002004 <HAL_Delay>
 8001094:	4620      	mov	r0, r4
 8001096:	2200      	movs	r2, #0
 8001098:	2110      	movs	r1, #16
 800109a:	e8bd 4010 	ldmia.w	sp!, {r4, lr}
 800109e:	f001 bdad 	b.w	8002bfc <HAL_GPIO_WritePin>
 80010a2:	bf00      	nop
 80010a4:	40020400 	.word	0x40020400

080010a8 <key_pad_get_char>:
 80010a8:	b508      	push	{r3, lr}
 80010aa:	f7ff ffc7 	bl	800103c <KeyPad_WaitForKey>
 80010ae:	f5b0 7f02 	cmp.w	r0, #520	; 0x208
 80010b2:	d074      	beq.n	800119e <key_pad_get_char+0xf6>
 80010b4:	d820      	bhi.n	80010f8 <key_pad_get_char+0x50>
 80010b6:	f5b0 7f84 	cmp.w	r0, #264	; 0x108
 80010ba:	d06c      	beq.n	8001196 <key_pad_get_char+0xee>
 80010bc:	d80d      	bhi.n	80010da <key_pad_get_char+0x32>
 80010be:	f5b0 7f81 	cmp.w	r0, #258	; 0x102
 80010c2:	d048      	beq.n	8001156 <key_pad_get_char+0xae>
 80010c4:	f5b0 7f82 	cmp.w	r0, #260	; 0x104
 80010c8:	d055      	beq.n	8001176 <key_pad_get_char+0xce>
 80010ca:	f240 1301 	movw	r3, #257	; 0x101
 80010ce:	4298      	cmp	r0, r3
 80010d0:	d12f      	bne.n	8001132 <key_pad_get_char+0x8a>
 80010d2:	f7ff ffd5 	bl	8001080 <buzz>
 80010d6:	2031      	movs	r0, #49	; 0x31
 80010d8:	bd08      	pop	{r3, pc}
 80010da:	f240 2302 	movw	r3, #514	; 0x202
 80010de:	4298      	cmp	r0, r3
 80010e0:	d03d      	beq.n	800115e <key_pad_get_char+0xb6>
 80010e2:	f5b0 7f01 	cmp.w	r0, #516	; 0x204
 80010e6:	d04a      	beq.n	800117e <key_pad_get_char+0xd6>
 80010e8:	f240 2301 	movw	r3, #513	; 0x201
 80010ec:	4298      	cmp	r0, r3
 80010ee:	d120      	bne.n	8001132 <key_pad_get_char+0x8a>
 80010f0:	f7ff ffc6 	bl	8001080 <buzz>
 80010f4:	2032      	movs	r0, #50	; 0x32
 80010f6:	e7ef      	b.n	80010d8 <key_pad_get_char+0x30>
 80010f8:	f5b0 6f81 	cmp.w	r0, #1032	; 0x408
 80010fc:	d053      	beq.n	80011a6 <key_pad_get_char+0xfe>
 80010fe:	d80f      	bhi.n	8001120 <key_pad_get_char+0x78>
 8001100:	f240 4302 	movw	r3, #1026	; 0x402
 8001104:	4298      	cmp	r0, r3
 8001106:	d02e      	beq.n	8001166 <key_pad_get_char+0xbe>
 8001108:	f240 4304 	movw	r3, #1028	; 0x404
 800110c:	4298      	cmp	r0, r3
 800110e:	d03a      	beq.n	8001186 <key_pad_get_char+0xde>
 8001110:	f240 4301 	movw	r3, #1025	; 0x401
 8001114:	4298      	cmp	r0, r3
 8001116:	d10c      	bne.n	8001132 <key_pad_get_char+0x8a>
 8001118:	f7ff ffb2 	bl	8001080 <buzz>
 800111c:	2033      	movs	r0, #51	; 0x33
 800111e:	e7db      	b.n	80010d8 <key_pad_get_char+0x30>
 8001120:	f640 0302 	movw	r3, #2050	; 0x802
 8001124:	4298      	cmp	r0, r3
 8001126:	d022      	beq.n	800116e <key_pad_get_char+0xc6>
 8001128:	d805      	bhi.n	8001136 <key_pad_get_char+0x8e>
 800112a:	f640 0301 	movw	r3, #2049	; 0x801
 800112e:	4298      	cmp	r0, r3
 8001130:	d00d      	beq.n	800114e <key_pad_get_char+0xa6>
 8001132:	2000      	movs	r0, #0
 8001134:	e7d0      	b.n	80010d8 <key_pad_get_char+0x30>
 8001136:	f640 0304 	movw	r3, #2052	; 0x804
 800113a:	4298      	cmp	r0, r3
 800113c:	d027      	beq.n	800118e <key_pad_get_char+0xe6>
 800113e:	f640 0308 	movw	r3, #2056	; 0x808
 8001142:	4298      	cmp	r0, r3
 8001144:	d1f5      	bne.n	8001132 <key_pad_get_char+0x8a>
 8001146:	f7ff ff9b 	bl	8001080 <buzz>
 800114a:	2044      	movs	r0, #68	; 0x44
 800114c:	e7c4      	b.n	80010d8 <key_pad_get_char+0x30>
 800114e:	f7ff ff97 	bl	8001080 <buzz>
 8001152:	2041      	movs	r0, #65	; 0x41
 8001154:	e7c0      	b.n	80010d8 <key_pad_get_char+0x30>
 8001156:	f7ff ff93 	bl	8001080 <buzz>
 800115a:	2034      	movs	r0, #52	; 0x34
 800115c:	e7bc      	b.n	80010d8 <key_pad_get_char+0x30>
 800115e:	f7ff ff8f 	bl	8001080 <buzz>
 8001162:	2035      	movs	r0, #53	; 0x35
 8001164:	e7b8      	b.n	80010d8 <key_pad_get_char+0x30>
 8001166:	f7ff ff8b 	bl	8001080 <buzz>
 800116a:	2036      	movs	r0, #54	; 0x36
 800116c:	e7b4      	b.n	80010d8 <key_pad_get_char+0x30>
 800116e:	f7ff ff87 	bl	8001080 <buzz>
 8001172:	2042      	movs	r0, #66	; 0x42
 8001174:	e7b0      	b.n	80010d8 <key_pad_get_char+0x30>
 8001176:	f7ff ff83 	bl	8001080 <buzz>
 800117a:	2037      	movs	r0, #55	; 0x37
 800117c:	e7ac      	b.n	80010d8 <key_pad_get_char+0x30>
 800117e:	f7ff ff7f 	bl	8001080 <buzz>
 8001182:	2038      	movs	r0, #56	; 0x38
 8001184:	e7a8      	b.n	80010d8 <key_pad_get_char+0x30>
 8001186:	f7ff ff7b 	bl	8001080 <buzz>
 800118a:	2039      	movs	r0, #57	; 0x39
 800118c:	e7a4      	b.n	80010d8 <key_pad_get_char+0x30>
 800118e:	f7ff ff77 	bl	8001080 <buzz>
 8001192:	2043      	movs	r0, #67	; 0x43
 8001194:	e7a0      	b.n	80010d8 <key_pad_get_char+0x30>
 8001196:	f7ff ff73 	bl	8001080 <buzz>
 800119a:	202a      	movs	r0, #42	; 0x2a
 800119c:	e79c      	b.n	80010d8 <key_pad_get_char+0x30>
 800119e:	f7ff ff6f 	bl	8001080 <buzz>
 80011a2:	2030      	movs	r0, #48	; 0x30
 80011a4:	e798      	b.n	80010d8 <key_pad_get_char+0x30>
 80011a6:	f7ff ff6b 	bl	8001080 <buzz>
 80011aa:	2023      	movs	r0, #35	; 0x23
 80011ac:	e794      	b.n	80010d8 <key_pad_get_char+0x30>

080011ae <key_pad_get_pin>:
 80011ae:	b538      	push	{r3, r4, r5, lr}
 80011b0:	2004      	movs	r0, #4
 80011b2:	f004 f879 	bl	80052a8 <malloc>
 80011b6:	2400      	movs	r4, #0
 80011b8:	4605      	mov	r5, r0
 80011ba:	f44f 707a 	mov.w	r0, #1000	; 0x3e8
 80011be:	f7ff ff73 	bl	80010a8 <key_pad_get_char>
 80011c2:	f1a0 0330 	sub.w	r3, r0, #48	; 0x30
 80011c6:	b2db      	uxtb	r3, r3
 80011c8:	2b09      	cmp	r3, #9
 80011ca:	bf9c      	itt	ls
 80011cc:	5528      	strbls	r0, [r5, r4]
 80011ce:	3401      	addls	r4, #1
 80011d0:	2c03      	cmp	r4, #3
 80011d2:	ddf2      	ble.n	80011ba <key_pad_get_pin+0xc>
 80011d4:	2300      	movs	r3, #0
 80011d6:	712b      	strb	r3, [r5, #4]
 80011d8:	4628      	mov	r0, r5
 80011da:	bd38      	pop	{r3, r4, r5, pc}

080011dc <peripherals_init>:
 80011dc:	b508      	push	{r3, lr}
 80011de:	f7ff fd65 	bl	8000cac <MX_GPIO_Init>
 80011e2:	f7ff fc87 	bl	8000af4 <MX_DMA_Init>
 80011e6:	f7ff f9e3 	bl	80005b0 <MX_ADC1_Init>
 80011ea:	f7ff fdf1 	bl	8000dd0 <MX_I2C1_Init>
 80011ee:	f000 fb8f 	bl	8001910 <MX_TIM5_Init>
 80011f2:	f000 fbc7 	bl	8001984 <MX_TIM9_Init>
 80011f6:	f000 fbf3 	bl	80019e0 <MX_TIM10_Init>
 80011fa:	f000 fc0f 	bl	8001a1c <MX_TIM11_Init>
 80011fe:	f000 fe11 	bl	8001e24 <MX_USART2_UART_Init>
 8001202:	f000 fce7 	bl	8001bd4 <MX_TIM3_Init>
 8001206:	f000 fb49 	bl	800189c <MX_TIM4_Init>
 800120a:	e8bd 4008 	ldmia.w	sp!, {r3, lr}
 800120e:	f7ff bcb7 	b.w	8000b80 <ds1307rtc_init>
	...

08001214 <SystemClock_Config>:
 8001214:	b570      	push	{r4, r5, r6, lr}
 8001216:	2414      	movs	r4, #20
 8001218:	b094      	sub	sp, #80	; 0x50
 800121a:	4622      	mov	r2, r4
 800121c:	2100      	movs	r1, #0
 800121e:	a809      	add	r0, sp, #36	; 0x24
 8001220:	f004 f85c 	bl	80052dc <memset>
 8001224:	4622      	mov	r2, r4
 8001226:	2100      	movs	r1, #0
 8001228:	a803      	add	r0, sp, #12
 800122a:	f004 f857 	bl	80052dc <memset>
 800122e:	2400      	movs	r4, #0
 8001230:	4b1b      	ldr	r3, [pc, #108]	; (80012a0 <SystemClock_Config+0x8c>)
 8001232:	9401      	str	r4, [sp, #4]
 8001234:	6c1a      	ldr	r2, [r3, #64]	; 0x40
 8001236:	f042 5280 	orr.w	r2, r2, #268435456	; 0x10000000
 800123a:	641a      	str	r2, [r3, #64]	; 0x40
 800123c:	6c1b      	ldr	r3, [r3, #64]	; 0x40
 800123e:	4a19      	ldr	r2, [pc, #100]	; (80012a4 <SystemClock_Config+0x90>)
 8001240:	f003 5380 	and.w	r3, r3, #268435456	; 0x10000000
 8001244:	9301      	str	r3, [sp, #4]
 8001246:	9b01      	ldr	r3, [sp, #4]
 8001248:	9402      	str	r4, [sp, #8]
 800124a:	6813      	ldr	r3, [r2, #0]
 800124c:	f423 4340 	bic.w	r3, r3, #49152	; 0xc000
 8001250:	f443 4300 	orr.w	r3, r3, #32768	; 0x8000
 8001254:	6013      	str	r3, [r2, #0]
 8001256:	6813      	ldr	r3, [r2, #0]
 8001258:	f403 4340 	and.w	r3, r3, #49152	; 0xc000
 800125c:	9302      	str	r3, [sp, #8]
 800125e:	9b02      	ldr	r3, [sp, #8]
 8001260:	2601      	movs	r6, #1
 8001262:	2310      	movs	r3, #16
 8001264:	2208      	movs	r2, #8
 8001266:	e9cd 630b 	strd	r6, r3, [sp, #44]	; 0x2c
 800126a:	2354      	movs	r3, #84	; 0x54
 800126c:	2502      	movs	r5, #2
 800126e:	e9cd 2310 	strd	r2, r3, [sp, #64]	; 0x40
 8001272:	a808      	add	r0, sp, #32
 8001274:	2304      	movs	r3, #4
 8001276:	9313      	str	r3, [sp, #76]	; 0x4c
 8001278:	9508      	str	r5, [sp, #32]
 800127a:	e9cd 540e 	strd	r5, r4, [sp, #56]	; 0x38
 800127e:	9512      	str	r5, [sp, #72]	; 0x48
 8001280:	f002 ff04 	bl	800408c <HAL_RCC_OscConfig>
 8001284:	230f      	movs	r3, #15
 8001286:	e9cd 3503 	strd	r3, r5, [sp, #12]
 800128a:	4631      	mov	r1, r6
 800128c:	2380      	movs	r3, #128	; 0x80
 800128e:	a803      	add	r0, sp, #12
 8001290:	e9cd 3405 	strd	r3, r4, [sp, #20]
 8001294:	9407      	str	r4, [sp, #28]
 8001296:	f003 f8cd 	bl	8004434 <HAL_RCC_ClockConfig>
 800129a:	b014      	add	sp, #80	; 0x50
 800129c:	bd70      	pop	{r4, r5, r6, pc}
 800129e:	bf00      	nop
 80012a0:	40023800 	.word	0x40023800
 80012a4:	40007000 	.word	0x40007000

080012a8 <main>:
 80012a8:	b508      	push	{r3, lr}
 80012aa:	f000 fe7f 	bl	8001fac <HAL_Init>
 80012ae:	f7ff ffb1 	bl	8001214 <SystemClock_Config>
 80012b2:	f7ff ff93 	bl	80011dc <peripherals_init>
 80012b6:	4806      	ldr	r0, [pc, #24]	; (80012d0 <main+0x28>)
 80012b8:	4c06      	ldr	r4, [pc, #24]	; (80012d4 <main+0x2c>)
 80012ba:	f003 f9e9 	bl	8004690 <HAL_TIM_Base_Start_IT>
 80012be:	f7ff fabf 	bl	8000840 <user_configuration>
 80012c2:	7823      	ldrb	r3, [r4, #0]
 80012c4:	b903      	cbnz	r3, 80012c8 <main+0x20>
 80012c6:	e7fe      	b.n	80012c6 <main+0x1e>
 80012c8:	f000 f8f2 	bl	80014b0 <start_sequence>
 80012cc:	e7f9      	b.n	80012c2 <main+0x1a>
 80012ce:	bf00      	nop
 80012d0:	20000488 	.word	0x20000488
 80012d4:	20000220 	.word	0x20000220

080012d8 <Error_Handler>:
 80012d8:	4770      	bx	lr
	...

080012dc <clear_vector>:
 80012dc:	4b02      	ldr	r3, [pc, #8]	; (80012e8 <clear_vector+0xc>)
 80012de:	2200      	movs	r2, #0
 80012e0:	701a      	strb	r2, [r3, #0]
 80012e2:	705a      	strb	r2, [r3, #1]
 80012e4:	4770      	bx	lr
 80012e6:	bf00      	nop
 80012e8:	20000441 	.word	0x20000441

080012ec <getSymbols>:
 80012ec:	b5f8      	push	{r3, r4, r5, r6, r7, lr}
 80012ee:	f7ff fff5 	bl	80012dc <clear_vector>
 80012f2:	4e0d      	ldr	r6, [pc, #52]	; (8001328 <getSymbols+0x3c>)
 80012f4:	2400      	movs	r4, #0
 80012f6:	4627      	mov	r7, r4
 80012f8:	4635      	mov	r5, r6
 80012fa:	2000      	movs	r0, #0
 80012fc:	f7ff fed4 	bl	80010a8 <key_pad_get_char>
 8001300:	5530      	strb	r0, [r6, r4]
 8001302:	b924      	cbnz	r4, 800130e <getSymbols+0x22>
 8001304:	b130      	cbz	r0, 8001314 <getSymbols+0x28>
 8001306:	786b      	ldrb	r3, [r5, #1]
 8001308:	b15b      	cbz	r3, 8001322 <getSymbols+0x36>
 800130a:	70af      	strb	r7, [r5, #2]
 800130c:	e001      	b.n	8001312 <getSymbols+0x26>
 800130e:	2c01      	cmp	r4, #1
 8001310:	d0f9      	beq.n	8001306 <getSymbols+0x1a>
 8001312:	2402      	movs	r4, #2
 8001314:	782b      	ldrb	r3, [r5, #0]
 8001316:	2b00      	cmp	r3, #0
 8001318:	d0ef      	beq.n	80012fa <getSymbols+0xe>
 800131a:	786b      	ldrb	r3, [r5, #1]
 800131c:	2b00      	cmp	r3, #0
 800131e:	d0ec      	beq.n	80012fa <getSymbols+0xe>
 8001320:	bdf8      	pop	{r3, r4, r5, r6, r7, pc}
 8001322:	2401      	movs	r4, #1
 8001324:	e7f6      	b.n	8001314 <getSymbols+0x28>
 8001326:	bf00      	nop
 8001328:	20000441 	.word	0x20000441

0800132c <checkSymbol>:
 800132c:	b508      	push	{r3, lr}
 800132e:	4b09      	ldr	r3, [pc, #36]	; (8001354 <checkSymbol+0x28>)
 8001330:	785a      	ldrb	r2, [r3, #1]
 8001332:	2a23      	cmp	r2, #35	; 0x23
 8001334:	d001      	beq.n	800133a <checkSymbol+0xe>
 8001336:	2a2a      	cmp	r2, #42	; 0x2a
 8001338:	d103      	bne.n	8001342 <checkSymbol+0x16>
 800133a:	781b      	ldrb	r3, [r3, #0]
 800133c:	3b41      	subs	r3, #65	; 0x41
 800133e:	2b03      	cmp	r3, #3
 8001340:	d906      	bls.n	8001350 <checkSymbol+0x24>
 8001342:	f7ff ffcb 	bl	80012dc <clear_vector>
 8001346:	4804      	ldr	r0, [pc, #16]	; (8001358 <checkSymbol+0x2c>)
 8001348:	f7ff fa2e 	bl	80007a8 <command_rejected>
 800134c:	2000      	movs	r0, #0
 800134e:	bd08      	pop	{r3, pc}
 8001350:	2001      	movs	r0, #1
 8001352:	e7fc      	b.n	800134e <checkSymbol+0x22>
 8001354:	20000441 	.word	0x20000441
 8001358:	08006016 	.word	0x08006016

0800135c <boot_system>:
 800135c:	4b03      	ldr	r3, [pc, #12]	; (800136c <boot_system+0x10>)
 800135e:	2200      	movs	r2, #0
 8001360:	701a      	strb	r2, [r3, #0]
 8001362:	705a      	strb	r2, [r3, #1]
 8001364:	70da      	strb	r2, [r3, #3]
 8001366:	711a      	strb	r2, [r3, #4]
 8001368:	709a      	strb	r2, [r3, #2]
 800136a:	4770      	bx	lr
 800136c:	2000043c 	.word	0x2000043c

08001370 <setOrReset>:
 8001370:	b5f8      	push	{r3, r4, r5, r6, r7, lr}
 8001372:	4c48      	ldr	r4, [pc, #288]	; (8001494 <setOrReset+0x124>)
 8001374:	4e48      	ldr	r6, [pc, #288]	; (8001498 <setOrReset+0x128>)
 8001376:	78a7      	ldrb	r7, [r4, #2]
 8001378:	7833      	ldrb	r3, [r6, #0]
 800137a:	2f00      	cmp	r7, #0
 800137c:	d078      	beq.n	8001470 <setOrReset+0x100>
 800137e:	7872      	ldrb	r2, [r6, #1]
 8001380:	2a23      	cmp	r2, #35	; 0x23
 8001382:	d158      	bne.n	8001436 <setOrReset+0xc6>
 8001384:	2b42      	cmp	r3, #66	; 0x42
 8001386:	d049      	beq.n	800141c <setOrReset+0xac>
 8001388:	2b43      	cmp	r3, #67	; 0x43
 800138a:	d04d      	beq.n	8001428 <setOrReset+0xb8>
 800138c:	2b41      	cmp	r3, #65	; 0x41
 800138e:	d152      	bne.n	8001436 <setOrReset+0xc6>
 8001390:	7823      	ldrb	r3, [r4, #0]
 8001392:	2b00      	cmp	r3, #0
 8001394:	d14f      	bne.n	8001436 <setOrReset+0xc6>
 8001396:	2201      	movs	r2, #1
 8001398:	7022      	strb	r2, [r4, #0]
 800139a:	2108      	movs	r1, #8
 800139c:	483f      	ldr	r0, [pc, #252]	; (800149c <setOrReset+0x12c>)
 800139e:	f001 fc2d 	bl	8002bfc <HAL_GPIO_WritePin>
 80013a2:	463d      	mov	r5, r7
 80013a4:	7873      	ldrb	r3, [r6, #1]
 80013a6:	2b2a      	cmp	r3, #42	; 0x2a
 80013a8:	d10a      	bne.n	80013c0 <setOrReset+0x50>
 80013aa:	7833      	ldrb	r3, [r6, #0]
 80013ac:	2b42      	cmp	r3, #66	; 0x42
 80013ae:	d047      	beq.n	8001440 <setOrReset+0xd0>
 80013b0:	2b43      	cmp	r3, #67	; 0x43
 80013b2:	d04f      	beq.n	8001454 <setOrReset+0xe4>
 80013b4:	2b41      	cmp	r3, #65	; 0x41
 80013b6:	d103      	bne.n	80013c0 <setOrReset+0x50>
 80013b8:	7825      	ldrb	r5, [r4, #0]
 80013ba:	2d00      	cmp	r5, #0
 80013bc:	d13d      	bne.n	800143a <setOrReset+0xca>
 80013be:	2500      	movs	r5, #0
 80013c0:	7833      	ldrb	r3, [r6, #0]
 80013c2:	2b44      	cmp	r3, #68	; 0x44
 80013c4:	d15f      	bne.n	8001486 <setOrReset+0x116>
 80013c6:	7873      	ldrb	r3, [r6, #1]
 80013c8:	2b2a      	cmp	r3, #42	; 0x2a
 80013ca:	d15c      	bne.n	8001486 <setOrReset+0x116>
 80013cc:	78a3      	ldrb	r3, [r4, #2]
 80013ce:	2b00      	cmp	r3, #0
 80013d0:	d05b      	beq.n	800148a <setOrReset+0x11a>
 80013d2:	2200      	movs	r2, #0
 80013d4:	2120      	movs	r1, #32
 80013d6:	4831      	ldr	r0, [pc, #196]	; (800149c <setOrReset+0x12c>)
 80013d8:	70a2      	strb	r2, [r4, #2]
 80013da:	7022      	strb	r2, [r4, #0]
 80013dc:	7062      	strb	r2, [r4, #1]
 80013de:	f001 fc0d 	bl	8002bfc <HAL_GPIO_WritePin>
 80013e2:	482f      	ldr	r0, [pc, #188]	; (80014a0 <setOrReset+0x130>)
 80013e4:	f003 f964 	bl	80046b0 <HAL_TIM_Base_Stop_IT>
 80013e8:	2201      	movs	r2, #1
 80013ea:	2120      	movs	r1, #32
 80013ec:	482d      	ldr	r0, [pc, #180]	; (80014a4 <setOrReset+0x134>)
 80013ee:	f001 fc05 	bl	8002bfc <HAL_GPIO_WritePin>
 80013f2:	2201      	movs	r2, #1
 80013f4:	2110      	movs	r1, #16
 80013f6:	4829      	ldr	r0, [pc, #164]	; (800149c <setOrReset+0x12c>)
 80013f8:	f001 fc00 	bl	8002bfc <HAL_GPIO_WritePin>
 80013fc:	f240 10f3 	movw	r0, #499	; 0x1f3
 8001400:	f000 fe00 	bl	8002004 <HAL_Delay>
 8001404:	4825      	ldr	r0, [pc, #148]	; (800149c <setOrReset+0x12c>)
 8001406:	2200      	movs	r2, #0
 8001408:	2110      	movs	r1, #16
 800140a:	f001 fbf7 	bl	8002bfc <HAL_GPIO_WritePin>
 800140e:	4826      	ldr	r0, [pc, #152]	; (80014a8 <setOrReset+0x138>)
 8001410:	f7ff f9d8 	bl	80007c4 <command_accepted>
 8001414:	e8bd 40f8 	ldmia.w	sp!, {r3, r4, r5, r6, r7, lr}
 8001418:	f7ff bf60 	b.w	80012dc <clear_vector>
 800141c:	7863      	ldrb	r3, [r4, #1]
 800141e:	b953      	cbnz	r3, 8001436 <setOrReset+0xc6>
 8001420:	2201      	movs	r2, #1
 8001422:	7062      	strb	r2, [r4, #1]
 8001424:	2120      	movs	r1, #32
 8001426:	e7b9      	b.n	800139c <setOrReset+0x2c>
 8001428:	7863      	ldrb	r3, [r4, #1]
 800142a:	b10b      	cbz	r3, 8001430 <setOrReset+0xc0>
 800142c:	7823      	ldrb	r3, [r4, #0]
 800142e:	b913      	cbnz	r3, 8001436 <setOrReset+0xc6>
 8001430:	2201      	movs	r2, #1
 8001432:	7022      	strb	r2, [r4, #0]
 8001434:	e7f5      	b.n	8001422 <setOrReset+0xb2>
 8001436:	2500      	movs	r5, #0
 8001438:	e7b4      	b.n	80013a4 <setOrReset+0x34>
 800143a:	2300      	movs	r3, #0
 800143c:	7023      	strb	r3, [r4, #0]
 800143e:	e7bf      	b.n	80013c0 <setOrReset+0x50>
 8001440:	7865      	ldrb	r5, [r4, #1]
 8001442:	2d00      	cmp	r5, #0
 8001444:	d0bb      	beq.n	80013be <setOrReset+0x4e>
 8001446:	2200      	movs	r2, #0
 8001448:	2120      	movs	r1, #32
 800144a:	4814      	ldr	r0, [pc, #80]	; (800149c <setOrReset+0x12c>)
 800144c:	7062      	strb	r2, [r4, #1]
 800144e:	f001 fbd5 	bl	8002bfc <HAL_GPIO_WritePin>
 8001452:	e7b5      	b.n	80013c0 <setOrReset+0x50>
 8001454:	7863      	ldrb	r3, [r4, #1]
 8001456:	b913      	cbnz	r3, 800145e <setOrReset+0xee>
 8001458:	7823      	ldrb	r3, [r4, #0]
 800145a:	2b00      	cmp	r3, #0
 800145c:	d0af      	beq.n	80013be <setOrReset+0x4e>
 800145e:	2200      	movs	r2, #0
 8001460:	2120      	movs	r1, #32
 8001462:	480e      	ldr	r0, [pc, #56]	; (800149c <setOrReset+0x12c>)
 8001464:	7022      	strb	r2, [r4, #0]
 8001466:	7062      	strb	r2, [r4, #1]
 8001468:	463d      	mov	r5, r7
 800146a:	f001 fbc7 	bl	8002bfc <HAL_GPIO_WritePin>
 800146e:	e7a7      	b.n	80013c0 <setOrReset+0x50>
 8001470:	2b44      	cmp	r3, #68	; 0x44
 8001472:	d1a4      	bne.n	80013be <setOrReset+0x4e>
 8001474:	7873      	ldrb	r3, [r6, #1]
 8001476:	2b23      	cmp	r3, #35	; 0x23
 8001478:	d1a1      	bne.n	80013be <setOrReset+0x4e>
 800147a:	2501      	movs	r5, #1
 800147c:	4808      	ldr	r0, [pc, #32]	; (80014a0 <setOrReset+0x130>)
 800147e:	70a5      	strb	r5, [r4, #2]
 8001480:	f003 f906 	bl	8004690 <HAL_TIM_Base_Start_IT>
 8001484:	e79c      	b.n	80013c0 <setOrReset+0x50>
 8001486:	2d00      	cmp	r5, #0
 8001488:	d1b3      	bne.n	80013f2 <setOrReset+0x82>
 800148a:	4808      	ldr	r0, [pc, #32]	; (80014ac <setOrReset+0x13c>)
 800148c:	f7ff f98c 	bl	80007a8 <command_rejected>
 8001490:	e7c0      	b.n	8001414 <setOrReset+0xa4>
 8001492:	bf00      	nop
 8001494:	2000043c 	.word	0x2000043c
 8001498:	20000441 	.word	0x20000441
 800149c:	40020400 	.word	0x40020400
 80014a0:	20000548 	.word	0x20000548
 80014a4:	40020000 	.word	0x40020000
 80014a8:	0800602a 	.word	0x0800602a
 80014ac:	08006016 	.word	0x08006016

080014b0 <start_sequence>:
 80014b0:	b508      	push	{r3, lr}
 80014b2:	20c8      	movs	r0, #200	; 0xc8
 80014b4:	f7ff fdf8 	bl	80010a8 <key_pad_get_char>
 80014b8:	2823      	cmp	r0, #35	; 0x23
 80014ba:	d116      	bne.n	80014ea <start_sequence+0x3a>
 80014bc:	480b      	ldr	r0, [pc, #44]	; (80014ec <start_sequence+0x3c>)
 80014be:	f7ff f981 	bl	80007c4 <command_accepted>
 80014c2:	f7ff fe74 	bl	80011ae <key_pad_get_pin>
 80014c6:	490a      	ldr	r1, [pc, #40]	; (80014f0 <start_sequence+0x40>)
 80014c8:	f7ff f980 	bl	80007cc <matchPin>
 80014cc:	b140      	cbz	r0, 80014e0 <start_sequence+0x30>
 80014ce:	f7ff ff0d 	bl	80012ec <getSymbols>
 80014d2:	f7ff ff2b 	bl	800132c <checkSymbol>
 80014d6:	b140      	cbz	r0, 80014ea <start_sequence+0x3a>
 80014d8:	e8bd 4008 	ldmia.w	sp!, {r3, lr}
 80014dc:	f7ff bf48 	b.w	8001370 <setOrReset>
 80014e0:	4804      	ldr	r0, [pc, #16]	; (80014f4 <start_sequence+0x44>)
 80014e2:	e8bd 4008 	ldmia.w	sp!, {r3, lr}
 80014e6:	f7ff b96f 	b.w	80007c8 <user_pin_rejected>
 80014ea:	bd08      	pop	{r3, pc}
 80014ec:	0800602a 	.word	0x0800602a
 80014f0:	200002e0 	.word	0x200002e0
 80014f4:	0800603e 	.word	0x0800603e

080014f8 <HAL_GPIO_EXTI_Callback>:
 80014f8:	2808      	cmp	r0, #8
 80014fa:	b538      	push	{r3, r4, r5, lr}
 80014fc:	4601      	mov	r1, r0
 80014fe:	d11c      	bne.n	800153a <HAL_GPIO_EXTI_Callback+0x42>
 8001500:	4c18      	ldr	r4, [pc, #96]	; (8001564 <HAL_GPIO_EXTI_Callback+0x6c>)
 8001502:	7822      	ldrb	r2, [r4, #0]
 8001504:	b1d2      	cbz	r2, 800153c <HAL_GPIO_EXTI_Callback+0x44>
 8001506:	4818      	ldr	r0, [pc, #96]	; (8001568 <HAL_GPIO_EXTI_Callback+0x70>)
 8001508:	f001 fb72 	bl	8002bf0 <HAL_GPIO_ReadPin>
 800150c:	2801      	cmp	r0, #1
 800150e:	d115      	bne.n	800153c <HAL_GPIO_EXTI_Callback+0x44>
 8001510:	4d16      	ldr	r5, [pc, #88]	; (800156c <HAL_GPIO_EXTI_Callback+0x74>)
 8001512:	782a      	ldrb	r2, [r5, #0]
 8001514:	b992      	cbnz	r2, 800153c <HAL_GPIO_EXTI_Callback+0x44>
 8001516:	f000 fa35 	bl	8001984 <MX_TIM9_Init>
 800151a:	4b15      	ldr	r3, [pc, #84]	; (8001570 <HAL_GPIO_EXTI_Callback+0x78>)
 800151c:	6899      	ldr	r1, [r3, #8]
 800151e:	b139      	cbz	r1, 8001530 <HAL_GPIO_EXTI_Callback+0x38>
 8001520:	4a14      	ldr	r2, [pc, #80]	; (8001574 <HAL_GPIO_EXTI_Callback+0x7c>)
 8001522:	f44f 737a 	mov.w	r3, #1000	; 0x3e8
 8001526:	6810      	ldr	r0, [r2, #0]
 8001528:	434b      	muls	r3, r1
 800152a:	3b01      	subs	r3, #1
 800152c:	62c3      	str	r3, [r0, #44]	; 0x2c
 800152e:	60d3      	str	r3, [r2, #12]
 8001530:	4810      	ldr	r0, [pc, #64]	; (8001574 <HAL_GPIO_EXTI_Callback+0x7c>)
 8001532:	f003 f8ad 	bl	8004690 <HAL_TIM_Base_Start_IT>
 8001536:	2301      	movs	r3, #1
 8001538:	702b      	strb	r3, [r5, #0]
 800153a:	bd38      	pop	{r3, r4, r5, pc}
 800153c:	7823      	ldrb	r3, [r4, #0]
 800153e:	b953      	cbnz	r3, 8001556 <HAL_GPIO_EXTI_Callback+0x5e>
 8001540:	4b0a      	ldr	r3, [pc, #40]	; (800156c <HAL_GPIO_EXTI_Callback+0x74>)
 8001542:	781a      	ldrb	r2, [r3, #0]
 8001544:	2a00      	cmp	r2, #0
 8001546:	d0f8      	beq.n	800153a <HAL_GPIO_EXTI_Callback+0x42>
 8001548:	2200      	movs	r2, #0
 800154a:	701a      	strb	r2, [r3, #0]
 800154c:	4809      	ldr	r0, [pc, #36]	; (8001574 <HAL_GPIO_EXTI_Callback+0x7c>)
 800154e:	e8bd 4038 	ldmia.w	sp!, {r3, r4, r5, lr}
 8001552:	f003 b8ad 	b.w	80046b0 <HAL_TIM_Base_Stop_IT>
 8001556:	2108      	movs	r1, #8
 8001558:	4803      	ldr	r0, [pc, #12]	; (8001568 <HAL_GPIO_EXTI_Callback+0x70>)
 800155a:	f001 fb49 	bl	8002bf0 <HAL_GPIO_ReadPin>
 800155e:	2800      	cmp	r0, #0
 8001560:	d0ee      	beq.n	8001540 <HAL_GPIO_EXTI_Callback+0x48>
 8001562:	e7ea      	b.n	800153a <HAL_GPIO_EXTI_Callback+0x42>
 8001564:	2000043c 	.word	0x2000043c
 8001568:	40020400 	.word	0x40020400
 800156c:	20000222 	.word	0x20000222
 8001570:	200002e0 	.word	0x200002e0
 8001574:	20000588 	.word	0x20000588

08001578 <HAL_ADC_ConvCpltCallback>:
 8001578:	4b17      	ldr	r3, [pc, #92]	; (80015d8 <HAL_ADC_ConvCpltCallback+0x60>)
 800157a:	681a      	ldr	r2, [r3, #0]
 800157c:	f240 53dc 	movw	r3, #1500	; 0x5dc
 8001580:	429a      	cmp	r2, r3
 8001582:	b510      	push	{r4, lr}
 8001584:	dd18      	ble.n	80015b8 <HAL_ADC_ConvCpltCallback+0x40>
 8001586:	4b15      	ldr	r3, [pc, #84]	; (80015dc <HAL_ADC_ConvCpltCallback+0x64>)
 8001588:	785b      	ldrb	r3, [r3, #1]
 800158a:	b1b3      	cbz	r3, 80015ba <HAL_ADC_ConvCpltCallback+0x42>
 800158c:	4c14      	ldr	r4, [pc, #80]	; (80015e0 <HAL_ADC_ConvCpltCallback+0x68>)
 800158e:	7822      	ldrb	r2, [r4, #0]
 8001590:	b99a      	cbnz	r2, 80015ba <HAL_ADC_ConvCpltCallback+0x42>
 8001592:	f000 f9bd 	bl	8001910 <MX_TIM5_Init>
 8001596:	4b13      	ldr	r3, [pc, #76]	; (80015e4 <HAL_ADC_ConvCpltCallback+0x6c>)
 8001598:	68d9      	ldr	r1, [r3, #12]
 800159a:	b139      	cbz	r1, 80015ac <HAL_ADC_ConvCpltCallback+0x34>
 800159c:	4a12      	ldr	r2, [pc, #72]	; (80015e8 <HAL_ADC_ConvCpltCallback+0x70>)
 800159e:	f44f 737a 	mov.w	r3, #1000	; 0x3e8
 80015a2:	6810      	ldr	r0, [r2, #0]
 80015a4:	434b      	muls	r3, r1
 80015a6:	3b01      	subs	r3, #1
 80015a8:	62c3      	str	r3, [r0, #44]	; 0x2c
 80015aa:	60d3      	str	r3, [r2, #12]
 80015ac:	480e      	ldr	r0, [pc, #56]	; (80015e8 <HAL_ADC_ConvCpltCallback+0x70>)
 80015ae:	f003 f86f 	bl	8004690 <HAL_TIM_Base_Start_IT>
 80015b2:	2301      	movs	r3, #1
 80015b4:	7023      	strb	r3, [r4, #0]
 80015b6:	bd10      	pop	{r4, pc}
 80015b8:	d103      	bne.n	80015c2 <HAL_ADC_ConvCpltCallback+0x4a>
 80015ba:	4b08      	ldr	r3, [pc, #32]	; (80015dc <HAL_ADC_ConvCpltCallback+0x64>)
 80015bc:	785b      	ldrb	r3, [r3, #1]
 80015be:	2b00      	cmp	r3, #0
 80015c0:	d1f9      	bne.n	80015b6 <HAL_ADC_ConvCpltCallback+0x3e>
 80015c2:	4b07      	ldr	r3, [pc, #28]	; (80015e0 <HAL_ADC_ConvCpltCallback+0x68>)
 80015c4:	781a      	ldrb	r2, [r3, #0]
 80015c6:	2a00      	cmp	r2, #0
 80015c8:	d0f5      	beq.n	80015b6 <HAL_ADC_ConvCpltCallback+0x3e>
 80015ca:	2200      	movs	r2, #0
 80015cc:	4806      	ldr	r0, [pc, #24]	; (80015e8 <HAL_ADC_ConvCpltCallback+0x70>)
 80015ce:	701a      	strb	r2, [r3, #0]
 80015d0:	e8bd 4010 	ldmia.w	sp!, {r4, lr}
 80015d4:	f003 b86c 	b.w	80046b0 <HAL_TIM_Base_Stop_IT>
 80015d8:	20000444 	.word	0x20000444
 80015dc:	2000043c 	.word	0x2000043c
 80015e0:	20000221 	.word	0x20000221
 80015e4:	200002e0 	.word	0x200002e0
 80015e8:	200004c8 	.word	0x200004c8

080015ec <ring_alarm>:
 80015ec:	b510      	push	{r4, lr}
 80015ee:	4604      	mov	r4, r0
 80015f0:	f000 faf0 	bl	8001bd4 <MX_TIM3_Init>
 80015f4:	f000 f952 	bl	800189c <MX_TIM4_Init>
 80015f8:	2c01      	cmp	r4, #1
 80015fa:	d023      	beq.n	8001644 <ring_alarm+0x58>
 80015fc:	d308      	bcc.n	8001610 <ring_alarm+0x24>
 80015fe:	2c02      	cmp	r4, #2
 8001600:	d125      	bne.n	800164e <ring_alarm+0x62>
 8001602:	4813      	ldr	r0, [pc, #76]	; (8001650 <ring_alarm+0x64>)
 8001604:	6802      	ldr	r2, [r0, #0]
 8001606:	f640 33b7 	movw	r3, #2999	; 0xbb7
 800160a:	6293      	str	r3, [r2, #40]	; 0x28
 800160c:	2363      	movs	r3, #99	; 0x63
 800160e:	e005      	b.n	800161c <ring_alarm+0x30>
 8001610:	480f      	ldr	r0, [pc, #60]	; (8001650 <ring_alarm+0x64>)
 8001612:	6802      	ldr	r2, [r0, #0]
 8001614:	230a      	movs	r3, #10
 8001616:	6293      	str	r3, [r2, #40]	; 0x28
 8001618:	f240 33e7 	movw	r3, #999	; 0x3e7
 800161c:	62d3      	str	r3, [r2, #44]	; 0x2c
 800161e:	60c3      	str	r3, [r0, #12]
 8001620:	4b0c      	ldr	r3, [pc, #48]	; (8001654 <ring_alarm+0x68>)
 8001622:	4c0d      	ldr	r4, [pc, #52]	; (8001658 <ring_alarm+0x6c>)
 8001624:	6919      	ldr	r1, [r3, #16]
 8001626:	6822      	ldr	r2, [r4, #0]
 8001628:	f44f 737a 	mov.w	r3, #1000	; 0x3e8
 800162c:	434b      	muls	r3, r1
 800162e:	3b01      	subs	r3, #1
 8001630:	62d3      	str	r3, [r2, #44]	; 0x2c
 8001632:	2100      	movs	r1, #0
 8001634:	60e3      	str	r3, [r4, #12]
 8001636:	f003 fb01 	bl	8004c3c <HAL_TIM_PWM_Start_IT>
 800163a:	4620      	mov	r0, r4
 800163c:	e8bd 4010 	ldmia.w	sp!, {r4, lr}
 8001640:	f003 b826 	b.w	8004690 <HAL_TIM_Base_Start_IT>
 8001644:	4802      	ldr	r0, [pc, #8]	; (8001650 <ring_alarm+0x64>)
 8001646:	f240 13f3 	movw	r3, #499	; 0x1f3
 800164a:	6802      	ldr	r2, [r0, #0]
 800164c:	e7dd      	b.n	800160a <ring_alarm+0x1e>
 800164e:	bd10      	pop	{r4, pc}
 8001650:	20000508 	.word	0x20000508
 8001654:	200002e0 	.word	0x200002e0
 8001658:	20000448 	.word	0x20000448

0800165c <check_alarms>:
 800165c:	4b05      	ldr	r3, [pc, #20]	; (8001674 <check_alarms+0x18>)
 800165e:	7918      	ldrb	r0, [r3, #4]
 8001660:	78db      	ldrb	r3, [r3, #3]
 8001662:	b11b      	cbz	r3, 800166c <check_alarms+0x10>
 8001664:	b100      	cbz	r0, 8001668 <check_alarms+0xc>
 8001666:	2002      	movs	r0, #2
 8001668:	f7ff bfc0 	b.w	80015ec <ring_alarm>
 800166c:	b108      	cbz	r0, 8001672 <check_alarms+0x16>
 800166e:	2001      	movs	r0, #1
 8001670:	e7fa      	b.n	8001668 <check_alarms+0xc>
 8001672:	4770      	bx	lr
 8001674:	2000043c 	.word	0x2000043c

08001678 <HAL_MspInit>:
 8001678:	b082      	sub	sp, #8
 800167a:	4b0c      	ldr	r3, [pc, #48]	; (80016ac <HAL_MspInit+0x34>)
 800167c:	2100      	movs	r1, #0
 800167e:	9100      	str	r1, [sp, #0]
 8001680:	6c5a      	ldr	r2, [r3, #68]	; 0x44
 8001682:	f442 4280 	orr.w	r2, r2, #16384	; 0x4000
 8001686:	645a      	str	r2, [r3, #68]	; 0x44
 8001688:	6c5a      	ldr	r2, [r3, #68]	; 0x44
 800168a:	f402 4280 	and.w	r2, r2, #16384	; 0x4000
 800168e:	9200      	str	r2, [sp, #0]
 8001690:	9a00      	ldr	r2, [sp, #0]
 8001692:	9101      	str	r1, [sp, #4]
 8001694:	6c1a      	ldr	r2, [r3, #64]	; 0x40
 8001696:	f042 5280 	orr.w	r2, r2, #268435456	; 0x10000000
 800169a:	641a      	str	r2, [r3, #64]	; 0x40
 800169c:	6c1b      	ldr	r3, [r3, #64]	; 0x40
 800169e:	f003 5380 	and.w	r3, r3, #268435456	; 0x10000000
 80016a2:	9301      	str	r3, [sp, #4]
 80016a4:	9b01      	ldr	r3, [sp, #4]
 80016a6:	b002      	add	sp, #8
 80016a8:	4770      	bx	lr
 80016aa:	bf00      	nop
 80016ac:	40023800 	.word	0x40023800

080016b0 <NMI_Handler>:
 80016b0:	4770      	bx	lr

080016b2 <HardFault_Handler>:
 80016b2:	e7fe      	b.n	80016b2 <HardFault_Handler>

080016b4 <MemManage_Handler>:
 80016b4:	e7fe      	b.n	80016b4 <MemManage_Handler>

080016b6 <BusFault_Handler>:
 80016b6:	e7fe      	b.n	80016b6 <BusFault_Handler>

080016b8 <UsageFault_Handler>:
 80016b8:	e7fe      	b.n	80016b8 <UsageFault_Handler>

080016ba <SVC_Handler>:
 80016ba:	4770      	bx	lr

080016bc <DebugMon_Handler>:
 80016bc:	4770      	bx	lr

080016be <PendSV_Handler>:
 80016be:	4770      	bx	lr

080016c0 <SysTick_Handler>:
 80016c0:	f000 bc8e 	b.w	8001fe0 <HAL_IncTick>

080016c4 <EXTI3_IRQHandler>:
 80016c4:	2008      	movs	r0, #8
 80016c6:	f001 baa5 	b.w	8002c14 <HAL_GPIO_EXTI_IRQHandler>
	...

080016cc <DMA1_Stream0_IRQHandler>:
 80016cc:	4801      	ldr	r0, [pc, #4]	; (80016d4 <DMA1_Stream0_IRQHandler+0x8>)
 80016ce:	f001 b8fd 	b.w	80028cc <HAL_DMA_IRQHandler>
 80016d2:	bf00      	nop
 80016d4:	200003d8 	.word	0x200003d8

080016d8 <DMA1_Stream6_IRQHandler>:
 80016d8:	4801      	ldr	r0, [pc, #4]	; (80016e0 <DMA1_Stream6_IRQHandler+0x8>)
 80016da:	f001 b8f7 	b.w	80028cc <HAL_DMA_IRQHandler>
 80016de:	bf00      	nop
 80016e0:	200005c8 	.word	0x200005c8

080016e4 <ADC_IRQHandler>:
 80016e4:	4801      	ldr	r0, [pc, #4]	; (80016ec <ADC_IRQHandler+0x8>)
 80016e6:	f000 bdfc 	b.w	80022e2 <HAL_ADC_IRQHandler>
 80016ea:	bf00      	nop
 80016ec:	20000238 	.word	0x20000238

080016f0 <TIM1_BRK_TIM9_IRQHandler>:
 80016f0:	4801      	ldr	r0, [pc, #4]	; (80016f8 <TIM1_BRK_TIM9_IRQHandler+0x8>)
 80016f2:	f003 b80f 	b.w	8004714 <HAL_TIM_IRQHandler>
 80016f6:	bf00      	nop
 80016f8:	20000588 	.word	0x20000588

080016fc <TIM1_UP_TIM10_IRQHandler>:
 80016fc:	4801      	ldr	r0, [pc, #4]	; (8001704 <TIM1_UP_TIM10_IRQHandler+0x8>)
 80016fe:	f003 b809 	b.w	8004714 <HAL_TIM_IRQHandler>
 8001702:	bf00      	nop
 8001704:	20000488 	.word	0x20000488

08001708 <TIM1_TRG_COM_TIM11_IRQHandler>:
 8001708:	4801      	ldr	r0, [pc, #4]	; (8001710 <TIM1_TRG_COM_TIM11_IRQHandler+0x8>)
 800170a:	f003 b803 	b.w	8004714 <HAL_TIM_IRQHandler>
 800170e:	bf00      	nop
 8001710:	20000548 	.word	0x20000548

08001714 <TIM3_IRQHandler>:
 8001714:	4801      	ldr	r0, [pc, #4]	; (800171c <TIM3_IRQHandler+0x8>)
 8001716:	f002 bffd 	b.w	8004714 <HAL_TIM_IRQHandler>
 800171a:	bf00      	nop
 800171c:	20000508 	.word	0x20000508

08001720 <TIM4_IRQHandler>:
 8001720:	4801      	ldr	r0, [pc, #4]	; (8001728 <TIM4_IRQHandler+0x8>)
 8001722:	f002 bff7 	b.w	8004714 <HAL_TIM_IRQHandler>
 8001726:	bf00      	nop
 8001728:	20000448 	.word	0x20000448

0800172c <I2C1_EV_IRQHandler>:
 800172c:	4801      	ldr	r0, [pc, #4]	; (8001734 <I2C1_EV_IRQHandler+0x8>)
 800172e:	f002 b8a3 	b.w	8003878 <HAL_I2C_EV_IRQHandler>
 8001732:	bf00      	nop
 8001734:	20000384 	.word	0x20000384

08001738 <USART2_IRQHandler>:
 8001738:	4801      	ldr	r0, [pc, #4]	; (8001740 <USART2_IRQHandler+0x8>)
 800173a:	f003 bc93 	b.w	8005064 <HAL_UART_IRQHandler>
 800173e:	bf00      	nop
 8001740:	20000628 	.word	0x20000628

08001744 <TIM5_IRQHandler>:
 8001744:	4801      	ldr	r0, [pc, #4]	; (800174c <TIM5_IRQHandler+0x8>)
 8001746:	f002 bfe5 	b.w	8004714 <HAL_TIM_IRQHandler>
 800174a:	bf00      	nop
 800174c:	200004c8 	.word	0x200004c8

08001750 <DMA2_Stream0_IRQHandler>:
 8001750:	4801      	ldr	r0, [pc, #4]	; (8001758 <DMA2_Stream0_IRQHandler+0x8>)
 8001752:	f001 b8bb 	b.w	80028cc <HAL_DMA_IRQHandler>
 8001756:	bf00      	nop
 8001758:	20000280 	.word	0x20000280

0800175c <_sbrk>:
 800175c:	b508      	push	{r3, lr}
 800175e:	4b0a      	ldr	r3, [pc, #40]	; (8001788 <_sbrk+0x2c>)
 8001760:	6819      	ldr	r1, [r3, #0]
 8001762:	4602      	mov	r2, r0
 8001764:	b909      	cbnz	r1, 800176a <_sbrk+0xe>
 8001766:	4909      	ldr	r1, [pc, #36]	; (800178c <_sbrk+0x30>)
 8001768:	6019      	str	r1, [r3, #0]
 800176a:	6818      	ldr	r0, [r3, #0]
 800176c:	4669      	mov	r1, sp
 800176e:	4402      	add	r2, r0
 8001770:	428a      	cmp	r2, r1
 8001772:	d906      	bls.n	8001782 <_sbrk+0x26>
 8001774:	f003 fd5c 	bl	8005230 <__errno>
 8001778:	230c      	movs	r3, #12
 800177a:	6003      	str	r3, [r0, #0]
 800177c:	f04f 30ff 	mov.w	r0, #4294967295
 8001780:	bd08      	pop	{r3, pc}
 8001782:	601a      	str	r2, [r3, #0]
 8001784:	e7fc      	b.n	8001780 <_sbrk+0x24>
 8001786:	bf00      	nop
 8001788:	20000224 	.word	0x20000224
 800178c:	20000670 	.word	0x20000670

08001790 <get_time>:
 8001790:	b51f      	push	{r0, r1, r2, r3, r4, lr}
 8001792:	490b      	ldr	r1, [pc, #44]	; (80017c0 <get_time+0x30>)
 8001794:	4c0b      	ldr	r4, [pc, #44]	; (80017c4 <get_time+0x34>)
 8001796:	7808      	ldrb	r0, [r1, #0]
 8001798:	794b      	ldrb	r3, [r1, #5]
 800179a:	790a      	ldrb	r2, [r1, #4]
 800179c:	9003      	str	r0, [sp, #12]
 800179e:	7848      	ldrb	r0, [r1, #1]
 80017a0:	9002      	str	r0, [sp, #8]
 80017a2:	7888      	ldrb	r0, [r1, #2]
 80017a4:	9001      	str	r0, [sp, #4]
 80017a6:	88c9      	ldrh	r1, [r1, #6]
 80017a8:	f501 61fa 	add.w	r1, r1, #2000	; 0x7d0
 80017ac:	b289      	uxth	r1, r1
 80017ae:	9100      	str	r1, [sp, #0]
 80017b0:	4620      	mov	r0, r4
 80017b2:	4905      	ldr	r1, [pc, #20]	; (80017c8 <get_time+0x38>)
 80017b4:	f003 fe52 	bl	800545c <siprintf>
 80017b8:	4620      	mov	r0, r4
 80017ba:	b004      	add	sp, #16
 80017bc:	bd10      	pop	{r4, pc}
 80017be:	bf00      	nop
 80017c0:	2000037a 	.word	0x2000037a
 80017c4:	200002f8 	.word	0x200002f8
 80017c8:	08006053 	.word	0x08006053

080017cc <period_log>:
 80017cc:	b500      	push	{lr}
 80017ce:	4b20      	ldr	r3, [pc, #128]	; (8001850 <period_log+0x84>)
 80017d0:	781a      	ldrb	r2, [r3, #0]
 80017d2:	7859      	ldrb	r1, [r3, #1]
 80017d4:	b0cd      	sub	sp, #308	; 0x134
 80017d6:	2a00      	cmp	r2, #0
 80017d8:	d032      	beq.n	8001840 <period_log+0x74>
 80017da:	78da      	ldrb	r2, [r3, #3]
 80017dc:	2900      	cmp	r1, #0
 80017de:	d033      	beq.n	8001848 <period_log+0x7c>
 80017e0:	791b      	ldrb	r3, [r3, #4]
 80017e2:	b1f2      	cbz	r2, 8001822 <period_log+0x56>
 80017e4:	b303      	cbz	r3, 8001828 <period_log+0x5c>
 80017e6:	491b      	ldr	r1, [pc, #108]	; (8001854 <period_log+0x88>)
 80017e8:	a801      	add	r0, sp, #4
 80017ea:	f003 fe66 	bl	80054ba <strcpy>
 80017ee:	f7ff ffcf 	bl	8001790 <get_time>
 80017f2:	4601      	mov	r1, r0
 80017f4:	a833      	add	r0, sp, #204	; 0xcc
 80017f6:	f003 fe60 	bl	80054ba <strcpy>
 80017fa:	a901      	add	r1, sp, #4
 80017fc:	a833      	add	r0, sp, #204	; 0xcc
 80017fe:	f003 fe4d 	bl	800549c <strcat>
 8001802:	4915      	ldr	r1, [pc, #84]	; (8001858 <period_log+0x8c>)
 8001804:	4602      	mov	r2, r0
 8001806:	a81a      	add	r0, sp, #104	; 0x68
 8001808:	f003 fe28 	bl	800545c <siprintf>
 800180c:	a81a      	add	r0, sp, #104	; 0x68
 800180e:	f7fe fcf1 	bl	80001f4 <strlen>
 8001812:	a91a      	add	r1, sp, #104	; 0x68
 8001814:	b282      	uxth	r2, r0
 8001816:	4811      	ldr	r0, [pc, #68]	; (800185c <period_log+0x90>)
 8001818:	f003 fb6a 	bl	8004ef0 <HAL_UART_Transmit_DMA>
 800181c:	b04d      	add	sp, #308	; 0x134
 800181e:	f85d fb04 	ldr.w	pc, [sp], #4
 8001822:	b11b      	cbz	r3, 800182c <period_log+0x60>
 8001824:	490e      	ldr	r1, [pc, #56]	; (8001860 <period_log+0x94>)
 8001826:	e7df      	b.n	80017e8 <period_log+0x1c>
 8001828:	490e      	ldr	r1, [pc, #56]	; (8001864 <period_log+0x98>)
 800182a:	e7dd      	b.n	80017e8 <period_log+0x1c>
 800182c:	490e      	ldr	r1, [pc, #56]	; (8001868 <period_log+0x9c>)
 800182e:	e7db      	b.n	80017e8 <period_log+0x1c>
 8001830:	490e      	ldr	r1, [pc, #56]	; (800186c <period_log+0xa0>)
 8001832:	e7d9      	b.n	80017e8 <period_log+0x1c>
 8001834:	791b      	ldrb	r3, [r3, #4]
 8001836:	b10b      	cbz	r3, 800183c <period_log+0x70>
 8001838:	490d      	ldr	r1, [pc, #52]	; (8001870 <period_log+0xa4>)
 800183a:	e7d5      	b.n	80017e8 <period_log+0x1c>
 800183c:	490d      	ldr	r1, [pc, #52]	; (8001874 <period_log+0xa8>)
 800183e:	e7d3      	b.n	80017e8 <period_log+0x1c>
 8001840:	2900      	cmp	r1, #0
 8001842:	d1f7      	bne.n	8001834 <period_log+0x68>
 8001844:	490c      	ldr	r1, [pc, #48]	; (8001878 <period_log+0xac>)
 8001846:	e7cf      	b.n	80017e8 <period_log+0x1c>
 8001848:	2a00      	cmp	r2, #0
 800184a:	d1f1      	bne.n	8001830 <period_log+0x64>
 800184c:	490b      	ldr	r1, [pc, #44]	; (800187c <period_log+0xb0>)
 800184e:	e7cb      	b.n	80017e8 <period_log+0x1c>
 8001850:	2000043c 	.word	0x2000043c
 8001854:	0800606d 	.word	0x0800606d
 8001858:	0800617b 	.word	0x0800617b
 800185c:	20000628 	.word	0x20000628
 8001860:	0800608f 	.word	0x0800608f
 8001864:	080060b0 	.word	0x080060b0
 8001868:	080060d1 	.word	0x080060d1
 800186c:	080060f1 	.word	0x080060f1
 8001870:	08006136 	.word	0x08006136
 8001874:	08006159 	.word	0x08006159
 8001878:	08006180 	.word	0x08006180
 800187c:	08006114 	.word	0x08006114

08001880 <SystemInit>:
 8001880:	4b05      	ldr	r3, [pc, #20]	; (8001898 <SystemInit+0x18>)
 8001882:	f8d3 2088 	ldr.w	r2, [r3, #136]	; 0x88
 8001886:	f442 0270 	orr.w	r2, r2, #15728640	; 0xf00000
 800188a:	f8c3 2088 	str.w	r2, [r3, #136]	; 0x88
 800188e:	f04f 6200 	mov.w	r2, #134217728	; 0x8000000
 8001892:	609a      	str	r2, [r3, #8]
 8001894:	4770      	bx	lr
 8001896:	bf00      	nop
 8001898:	e000ed00 	.word	0xe000ed00

0800189c <MX_TIM4_Init>:
 800189c:	b510      	push	{r4, lr}
 800189e:	b086      	sub	sp, #24
 80018a0:	2210      	movs	r2, #16
 80018a2:	2100      	movs	r1, #0
 80018a4:	a802      	add	r0, sp, #8
 80018a6:	f003 fd19 	bl	80052dc <memset>
 80018aa:	4c17      	ldr	r4, [pc, #92]	; (8001908 <MX_TIM4_Init+0x6c>)
 80018ac:	4917      	ldr	r1, [pc, #92]	; (800190c <MX_TIM4_Init+0x70>)
 80018ae:	f24a 420f 	movw	r2, #41999	; 0xa40f
 80018b2:	2300      	movs	r3, #0
 80018b4:	e9c4 1200 	strd	r1, r2, [r4]
 80018b8:	4620      	mov	r0, r4
 80018ba:	f240 12f3 	movw	r2, #499	; 0x1f3
 80018be:	e9cd 3300 	strd	r3, r3, [sp]
 80018c2:	60a3      	str	r3, [r4, #8]
 80018c4:	e9c4 2303 	strd	r2, r3, [r4, #12]
 80018c8:	61a3      	str	r3, [r4, #24]
 80018ca:	f003 f813 	bl	80048f4 <HAL_TIM_Base_Init>
 80018ce:	b108      	cbz	r0, 80018d4 <MX_TIM4_Init+0x38>
 80018d0:	f7ff fd02 	bl	80012d8 <Error_Handler>
 80018d4:	f44f 5380 	mov.w	r3, #4096	; 0x1000
 80018d8:	a902      	add	r1, sp, #8
 80018da:	480b      	ldr	r0, [pc, #44]	; (8001908 <MX_TIM4_Init+0x6c>)
 80018dc:	9302      	str	r3, [sp, #8]
 80018de:	f003 f8d5 	bl	8004a8c <HAL_TIM_ConfigClockSource>
 80018e2:	b108      	cbz	r0, 80018e8 <MX_TIM4_Init+0x4c>
 80018e4:	f7ff fcf8 	bl	80012d8 <Error_Handler>
 80018e8:	2300      	movs	r3, #0
 80018ea:	4669      	mov	r1, sp
 80018ec:	4806      	ldr	r0, [pc, #24]	; (8001908 <MX_TIM4_Init+0x6c>)
 80018ee:	e9cd 3300 	strd	r3, r3, [sp]
 80018f2:	f003 f9ed 	bl	8004cd0 <HAL_TIMEx_MasterConfigSynchronization>
 80018f6:	b108      	cbz	r0, 80018fc <MX_TIM4_Init+0x60>
 80018f8:	f7ff fcee 	bl	80012d8 <Error_Handler>
 80018fc:	6823      	ldr	r3, [r4, #0]
 80018fe:	f06f 0201 	mvn.w	r2, #1
 8001902:	611a      	str	r2, [r3, #16]
 8001904:	b006      	add	sp, #24
 8001906:	bd10      	pop	{r4, pc}
 8001908:	20000448 	.word	0x20000448
 800190c:	40000800 	.word	0x40000800

08001910 <MX_TIM5_Init>:
 8001910:	b510      	push	{r4, lr}
 8001912:	b086      	sub	sp, #24
 8001914:	2210      	movs	r2, #16
 8001916:	2100      	movs	r1, #0
 8001918:	a802      	add	r0, sp, #8
 800191a:	f003 fcdf 	bl	80052dc <memset>
 800191e:	4c17      	ldr	r4, [pc, #92]	; (800197c <MX_TIM5_Init+0x6c>)
 8001920:	4917      	ldr	r1, [pc, #92]	; (8001980 <MX_TIM5_Init+0x70>)
 8001922:	f24a 420f 	movw	r2, #41999	; 0xa40f
 8001926:	2300      	movs	r3, #0
 8001928:	e9c4 1200 	strd	r1, r2, [r4]
 800192c:	4620      	mov	r0, r4
 800192e:	f240 32e7 	movw	r2, #999	; 0x3e7
 8001932:	e9cd 3300 	strd	r3, r3, [sp]
 8001936:	60a3      	str	r3, [r4, #8]
 8001938:	e9c4 2303 	strd	r2, r3, [r4, #12]
 800193c:	61a3      	str	r3, [r4, #24]
 800193e:	f002 ffd9 	bl	80048f4 <HAL_TIM_Base_Init>
 8001942:	b108      	cbz	r0, 8001948 <MX_TIM5_Init+0x38>
 8001944:	f7ff fcc8 	bl	80012d8 <Error_Handler>
 8001948:	f44f 5380 	mov.w	r3, #4096	; 0x1000
 800194c:	a902      	add	r1, sp, #8
 800194e:	480b      	ldr	r0, [pc, #44]	; (800197c <MX_TIM5_Init+0x6c>)
 8001950:	9302      	str	r3, [sp, #8]
 8001952:	f003 f89b 	bl	8004a8c <HAL_TIM_ConfigClockSource>
 8001956:	b108      	cbz	r0, 800195c <MX_TIM5_Init+0x4c>
 8001958:	f7ff fcbe 	bl	80012d8 <Error_Handler>
 800195c:	2300      	movs	r3, #0
 800195e:	4669      	mov	r1, sp
 8001960:	4806      	ldr	r0, [pc, #24]	; (800197c <MX_TIM5_Init+0x6c>)
 8001962:	e9cd 3300 	strd	r3, r3, [sp]
 8001966:	f003 f9b3 	bl	8004cd0 <HAL_TIMEx_MasterConfigSynchronization>
 800196a:	b108      	cbz	r0, 8001970 <MX_TIM5_Init+0x60>
 800196c:	f7ff fcb4 	bl	80012d8 <Error_Handler>
 8001970:	6823      	ldr	r3, [r4, #0]
 8001972:	f06f 0201 	mvn.w	r2, #1
 8001976:	611a      	str	r2, [r3, #16]
 8001978:	b006      	add	sp, #24
 800197a:	bd10      	pop	{r4, pc}
 800197c:	200004c8 	.word	0x200004c8
 8001980:	40000c00 	.word	0x40000c00

08001984 <MX_TIM9_Init>:
 8001984:	b51f      	push	{r0, r1, r2, r3, r4, lr}
 8001986:	2210      	movs	r2, #16
 8001988:	2100      	movs	r1, #0
 800198a:	4668      	mov	r0, sp
 800198c:	f003 fca6 	bl	80052dc <memset>
 8001990:	4c11      	ldr	r4, [pc, #68]	; (80019d8 <MX_TIM9_Init+0x54>)
 8001992:	4a12      	ldr	r2, [pc, #72]	; (80019dc <MX_TIM9_Init+0x58>)
 8001994:	f24a 430f 	movw	r3, #41999	; 0xa40f
 8001998:	e9c4 2300 	strd	r2, r3, [r4]
 800199c:	4620      	mov	r0, r4
 800199e:	2300      	movs	r3, #0
 80019a0:	f240 32e7 	movw	r2, #999	; 0x3e7
 80019a4:	e9c4 3202 	strd	r3, r2, [r4, #8]
 80019a8:	6123      	str	r3, [r4, #16]
 80019aa:	61a3      	str	r3, [r4, #24]
 80019ac:	f002 ffa2 	bl	80048f4 <HAL_TIM_Base_Init>
 80019b0:	b108      	cbz	r0, 80019b6 <MX_TIM9_Init+0x32>
 80019b2:	f7ff fc91 	bl	80012d8 <Error_Handler>
 80019b6:	f44f 5380 	mov.w	r3, #4096	; 0x1000
 80019ba:	4669      	mov	r1, sp
 80019bc:	4806      	ldr	r0, [pc, #24]	; (80019d8 <MX_TIM9_Init+0x54>)
 80019be:	9300      	str	r3, [sp, #0]
 80019c0:	f003 f864 	bl	8004a8c <HAL_TIM_ConfigClockSource>
 80019c4:	b108      	cbz	r0, 80019ca <MX_TIM9_Init+0x46>
 80019c6:	f7ff fc87 	bl	80012d8 <Error_Handler>
 80019ca:	6823      	ldr	r3, [r4, #0]
 80019cc:	f06f 0201 	mvn.w	r2, #1
 80019d0:	611a      	str	r2, [r3, #16]
 80019d2:	b004      	add	sp, #16
 80019d4:	bd10      	pop	{r4, pc}
 80019d6:	bf00      	nop
 80019d8:	20000588 	.word	0x20000588
 80019dc:	40014000 	.word	0x40014000

080019e0 <MX_TIM10_Init>:
 80019e0:	b510      	push	{r4, lr}
 80019e2:	4a0c      	ldr	r2, [pc, #48]	; (8001a14 <MX_TIM10_Init+0x34>)
 80019e4:	4c0c      	ldr	r4, [pc, #48]	; (8001a18 <MX_TIM10_Init+0x38>)
 80019e6:	f24a 430f 	movw	r3, #41999	; 0xa40f
 80019ea:	e9c4 2300 	strd	r2, r3, [r4]
 80019ee:	4620      	mov	r0, r4
 80019f0:	2300      	movs	r3, #0
 80019f2:	f247 522f 	movw	r2, #29999	; 0x752f
 80019f6:	e9c4 3202 	strd	r3, r2, [r4, #8]
 80019fa:	6123      	str	r3, [r4, #16]
 80019fc:	61a3      	str	r3, [r4, #24]
 80019fe:	f002 ff79 	bl	80048f4 <HAL_TIM_Base_Init>
 8001a02:	b108      	cbz	r0, 8001a08 <MX_TIM10_Init+0x28>
 8001a04:	f7ff fc68 	bl	80012d8 <Error_Handler>
 8001a08:	6823      	ldr	r3, [r4, #0]
 8001a0a:	f06f 0201 	mvn.w	r2, #1
 8001a0e:	611a      	str	r2, [r3, #16]
 8001a10:	bd10      	pop	{r4, pc}
 8001a12:	bf00      	nop
 8001a14:	40014400 	.word	0x40014400
 8001a18:	20000488 	.word	0x20000488

08001a1c <MX_TIM11_Init>:
 8001a1c:	b510      	push	{r4, lr}
 8001a1e:	4a0b      	ldr	r2, [pc, #44]	; (8001a4c <MX_TIM11_Init+0x30>)
 8001a20:	4c0b      	ldr	r4, [pc, #44]	; (8001a50 <MX_TIM11_Init+0x34>)
 8001a22:	f24a 430f 	movw	r3, #41999	; 0xa40f
 8001a26:	e9c4 2300 	strd	r2, r3, [r4]
 8001a2a:	4620      	mov	r0, r4
 8001a2c:	2300      	movs	r3, #0
 8001a2e:	22f9      	movs	r2, #249	; 0xf9
 8001a30:	e9c4 3202 	strd	r3, r2, [r4, #8]
 8001a34:	6123      	str	r3, [r4, #16]
 8001a36:	61a3      	str	r3, [r4, #24]
 8001a38:	f002 ff5c 	bl	80048f4 <HAL_TIM_Base_Init>
 8001a3c:	b108      	cbz	r0, 8001a42 <MX_TIM11_Init+0x26>
 8001a3e:	f7ff fc4b 	bl	80012d8 <Error_Handler>
 8001a42:	6823      	ldr	r3, [r4, #0]
 8001a44:	f06f 0201 	mvn.w	r2, #1
 8001a48:	611a      	str	r2, [r3, #16]
 8001a4a:	bd10      	pop	{r4, pc}
 8001a4c:	40014800 	.word	0x40014800
 8001a50:	20000548 	.word	0x20000548

08001a54 <HAL_TIM_Base_MspInit>:
 8001a54:	b57f      	push	{r0, r1, r2, r3, r4, r5, r6, lr}
 8001a56:	6803      	ldr	r3, [r0, #0]
 8001a58:	4a42      	ldr	r2, [pc, #264]	; (8001b64 <HAL_TIM_Base_MspInit+0x110>)
 8001a5a:	4293      	cmp	r3, r2
 8001a5c:	d115      	bne.n	8001a8a <HAL_TIM_Base_MspInit+0x36>
 8001a5e:	2200      	movs	r2, #0
 8001a60:	4b41      	ldr	r3, [pc, #260]	; (8001b68 <HAL_TIM_Base_MspInit+0x114>)
 8001a62:	9200      	str	r2, [sp, #0]
 8001a64:	6c19      	ldr	r1, [r3, #64]	; 0x40
 8001a66:	f041 0102 	orr.w	r1, r1, #2
 8001a6a:	6419      	str	r1, [r3, #64]	; 0x40
 8001a6c:	6c1b      	ldr	r3, [r3, #64]	; 0x40
 8001a6e:	f003 0302 	and.w	r3, r3, #2
 8001a72:	9300      	str	r3, [sp, #0]
 8001a74:	201d      	movs	r0, #29
 8001a76:	4611      	mov	r1, r2
 8001a78:	9b00      	ldr	r3, [sp, #0]
 8001a7a:	f000 fdab 	bl	80025d4 <HAL_NVIC_SetPriority>
 8001a7e:	201d      	movs	r0, #29
 8001a80:	b007      	add	sp, #28
 8001a82:	f85d eb04 	ldr.w	lr, [sp], #4
 8001a86:	f000 bdd9 	b.w	800263c <HAL_NVIC_EnableIRQ>
 8001a8a:	4a38      	ldr	r2, [pc, #224]	; (8001b6c <HAL_TIM_Base_MspInit+0x118>)
 8001a8c:	4293      	cmp	r3, r2
 8001a8e:	d111      	bne.n	8001ab4 <HAL_TIM_Base_MspInit+0x60>
 8001a90:	2200      	movs	r2, #0
 8001a92:	4b35      	ldr	r3, [pc, #212]	; (8001b68 <HAL_TIM_Base_MspInit+0x114>)
 8001a94:	9201      	str	r2, [sp, #4]
 8001a96:	6c19      	ldr	r1, [r3, #64]	; 0x40
 8001a98:	f041 0104 	orr.w	r1, r1, #4
 8001a9c:	6419      	str	r1, [r3, #64]	; 0x40
 8001a9e:	6c1b      	ldr	r3, [r3, #64]	; 0x40
 8001aa0:	f003 0304 	and.w	r3, r3, #4
 8001aa4:	9301      	str	r3, [sp, #4]
 8001aa6:	201e      	movs	r0, #30
 8001aa8:	4611      	mov	r1, r2
 8001aaa:	9b01      	ldr	r3, [sp, #4]
 8001aac:	f000 fd92 	bl	80025d4 <HAL_NVIC_SetPriority>
 8001ab0:	201e      	movs	r0, #30
 8001ab2:	e7e5      	b.n	8001a80 <HAL_TIM_Base_MspInit+0x2c>
 8001ab4:	4a2e      	ldr	r2, [pc, #184]	; (8001b70 <HAL_TIM_Base_MspInit+0x11c>)
 8001ab6:	4293      	cmp	r3, r2
 8001ab8:	d111      	bne.n	8001ade <HAL_TIM_Base_MspInit+0x8a>
 8001aba:	2200      	movs	r2, #0
 8001abc:	4b2a      	ldr	r3, [pc, #168]	; (8001b68 <HAL_TIM_Base_MspInit+0x114>)
 8001abe:	9202      	str	r2, [sp, #8]
 8001ac0:	6c19      	ldr	r1, [r3, #64]	; 0x40
 8001ac2:	f041 0108 	orr.w	r1, r1, #8
 8001ac6:	6419      	str	r1, [r3, #64]	; 0x40
 8001ac8:	6c1b      	ldr	r3, [r3, #64]	; 0x40
 8001aca:	f003 0308 	and.w	r3, r3, #8
 8001ace:	9302      	str	r3, [sp, #8]
 8001ad0:	2032      	movs	r0, #50	; 0x32
 8001ad2:	4611      	mov	r1, r2
 8001ad4:	9b02      	ldr	r3, [sp, #8]
 8001ad6:	f000 fd7d 	bl	80025d4 <HAL_NVIC_SetPriority>
 8001ada:	2032      	movs	r0, #50	; 0x32
 8001adc:	e7d0      	b.n	8001a80 <HAL_TIM_Base_MspInit+0x2c>
 8001ade:	4a25      	ldr	r2, [pc, #148]	; (8001b74 <HAL_TIM_Base_MspInit+0x120>)
 8001ae0:	4293      	cmp	r3, r2
 8001ae2:	d111      	bne.n	8001b08 <HAL_TIM_Base_MspInit+0xb4>
 8001ae4:	2200      	movs	r2, #0
 8001ae6:	4b20      	ldr	r3, [pc, #128]	; (8001b68 <HAL_TIM_Base_MspInit+0x114>)
 8001ae8:	9203      	str	r2, [sp, #12]
 8001aea:	6c59      	ldr	r1, [r3, #68]	; 0x44
 8001aec:	f441 3180 	orr.w	r1, r1, #65536	; 0x10000
 8001af0:	6459      	str	r1, [r3, #68]	; 0x44
 8001af2:	6c5b      	ldr	r3, [r3, #68]	; 0x44
 8001af4:	f403 3380 	and.w	r3, r3, #65536	; 0x10000
 8001af8:	9303      	str	r3, [sp, #12]
 8001afa:	2018      	movs	r0, #24
 8001afc:	4611      	mov	r1, r2
 8001afe:	9b03      	ldr	r3, [sp, #12]
 8001b00:	f000 fd68 	bl	80025d4 <HAL_NVIC_SetPriority>
 8001b04:	2018      	movs	r0, #24
 8001b06:	e7bb      	b.n	8001a80 <HAL_TIM_Base_MspInit+0x2c>
 8001b08:	4a1b      	ldr	r2, [pc, #108]	; (8001b78 <HAL_TIM_Base_MspInit+0x124>)
 8001b0a:	4293      	cmp	r3, r2
 8001b0c:	d111      	bne.n	8001b32 <HAL_TIM_Base_MspInit+0xde>
 8001b0e:	2200      	movs	r2, #0
 8001b10:	4b15      	ldr	r3, [pc, #84]	; (8001b68 <HAL_TIM_Base_MspInit+0x114>)
 8001b12:	9204      	str	r2, [sp, #16]
 8001b14:	6c59      	ldr	r1, [r3, #68]	; 0x44
 8001b16:	f441 3100 	orr.w	r1, r1, #131072	; 0x20000
 8001b1a:	6459      	str	r1, [r3, #68]	; 0x44
 8001b1c:	6c5b      	ldr	r3, [r3, #68]	; 0x44
 8001b1e:	f403 3300 	and.w	r3, r3, #131072	; 0x20000
 8001b22:	9304      	str	r3, [sp, #16]
 8001b24:	2019      	movs	r0, #25
 8001b26:	4611      	mov	r1, r2
 8001b28:	9b04      	ldr	r3, [sp, #16]
 8001b2a:	f000 fd53 	bl	80025d4 <HAL_NVIC_SetPriority>
 8001b2e:	2019      	movs	r0, #25
 8001b30:	e7a6      	b.n	8001a80 <HAL_TIM_Base_MspInit+0x2c>
 8001b32:	4a12      	ldr	r2, [pc, #72]	; (8001b7c <HAL_TIM_Base_MspInit+0x128>)
 8001b34:	4293      	cmp	r3, r2
 8001b36:	d111      	bne.n	8001b5c <HAL_TIM_Base_MspInit+0x108>
 8001b38:	2200      	movs	r2, #0
 8001b3a:	4b0b      	ldr	r3, [pc, #44]	; (8001b68 <HAL_TIM_Base_MspInit+0x114>)
 8001b3c:	9205      	str	r2, [sp, #20]
 8001b3e:	6c59      	ldr	r1, [r3, #68]	; 0x44
 8001b40:	f441 2180 	orr.w	r1, r1, #262144	; 0x40000
 8001b44:	6459      	str	r1, [r3, #68]	; 0x44
 8001b46:	6c5b      	ldr	r3, [r3, #68]	; 0x44
 8001b48:	f403 2380 	and.w	r3, r3, #262144	; 0x40000
 8001b4c:	9305      	str	r3, [sp, #20]
 8001b4e:	201a      	movs	r0, #26
 8001b50:	4611      	mov	r1, r2
 8001b52:	9b05      	ldr	r3, [sp, #20]
 8001b54:	f000 fd3e 	bl	80025d4 <HAL_NVIC_SetPriority>
 8001b58:	201a      	movs	r0, #26
 8001b5a:	e791      	b.n	8001a80 <HAL_TIM_Base_MspInit+0x2c>
 8001b5c:	b007      	add	sp, #28
 8001b5e:	f85d fb04 	ldr.w	pc, [sp], #4
 8001b62:	bf00      	nop
 8001b64:	40000400 	.word	0x40000400
 8001b68:	40023800 	.word	0x40023800
 8001b6c:	40000800 	.word	0x40000800
 8001b70:	40000c00 	.word	0x40000c00
 8001b74:	40014000 	.word	0x40014000
 8001b78:	40014400 	.word	0x40014400
 8001b7c:	40014800 	.word	0x40014800

08001b80 <HAL_TIM_MspPostInit>:
 8001b80:	b510      	push	{r4, lr}
 8001b82:	4604      	mov	r4, r0
 8001b84:	b086      	sub	sp, #24
 8001b86:	2214      	movs	r2, #20
 8001b88:	2100      	movs	r1, #0
 8001b8a:	a801      	add	r0, sp, #4
 8001b8c:	f003 fba6 	bl	80052dc <memset>
 8001b90:	6822      	ldr	r2, [r4, #0]
 8001b92:	4b0d      	ldr	r3, [pc, #52]	; (8001bc8 <HAL_TIM_MspPostInit+0x48>)
 8001b94:	429a      	cmp	r2, r3
 8001b96:	d114      	bne.n	8001bc2 <HAL_TIM_MspPostInit+0x42>
 8001b98:	2300      	movs	r3, #0
 8001b9a:	9300      	str	r3, [sp, #0]
 8001b9c:	4b0b      	ldr	r3, [pc, #44]	; (8001bcc <HAL_TIM_MspPostInit+0x4c>)
 8001b9e:	480c      	ldr	r0, [pc, #48]	; (8001bd0 <HAL_TIM_MspPostInit+0x50>)
 8001ba0:	6b1a      	ldr	r2, [r3, #48]	; 0x30
 8001ba2:	f042 0201 	orr.w	r2, r2, #1
 8001ba6:	631a      	str	r2, [r3, #48]	; 0x30
 8001ba8:	6b1b      	ldr	r3, [r3, #48]	; 0x30
 8001baa:	f003 0301 	and.w	r3, r3, #1
 8001bae:	9300      	str	r3, [sp, #0]
 8001bb0:	9b00      	ldr	r3, [sp, #0]
 8001bb2:	2240      	movs	r2, #64	; 0x40
 8001bb4:	2302      	movs	r3, #2
 8001bb6:	a901      	add	r1, sp, #4
 8001bb8:	e9cd 2301 	strd	r2, r3, [sp, #4]
 8001bbc:	9305      	str	r3, [sp, #20]
 8001bbe:	f000 ff49 	bl	8002a54 <HAL_GPIO_Init>
 8001bc2:	b006      	add	sp, #24
 8001bc4:	bd10      	pop	{r4, pc}
 8001bc6:	bf00      	nop
 8001bc8:	40000400 	.word	0x40000400
 8001bcc:	40023800 	.word	0x40023800
 8001bd0:	40020000 	.word	0x40020000

08001bd4 <MX_TIM3_Init>:
 8001bd4:	b510      	push	{r4, lr}
 8001bd6:	b08e      	sub	sp, #56	; 0x38
 8001bd8:	2210      	movs	r2, #16
 8001bda:	2100      	movs	r1, #0
 8001bdc:	a803      	add	r0, sp, #12
 8001bde:	f003 fb7d 	bl	80052dc <memset>
 8001be2:	2400      	movs	r4, #0
 8001be4:	221c      	movs	r2, #28
 8001be6:	eb0d 0002 	add.w	r0, sp, r2
 8001bea:	4621      	mov	r1, r4
 8001bec:	e9cd 4401 	strd	r4, r4, [sp, #4]
 8001bf0:	f003 fb74 	bl	80052dc <memset>
 8001bf4:	481c      	ldr	r0, [pc, #112]	; (8001c68 <MX_TIM3_Init+0x94>)
 8001bf6:	4a1d      	ldr	r2, [pc, #116]	; (8001c6c <MX_TIM3_Init+0x98>)
 8001bf8:	6104      	str	r4, [r0, #16]
 8001bfa:	2363      	movs	r3, #99	; 0x63
 8001bfc:	e9c0 2300 	strd	r2, r3, [r0]
 8001c00:	e9c0 4302 	strd	r4, r3, [r0, #8]
 8001c04:	6184      	str	r4, [r0, #24]
 8001c06:	f002 fe75 	bl	80048f4 <HAL_TIM_Base_Init>
 8001c0a:	b108      	cbz	r0, 8001c10 <MX_TIM3_Init+0x3c>
 8001c0c:	f7ff fb64 	bl	80012d8 <Error_Handler>
 8001c10:	f44f 5380 	mov.w	r3, #4096	; 0x1000
 8001c14:	a903      	add	r1, sp, #12
 8001c16:	4814      	ldr	r0, [pc, #80]	; (8001c68 <MX_TIM3_Init+0x94>)
 8001c18:	9303      	str	r3, [sp, #12]
 8001c1a:	f002 ff37 	bl	8004a8c <HAL_TIM_ConfigClockSource>
 8001c1e:	b108      	cbz	r0, 8001c24 <MX_TIM3_Init+0x50>
 8001c20:	f7ff fb5a 	bl	80012d8 <Error_Handler>
 8001c24:	4810      	ldr	r0, [pc, #64]	; (8001c68 <MX_TIM3_Init+0x94>)
 8001c26:	f002 fe7f 	bl	8004928 <HAL_TIM_PWM_Init>
 8001c2a:	b108      	cbz	r0, 8001c30 <MX_TIM3_Init+0x5c>
 8001c2c:	f7ff fb54 	bl	80012d8 <Error_Handler>
 8001c30:	2400      	movs	r4, #0
 8001c32:	a901      	add	r1, sp, #4
 8001c34:	480c      	ldr	r0, [pc, #48]	; (8001c68 <MX_TIM3_Init+0x94>)
 8001c36:	e9cd 4401 	strd	r4, r4, [sp, #4]
 8001c3a:	f003 f849 	bl	8004cd0 <HAL_TIMEx_MasterConfigSynchronization>
 8001c3e:	b108      	cbz	r0, 8001c44 <MX_TIM3_Init+0x70>
 8001c40:	f7ff fb4a 	bl	80012d8 <Error_Handler>
 8001c44:	2360      	movs	r3, #96	; 0x60
 8001c46:	2200      	movs	r2, #0
 8001c48:	a907      	add	r1, sp, #28
 8001c4a:	4807      	ldr	r0, [pc, #28]	; (8001c68 <MX_TIM3_Init+0x94>)
 8001c4c:	9409      	str	r4, [sp, #36]	; 0x24
 8001c4e:	e9cd 3407 	strd	r3, r4, [sp, #28]
 8001c52:	940b      	str	r4, [sp, #44]	; 0x2c
 8001c54:	f002 feae 	bl	80049b4 <HAL_TIM_PWM_ConfigChannel>
 8001c58:	b108      	cbz	r0, 8001c5e <MX_TIM3_Init+0x8a>
 8001c5a:	f7ff fb3d 	bl	80012d8 <Error_Handler>
 8001c5e:	4802      	ldr	r0, [pc, #8]	; (8001c68 <MX_TIM3_Init+0x94>)
 8001c60:	f7ff ff8e 	bl	8001b80 <HAL_TIM_MspPostInit>
 8001c64:	b00e      	add	sp, #56	; 0x38
 8001c66:	bd10      	pop	{r4, pc}
 8001c68:	20000508 	.word	0x20000508
 8001c6c:	40000400 	.word	0x40000400

08001c70 <HAL_TIM_PeriodElapsedCallback>:
 8001c70:	b538      	push	{r3, r4, r5, lr}
 8001c72:	6802      	ldr	r2, [r0, #0]
 8001c74:	4b3b      	ldr	r3, [pc, #236]	; (8001d64 <HAL_TIM_PeriodElapsedCallback+0xf4>)
 8001c76:	429a      	cmp	r2, r3
 8001c78:	4604      	mov	r4, r0
 8001c7a:	d116      	bne.n	8001caa <HAL_TIM_PeriodElapsedCallback+0x3a>
 8001c7c:	4d3a      	ldr	r5, [pc, #232]	; (8001d68 <HAL_TIM_PeriodElapsedCallback+0xf8>)
 8001c7e:	682b      	ldr	r3, [r5, #0]
 8001c80:	6ada      	ldr	r2, [r3, #44]	; 0x2c
 8001c82:	f247 532f 	movw	r3, #29999	; 0x752f
 8001c86:	429a      	cmp	r2, r3
 8001c88:	d107      	bne.n	8001c9a <HAL_TIM_PeriodElapsedCallback+0x2a>
 8001c8a:	4628      	mov	r0, r5
 8001c8c:	f002 fd10 	bl	80046b0 <HAL_TIM_Base_Stop_IT>
 8001c90:	4836      	ldr	r0, [pc, #216]	; (8001d6c <HAL_TIM_PeriodElapsedCallback+0xfc>)
 8001c92:	f003 fa93 	bl	80051bc <HAL_UART_AbortReceive_IT>
 8001c96:	f7fe fdab 	bl	80007f0 <default_configuration>
 8001c9a:	682b      	ldr	r3, [r5, #0]
 8001c9c:	6ada      	ldr	r2, [r3, #44]	; 0x2c
 8001c9e:	f242 730f 	movw	r3, #9999	; 0x270f
 8001ca2:	429a      	cmp	r2, r3
 8001ca4:	d101      	bne.n	8001caa <HAL_TIM_PeriodElapsedCallback+0x3a>
 8001ca6:	f7fe ff7b 	bl	8000ba0 <ds1307rtc_get_date_time>
 8001caa:	6822      	ldr	r2, [r4, #0]
 8001cac:	4b30      	ldr	r3, [pc, #192]	; (8001d70 <HAL_TIM_PeriodElapsedCallback+0x100>)
 8001cae:	429a      	cmp	r2, r3
 8001cb0:	d10d      	bne.n	8001cce <HAL_TIM_PeriodElapsedCallback+0x5e>
 8001cb2:	2120      	movs	r1, #32
 8001cb4:	482f      	ldr	r0, [pc, #188]	; (8001d74 <HAL_TIM_PeriodElapsedCallback+0x104>)
 8001cb6:	f000 ffa6 	bl	8002c06 <HAL_GPIO_TogglePin>
 8001cba:	4b2f      	ldr	r3, [pc, #188]	; (8001d78 <HAL_TIM_PeriodElapsedCallback+0x108>)
 8001cbc:	791a      	ldrb	r2, [r3, #4]
 8001cbe:	b932      	cbnz	r2, 8001cce <HAL_TIM_PeriodElapsedCallback+0x5e>
 8001cc0:	785b      	ldrb	r3, [r3, #1]
 8001cc2:	b123      	cbz	r3, 8001cce <HAL_TIM_PeriodElapsedCallback+0x5e>
 8001cc4:	2201      	movs	r2, #1
 8001cc6:	492d      	ldr	r1, [pc, #180]	; (8001d7c <HAL_TIM_PeriodElapsedCallback+0x10c>)
 8001cc8:	482d      	ldr	r0, [pc, #180]	; (8001d80 <HAL_TIM_PeriodElapsedCallback+0x110>)
 8001cca:	f000 fa55 	bl	8002178 <HAL_ADC_Start_DMA>
 8001cce:	6822      	ldr	r2, [r4, #0]
 8001cd0:	4b2c      	ldr	r3, [pc, #176]	; (8001d84 <HAL_TIM_PeriodElapsedCallback+0x114>)
 8001cd2:	429a      	cmp	r2, r3
 8001cd4:	d115      	bne.n	8001d02 <HAL_TIM_PeriodElapsedCallback+0x92>
 8001cd6:	4b29      	ldr	r3, [pc, #164]	; (8001d7c <HAL_TIM_PeriodElapsedCallback+0x10c>)
 8001cd8:	681a      	ldr	r2, [r3, #0]
 8001cda:	f240 53dc 	movw	r3, #1500	; 0x5dc
 8001cde:	429a      	cmp	r2, r3
 8001ce0:	dd0f      	ble.n	8001d02 <HAL_TIM_PeriodElapsedCallback+0x92>
 8001ce2:	4b25      	ldr	r3, [pc, #148]	; (8001d78 <HAL_TIM_PeriodElapsedCallback+0x108>)
 8001ce4:	785a      	ldrb	r2, [r3, #1]
 8001ce6:	b162      	cbz	r2, 8001d02 <HAL_TIM_PeriodElapsedCallback+0x92>
 8001ce8:	2201      	movs	r2, #1
 8001cea:	711a      	strb	r2, [r3, #4]
 8001cec:	4b26      	ldr	r3, [pc, #152]	; (8001d88 <HAL_TIM_PeriodElapsedCallback+0x118>)
 8001cee:	2200      	movs	r2, #0
 8001cf0:	701a      	strb	r2, [r3, #0]
 8001cf2:	f7ff fcb3 	bl	800165c <check_alarms>
 8001cf6:	4822      	ldr	r0, [pc, #136]	; (8001d80 <HAL_TIM_PeriodElapsedCallback+0x110>)
 8001cf8:	f000 fabe 	bl	8002278 <HAL_ADC_Stop_DMA>
 8001cfc:	4823      	ldr	r0, [pc, #140]	; (8001d8c <HAL_TIM_PeriodElapsedCallback+0x11c>)
 8001cfe:	f002 fcd7 	bl	80046b0 <HAL_TIM_Base_Stop_IT>
 8001d02:	6822      	ldr	r2, [r4, #0]
 8001d04:	4b22      	ldr	r3, [pc, #136]	; (8001d90 <HAL_TIM_PeriodElapsedCallback+0x120>)
 8001d06:	429a      	cmp	r2, r3
 8001d08:	d111      	bne.n	8001d2e <HAL_TIM_PeriodElapsedCallback+0xbe>
 8001d0a:	2108      	movs	r1, #8
 8001d0c:	4821      	ldr	r0, [pc, #132]	; (8001d94 <HAL_TIM_PeriodElapsedCallback+0x124>)
 8001d0e:	f000 ff6f 	bl	8002bf0 <HAL_GPIO_ReadPin>
 8001d12:	2801      	cmp	r0, #1
 8001d14:	d10b      	bne.n	8001d2e <HAL_TIM_PeriodElapsedCallback+0xbe>
 8001d16:	4b18      	ldr	r3, [pc, #96]	; (8001d78 <HAL_TIM_PeriodElapsedCallback+0x108>)
 8001d18:	781a      	ldrb	r2, [r3, #0]
 8001d1a:	b142      	cbz	r2, 8001d2e <HAL_TIM_PeriodElapsedCallback+0xbe>
 8001d1c:	70d8      	strb	r0, [r3, #3]
 8001d1e:	4b1e      	ldr	r3, [pc, #120]	; (8001d98 <HAL_TIM_PeriodElapsedCallback+0x128>)
 8001d20:	2200      	movs	r2, #0
 8001d22:	701a      	strb	r2, [r3, #0]
 8001d24:	f7ff fc9a 	bl	800165c <check_alarms>
 8001d28:	481c      	ldr	r0, [pc, #112]	; (8001d9c <HAL_TIM_PeriodElapsedCallback+0x12c>)
 8001d2a:	f002 fcc1 	bl	80046b0 <HAL_TIM_Base_Stop_IT>
 8001d2e:	6822      	ldr	r2, [r4, #0]
 8001d30:	4b1b      	ldr	r3, [pc, #108]	; (8001da0 <HAL_TIM_PeriodElapsedCallback+0x130>)
 8001d32:	429a      	cmp	r2, r3
 8001d34:	d10e      	bne.n	8001d54 <HAL_TIM_PeriodElapsedCallback+0xe4>
 8001d36:	2100      	movs	r1, #0
 8001d38:	481a      	ldr	r0, [pc, #104]	; (8001da4 <HAL_TIM_PeriodElapsedCallback+0x134>)
 8001d3a:	f002 ffc7 	bl	8004ccc <HAL_TIM_PWM_Stop_IT>
 8001d3e:	481a      	ldr	r0, [pc, #104]	; (8001da8 <HAL_TIM_PeriodElapsedCallback+0x138>)
 8001d40:	f002 fcb6 	bl	80046b0 <HAL_TIM_Base_Stop_IT>
 8001d44:	4b0c      	ldr	r3, [pc, #48]	; (8001d78 <HAL_TIM_PeriodElapsedCallback+0x108>)
 8001d46:	78d9      	ldrb	r1, [r3, #3]
 8001d48:	791a      	ldrb	r2, [r3, #4]
 8001d4a:	b131      	cbz	r1, 8001d5a <HAL_TIM_PeriodElapsedCallback+0xea>
 8001d4c:	b11a      	cbz	r2, 8001d56 <HAL_TIM_PeriodElapsedCallback+0xe6>
 8001d4e:	2200      	movs	r2, #0
 8001d50:	70da      	strb	r2, [r3, #3]
 8001d52:	711a      	strb	r2, [r3, #4]
 8001d54:	bd38      	pop	{r3, r4, r5, pc}
 8001d56:	70da      	strb	r2, [r3, #3]
 8001d58:	e7fc      	b.n	8001d54 <HAL_TIM_PeriodElapsedCallback+0xe4>
 8001d5a:	2a00      	cmp	r2, #0
 8001d5c:	d0fa      	beq.n	8001d54 <HAL_TIM_PeriodElapsedCallback+0xe4>
 8001d5e:	7119      	strb	r1, [r3, #4]
 8001d60:	e7f8      	b.n	8001d54 <HAL_TIM_PeriodElapsedCallback+0xe4>
 8001d62:	bf00      	nop
 8001d64:	40014400 	.word	0x40014400
 8001d68:	20000488 	.word	0x20000488
 8001d6c:	20000628 	.word	0x20000628
 8001d70:	40014800 	.word	0x40014800
 8001d74:	40020000 	.word	0x40020000
 8001d78:	2000043c 	.word	0x2000043c
 8001d7c:	20000444 	.word	0x20000444
 8001d80:	20000238 	.word	0x20000238
 8001d84:	40000c00 	.word	0x40000c00
 8001d88:	20000221 	.word	0x20000221
 8001d8c:	200004c8 	.word	0x200004c8
 8001d90:	40014000 	.word	0x40014000
 8001d94:	40020400 	.word	0x40020400
 8001d98:	20000222 	.word	0x20000222
 8001d9c:	20000588 	.word	0x20000588
 8001da0:	40000800 	.word	0x40000800
 8001da4:	20000508 	.word	0x20000508
 8001da8:	20000448 	.word	0x20000448

08001dac <HAL_TIM_PWM_PulseFinishedCallback>:
 8001dac:	b570      	push	{r4, r5, r6, lr}
 8001dae:	4d18      	ldr	r5, [pc, #96]	; (8001e10 <HAL_TIM_PWM_PulseFinishedCallback+0x64>)
 8001db0:	4604      	mov	r4, r0
 8001db2:	2100      	movs	r1, #0
 8001db4:	4628      	mov	r0, r5
 8001db6:	f002 fc91 	bl	80046dc <HAL_TIM_ReadCapturedValue>
 8001dba:	6824      	ldr	r4, [r4, #0]
 8001dbc:	4a15      	ldr	r2, [pc, #84]	; (8001e14 <HAL_TIM_PWM_PulseFinishedCallback+0x68>)
 8001dbe:	4916      	ldr	r1, [pc, #88]	; (8001e18 <HAL_TIM_PWM_PulseFinishedCallback+0x6c>)
 8001dc0:	b283      	uxth	r3, r0
 8001dc2:	4294      	cmp	r4, r2
 8001dc4:	800b      	strh	r3, [r1, #0]
 8001dc6:	d11c      	bne.n	8001e02 <HAL_TIM_PWM_PulseFinishedCallback+0x56>
 8001dc8:	4c14      	ldr	r4, [pc, #80]	; (8001e1c <HAL_TIM_PWM_PulseFinishedCallback+0x70>)
 8001dca:	8822      	ldrh	r2, [r4, #0]
 8001dcc:	3201      	adds	r2, #1
 8001dce:	b292      	uxth	r2, r2
 8001dd0:	f44f 767a 	mov.w	r6, #1000	; 0x3e8
 8001dd4:	8022      	strh	r2, [r4, #0]
 8001dd6:	fbb2 f4f6 	udiv	r4, r2, r6
 8001dda:	fb06 2214 	mls	r2, r6, r4, r2
 8001dde:	b292      	uxth	r2, r2
 8001de0:	b17a      	cbz	r2, 8001e02 <HAL_TIM_PWM_PulseFinishedCallback+0x56>
 8001de2:	682c      	ldr	r4, [r5, #0]
 8001de4:	6ae2      	ldr	r2, [r4, #44]	; 0x2c
 8001de6:	429a      	cmp	r2, r3
 8001de8:	4a0d      	ldr	r2, [pc, #52]	; (8001e20 <HAL_TIM_PWM_PulseFinishedCallback+0x74>)
 8001dea:	d80b      	bhi.n	8001e04 <HAL_TIM_PWM_PulseFinishedCallback+0x58>
 8001dec:	2000      	movs	r0, #0
 8001dee:	7010      	strb	r0, [r2, #0]
 8001df0:	b95b      	cbnz	r3, 8001e0a <HAL_TIM_PWM_PulseFinishedCallback+0x5e>
 8001df2:	2001      	movs	r0, #1
 8001df4:	7010      	strb	r0, [r2, #0]
 8001df6:	7812      	ldrb	r2, [r2, #0]
 8001df8:	b13a      	cbz	r2, 8001e0a <HAL_TIM_PWM_PulseFinishedCallback+0x5e>
 8001dfa:	3301      	adds	r3, #1
 8001dfc:	800b      	strh	r3, [r1, #0]
 8001dfe:	880b      	ldrh	r3, [r1, #0]
 8001e00:	6363      	str	r3, [r4, #52]	; 0x34
 8001e02:	bd70      	pop	{r4, r5, r6, pc}
 8001e04:	2b00      	cmp	r3, #0
 8001e06:	d0f4      	beq.n	8001df2 <HAL_TIM_PWM_PulseFinishedCallback+0x46>
 8001e08:	e7f5      	b.n	8001df6 <HAL_TIM_PWM_PulseFinishedCallback+0x4a>
 8001e0a:	3b01      	subs	r3, #1
 8001e0c:	e7f6      	b.n	8001dfc <HAL_TIM_PWM_PulseFinishedCallback+0x50>
 8001e0e:	bf00      	nop
 8001e10:	20000508 	.word	0x20000508
 8001e14:	40000400 	.word	0x40000400
 8001e18:	2000022a 	.word	0x2000022a
 8001e1c:	20000228 	.word	0x20000228
 8001e20:	2000022c 	.word	0x2000022c

08001e24 <MX_USART2_UART_Init>:
 8001e24:	480b      	ldr	r0, [pc, #44]	; (8001e54 <MX_USART2_UART_Init+0x30>)
 8001e26:	4a0c      	ldr	r2, [pc, #48]	; (8001e58 <MX_USART2_UART_Init+0x34>)
 8001e28:	b508      	push	{r3, lr}
 8001e2a:	f44f 5316 	mov.w	r3, #9600	; 0x2580
 8001e2e:	e9c0 2300 	strd	r2, r3, [r0]
 8001e32:	2300      	movs	r3, #0
 8001e34:	220c      	movs	r2, #12
 8001e36:	e9c0 3302 	strd	r3, r3, [r0, #8]
 8001e3a:	6103      	str	r3, [r0, #16]
 8001e3c:	e9c0 2305 	strd	r2, r3, [r0, #20]
 8001e40:	61c3      	str	r3, [r0, #28]
 8001e42:	f002 ffff 	bl	8004e44 <HAL_UART_Init>
 8001e46:	b118      	cbz	r0, 8001e50 <MX_USART2_UART_Init+0x2c>
 8001e48:	e8bd 4008 	ldmia.w	sp!, {r3, lr}
 8001e4c:	f7ff ba44 	b.w	80012d8 <Error_Handler>
 8001e50:	bd08      	pop	{r3, pc}
 8001e52:	bf00      	nop
 8001e54:	20000628 	.word	0x20000628
 8001e58:	40004400 	.word	0x40004400

08001e5c <HAL_UART_MspInit>:
 8001e5c:	b570      	push	{r4, r5, r6, lr}
 8001e5e:	4606      	mov	r6, r0
 8001e60:	b088      	sub	sp, #32
 8001e62:	2214      	movs	r2, #20
 8001e64:	2100      	movs	r1, #0
 8001e66:	a803      	add	r0, sp, #12
 8001e68:	f003 fa38 	bl	80052dc <memset>
 8001e6c:	6832      	ldr	r2, [r6, #0]
 8001e6e:	4b24      	ldr	r3, [pc, #144]	; (8001f00 <HAL_UART_MspInit+0xa4>)
 8001e70:	429a      	cmp	r2, r3
 8001e72:	d143      	bne.n	8001efc <HAL_UART_MspInit+0xa0>
 8001e74:	2500      	movs	r5, #0
 8001e76:	f503 33fa 	add.w	r3, r3, #128000	; 0x1f400
 8001e7a:	9501      	str	r5, [sp, #4]
 8001e7c:	6c1a      	ldr	r2, [r3, #64]	; 0x40
 8001e7e:	4821      	ldr	r0, [pc, #132]	; (8001f04 <HAL_UART_MspInit+0xa8>)
 8001e80:	4c21      	ldr	r4, [pc, #132]	; (8001f08 <HAL_UART_MspInit+0xac>)
 8001e82:	f442 3200 	orr.w	r2, r2, #131072	; 0x20000
 8001e86:	641a      	str	r2, [r3, #64]	; 0x40
 8001e88:	6c1a      	ldr	r2, [r3, #64]	; 0x40
 8001e8a:	f402 3200 	and.w	r2, r2, #131072	; 0x20000
 8001e8e:	9201      	str	r2, [sp, #4]
 8001e90:	9a01      	ldr	r2, [sp, #4]
 8001e92:	9502      	str	r5, [sp, #8]
 8001e94:	6b1a      	ldr	r2, [r3, #48]	; 0x30
 8001e96:	f042 0201 	orr.w	r2, r2, #1
 8001e9a:	631a      	str	r2, [r3, #48]	; 0x30
 8001e9c:	6b1b      	ldr	r3, [r3, #48]	; 0x30
 8001e9e:	f003 0301 	and.w	r3, r3, #1
 8001ea2:	9302      	str	r3, [sp, #8]
 8001ea4:	9b02      	ldr	r3, [sp, #8]
 8001ea6:	220c      	movs	r2, #12
 8001ea8:	2302      	movs	r3, #2
 8001eaa:	e9cd 2303 	strd	r2, r3, [sp, #12]
 8001eae:	2103      	movs	r1, #3
 8001eb0:	2307      	movs	r3, #7
 8001eb2:	e9cd 1306 	strd	r1, r3, [sp, #24]
 8001eb6:	a903      	add	r1, sp, #12
 8001eb8:	f000 fdcc 	bl	8002a54 <HAL_GPIO_Init>
 8001ebc:	4813      	ldr	r0, [pc, #76]	; (8001f0c <HAL_UART_MspInit+0xb0>)
 8001ebe:	f04f 6300 	mov.w	r3, #134217728	; 0x8000000
 8001ec2:	e9c4 0300 	strd	r0, r3, [r4]
 8001ec6:	2340      	movs	r3, #64	; 0x40
 8001ec8:	e9c4 3502 	strd	r3, r5, [r4, #8]
 8001ecc:	4620      	mov	r0, r4
 8001ece:	f44f 6380 	mov.w	r3, #1024	; 0x400
 8001ed2:	e9c4 3504 	strd	r3, r5, [r4, #16]
 8001ed6:	e9c4 5506 	strd	r5, r5, [r4, #24]
 8001eda:	e9c4 5508 	strd	r5, r5, [r4, #32]
 8001ede:	f000 fbe7 	bl	80026b0 <HAL_DMA_Init>
 8001ee2:	b108      	cbz	r0, 8001ee8 <HAL_UART_MspInit+0x8c>
 8001ee4:	f7ff f9f8 	bl	80012d8 <Error_Handler>
 8001ee8:	2200      	movs	r2, #0
 8001eea:	6334      	str	r4, [r6, #48]	; 0x30
 8001eec:	2026      	movs	r0, #38	; 0x26
 8001eee:	4611      	mov	r1, r2
 8001ef0:	63a6      	str	r6, [r4, #56]	; 0x38
 8001ef2:	f000 fb6f 	bl	80025d4 <HAL_NVIC_SetPriority>
 8001ef6:	2026      	movs	r0, #38	; 0x26
 8001ef8:	f000 fba0 	bl	800263c <HAL_NVIC_EnableIRQ>
 8001efc:	b008      	add	sp, #32
 8001efe:	bd70      	pop	{r4, r5, r6, pc}
 8001f00:	40004400 	.word	0x40004400
 8001f04:	40020000 	.word	0x40020000
 8001f08:	200005c8 	.word	0x200005c8
 8001f0c:	400260a0 	.word	0x400260a0

08001f10 <Reset_Handler>:
 8001f10:	f8df d034 	ldr.w	sp, [pc, #52]	; 8001f48 <LoopFillZerobss+0x14>
 8001f14:	2100      	movs	r1, #0
 8001f16:	e003      	b.n	8001f20 <LoopCopyDataInit>

08001f18 <CopyDataInit>:
 8001f18:	4b0c      	ldr	r3, [pc, #48]	; (8001f4c <LoopFillZerobss+0x18>)
 8001f1a:	585b      	ldr	r3, [r3, r1]
 8001f1c:	5043      	str	r3, [r0, r1]
 8001f1e:	3104      	adds	r1, #4

08001f20 <LoopCopyDataInit>:
 8001f20:	480b      	ldr	r0, [pc, #44]	; (8001f50 <LoopFillZerobss+0x1c>)
 8001f22:	4b0c      	ldr	r3, [pc, #48]	; (8001f54 <LoopFillZerobss+0x20>)
 8001f24:	1842      	adds	r2, r0, r1
 8001f26:	429a      	cmp	r2, r3
 8001f28:	d3f6      	bcc.n	8001f18 <CopyDataInit>
 8001f2a:	4a0b      	ldr	r2, [pc, #44]	; (8001f58 <LoopFillZerobss+0x24>)
 8001f2c:	e002      	b.n	8001f34 <LoopFillZerobss>

08001f2e <FillZerobss>:
 8001f2e:	2300      	movs	r3, #0
 8001f30:	f842 3b04 	str.w	r3, [r2], #4

08001f34 <LoopFillZerobss>:
 8001f34:	4b09      	ldr	r3, [pc, #36]	; (8001f5c <LoopFillZerobss+0x28>)
 8001f36:	429a      	cmp	r2, r3
 8001f38:	d3f9      	bcc.n	8001f2e <FillZerobss>
 8001f3a:	f7ff fca1 	bl	8001880 <SystemInit>
 8001f3e:	f003 f97d 	bl	800523c <__libc_init_array>
 8001f42:	f7ff f9b1 	bl	80012a8 <main>
 8001f46:	4770      	bx	lr
 8001f48:	20018000 	.word	0x20018000
 8001f4c:	08006314 	.word	0x08006314
 8001f50:	20000000 	.word	0x20000000
 8001f54:	200001fc 	.word	0x200001fc
 8001f58:	200001fc 	.word	0x200001fc
 8001f5c:	20000670 	.word	0x20000670

08001f60 <DMA1_Stream1_IRQHandler>:
 8001f60:	e7fe      	b.n	8001f60 <DMA1_Stream1_IRQHandler>
	...

08001f64 <HAL_InitTick>:
 8001f64:	b538      	push	{r3, r4, r5, lr}
 8001f66:	4a0e      	ldr	r2, [pc, #56]	; (8001fa0 <HAL_InitTick+0x3c>)
 8001f68:	4b0e      	ldr	r3, [pc, #56]	; (8001fa4 <HAL_InitTick+0x40>)
 8001f6a:	4605      	mov	r5, r0
 8001f6c:	7818      	ldrb	r0, [r3, #0]
 8001f6e:	f44f 737a 	mov.w	r3, #1000	; 0x3e8
 8001f72:	fbb3 f3f0 	udiv	r3, r3, r0
 8001f76:	6810      	ldr	r0, [r2, #0]
 8001f78:	fbb0 f0f3 	udiv	r0, r0, r3
 8001f7c:	f000 fb6c 	bl	8002658 <HAL_SYSTICK_Config>
 8001f80:	4604      	mov	r4, r0
 8001f82:	b958      	cbnz	r0, 8001f9c <HAL_InitTick+0x38>
 8001f84:	2d0f      	cmp	r5, #15
 8001f86:	d809      	bhi.n	8001f9c <HAL_InitTick+0x38>
 8001f88:	4602      	mov	r2, r0
 8001f8a:	4629      	mov	r1, r5
 8001f8c:	f04f 30ff 	mov.w	r0, #4294967295
 8001f90:	f000 fb20 	bl	80025d4 <HAL_NVIC_SetPriority>
 8001f94:	4b04      	ldr	r3, [pc, #16]	; (8001fa8 <HAL_InitTick+0x44>)
 8001f96:	4620      	mov	r0, r4
 8001f98:	601d      	str	r5, [r3, #0]
 8001f9a:	bd38      	pop	{r3, r4, r5, pc}
 8001f9c:	2001      	movs	r0, #1
 8001f9e:	e7fc      	b.n	8001f9a <HAL_InitTick+0x36>
 8001fa0:	20000020 	.word	0x20000020
 8001fa4:	20000024 	.word	0x20000024
 8001fa8:	20000028 	.word	0x20000028

08001fac <HAL_Init>:
 8001fac:	b508      	push	{r3, lr}
 8001fae:	4b0b      	ldr	r3, [pc, #44]	; (8001fdc <HAL_Init+0x30>)
 8001fb0:	681a      	ldr	r2, [r3, #0]
 8001fb2:	f442 7200 	orr.w	r2, r2, #512	; 0x200
 8001fb6:	601a      	str	r2, [r3, #0]
 8001fb8:	681a      	ldr	r2, [r3, #0]
 8001fba:	f442 6280 	orr.w	r2, r2, #1024	; 0x400
 8001fbe:	601a      	str	r2, [r3, #0]
 8001fc0:	681a      	ldr	r2, [r3, #0]
 8001fc2:	f442 7280 	orr.w	r2, r2, #256	; 0x100
 8001fc6:	601a      	str	r2, [r3, #0]
 8001fc8:	2003      	movs	r0, #3
 8001fca:	f000 faf1 	bl	80025b0 <HAL_NVIC_SetPriorityGrouping>
 8001fce:	2000      	movs	r0, #0
 8001fd0:	f7ff ffc8 	bl	8001f64 <HAL_InitTick>
 8001fd4:	f7ff fb50 	bl	8001678 <HAL_MspInit>
 8001fd8:	2000      	movs	r0, #0
 8001fda:	bd08      	pop	{r3, pc}
 8001fdc:	40023c00 	.word	0x40023c00

08001fe0 <HAL_IncTick>:
 8001fe0:	4a03      	ldr	r2, [pc, #12]	; (8001ff0 <HAL_IncTick+0x10>)
 8001fe2:	4b04      	ldr	r3, [pc, #16]	; (8001ff4 <HAL_IncTick+0x14>)
 8001fe4:	6811      	ldr	r1, [r2, #0]
 8001fe6:	781b      	ldrb	r3, [r3, #0]
 8001fe8:	440b      	add	r3, r1
 8001fea:	6013      	str	r3, [r2, #0]
 8001fec:	4770      	bx	lr
 8001fee:	bf00      	nop
 8001ff0:	20000668 	.word	0x20000668
 8001ff4:	20000024 	.word	0x20000024

08001ff8 <HAL_GetTick>:
 8001ff8:	4b01      	ldr	r3, [pc, #4]	; (8002000 <HAL_GetTick+0x8>)
 8001ffa:	6818      	ldr	r0, [r3, #0]
 8001ffc:	4770      	bx	lr
 8001ffe:	bf00      	nop
 8002000:	20000668 	.word	0x20000668

08002004 <HAL_Delay>:
 8002004:	b538      	push	{r3, r4, r5, lr}
 8002006:	4604      	mov	r4, r0
 8002008:	f7ff fff6 	bl	8001ff8 <HAL_GetTick>
 800200c:	1c63      	adds	r3, r4, #1
 800200e:	bf1c      	itt	ne
 8002010:	4b05      	ldrne	r3, [pc, #20]	; (8002028 <HAL_Delay+0x24>)
 8002012:	781b      	ldrbne	r3, [r3, #0]
 8002014:	4605      	mov	r5, r0
 8002016:	bf18      	it	ne
 8002018:	18e4      	addne	r4, r4, r3
 800201a:	f7ff ffed 	bl	8001ff8 <HAL_GetTick>
 800201e:	1b40      	subs	r0, r0, r5
 8002020:	42a0      	cmp	r0, r4
 8002022:	d3fa      	bcc.n	800201a <HAL_Delay+0x16>
 8002024:	bd38      	pop	{r3, r4, r5, pc}
 8002026:	bf00      	nop
 8002028:	20000024 	.word	0x20000024

0800202c <HAL_ADC_Init>:
 800202c:	b538      	push	{r3, r4, r5, lr}
 800202e:	4604      	mov	r4, r0
 8002030:	2800      	cmp	r0, #0
 8002032:	f000 809b 	beq.w	800216c <HAL_ADC_Init+0x140>
 8002036:	6c05      	ldr	r5, [r0, #64]	; 0x40
 8002038:	b925      	cbnz	r5, 8002044 <HAL_ADC_Init+0x18>
 800203a:	f7fe faeb 	bl	8000614 <HAL_ADC_MspInit>
 800203e:	6465      	str	r5, [r4, #68]	; 0x44
 8002040:	f884 503c 	strb.w	r5, [r4, #60]	; 0x3c
 8002044:	6c23      	ldr	r3, [r4, #64]	; 0x40
 8002046:	06db      	lsls	r3, r3, #27
 8002048:	f100 808e 	bmi.w	8002168 <HAL_ADC_Init+0x13c>
 800204c:	6c23      	ldr	r3, [r4, #64]	; 0x40
 800204e:	f423 5388 	bic.w	r3, r3, #4352	; 0x1100
 8002052:	f023 0302 	bic.w	r3, r3, #2
 8002056:	f043 0302 	orr.w	r3, r3, #2
 800205a:	6423      	str	r3, [r4, #64]	; 0x40
 800205c:	4b44      	ldr	r3, [pc, #272]	; (8002170 <HAL_ADC_Init+0x144>)
 800205e:	685a      	ldr	r2, [r3, #4]
 8002060:	f422 3240 	bic.w	r2, r2, #196608	; 0x30000
 8002064:	605a      	str	r2, [r3, #4]
 8002066:	685a      	ldr	r2, [r3, #4]
 8002068:	6861      	ldr	r1, [r4, #4]
 800206a:	430a      	orrs	r2, r1
 800206c:	605a      	str	r2, [r3, #4]
 800206e:	6823      	ldr	r3, [r4, #0]
 8002070:	6921      	ldr	r1, [r4, #16]
 8002072:	685a      	ldr	r2, [r3, #4]
 8002074:	f422 7280 	bic.w	r2, r2, #256	; 0x100
 8002078:	605a      	str	r2, [r3, #4]
 800207a:	685a      	ldr	r2, [r3, #4]
 800207c:	ea42 2201 	orr.w	r2, r2, r1, lsl #8
 8002080:	605a      	str	r2, [r3, #4]
 8002082:	685a      	ldr	r2, [r3, #4]
 8002084:	68a1      	ldr	r1, [r4, #8]
 8002086:	f022 7240 	bic.w	r2, r2, #50331648	; 0x3000000
 800208a:	605a      	str	r2, [r3, #4]
 800208c:	685a      	ldr	r2, [r3, #4]
 800208e:	430a      	orrs	r2, r1
 8002090:	605a      	str	r2, [r3, #4]
 8002092:	689a      	ldr	r2, [r3, #8]
 8002094:	68e1      	ldr	r1, [r4, #12]
 8002096:	f422 6200 	bic.w	r2, r2, #2048	; 0x800
 800209a:	609a      	str	r2, [r3, #8]
 800209c:	689a      	ldr	r2, [r3, #8]
 800209e:	430a      	orrs	r2, r1
 80020a0:	609a      	str	r2, [r3, #8]
 80020a2:	4934      	ldr	r1, [pc, #208]	; (8002174 <HAL_ADC_Init+0x148>)
 80020a4:	6aa2      	ldr	r2, [r4, #40]	; 0x28
 80020a6:	428a      	cmp	r2, r1
 80020a8:	d052      	beq.n	8002150 <HAL_ADC_Init+0x124>
 80020aa:	6899      	ldr	r1, [r3, #8]
 80020ac:	f021 6170 	bic.w	r1, r1, #251658240	; 0xf000000
 80020b0:	6099      	str	r1, [r3, #8]
 80020b2:	6899      	ldr	r1, [r3, #8]
 80020b4:	430a      	orrs	r2, r1
 80020b6:	609a      	str	r2, [r3, #8]
 80020b8:	689a      	ldr	r2, [r3, #8]
 80020ba:	6ae1      	ldr	r1, [r4, #44]	; 0x2c
 80020bc:	f022 5240 	bic.w	r2, r2, #805306368	; 0x30000000
 80020c0:	609a      	str	r2, [r3, #8]
 80020c2:	689a      	ldr	r2, [r3, #8]
 80020c4:	430a      	orrs	r2, r1
 80020c6:	609a      	str	r2, [r3, #8]
 80020c8:	689a      	ldr	r2, [r3, #8]
 80020ca:	7e21      	ldrb	r1, [r4, #24]
 80020cc:	f022 0202 	bic.w	r2, r2, #2
 80020d0:	609a      	str	r2, [r3, #8]
 80020d2:	689a      	ldr	r2, [r3, #8]
 80020d4:	ea42 0241 	orr.w	r2, r2, r1, lsl #1
 80020d8:	609a      	str	r2, [r3, #8]
 80020da:	f894 2020 	ldrb.w	r2, [r4, #32]
 80020de:	2a00      	cmp	r2, #0
 80020e0:	d03e      	beq.n	8002160 <HAL_ADC_Init+0x134>
 80020e2:	685a      	ldr	r2, [r3, #4]
 80020e4:	6a61      	ldr	r1, [r4, #36]	; 0x24
 80020e6:	f442 6200 	orr.w	r2, r2, #2048	; 0x800
 80020ea:	605a      	str	r2, [r3, #4]
 80020ec:	685a      	ldr	r2, [r3, #4]
 80020ee:	f422 4260 	bic.w	r2, r2, #57344	; 0xe000
 80020f2:	605a      	str	r2, [r3, #4]
 80020f4:	685a      	ldr	r2, [r3, #4]
 80020f6:	3901      	subs	r1, #1
 80020f8:	ea42 3241 	orr.w	r2, r2, r1, lsl #13
 80020fc:	605a      	str	r2, [r3, #4]
 80020fe:	6ada      	ldr	r2, [r3, #44]	; 0x2c
 8002100:	69e1      	ldr	r1, [r4, #28]
 8002102:	f422 0270 	bic.w	r2, r2, #15728640	; 0xf00000
 8002106:	62da      	str	r2, [r3, #44]	; 0x2c
 8002108:	6ada      	ldr	r2, [r3, #44]	; 0x2c
 800210a:	3901      	subs	r1, #1
 800210c:	ea42 5201 	orr.w	r2, r2, r1, lsl #20
 8002110:	62da      	str	r2, [r3, #44]	; 0x2c
 8002112:	689a      	ldr	r2, [r3, #8]
 8002114:	f894 1030 	ldrb.w	r1, [r4, #48]	; 0x30
 8002118:	f422 7200 	bic.w	r2, r2, #512	; 0x200
 800211c:	609a      	str	r2, [r3, #8]
 800211e:	689a      	ldr	r2, [r3, #8]
 8002120:	ea42 2241 	orr.w	r2, r2, r1, lsl #9
 8002124:	609a      	str	r2, [r3, #8]
 8002126:	689a      	ldr	r2, [r3, #8]
 8002128:	6961      	ldr	r1, [r4, #20]
 800212a:	f422 6280 	bic.w	r2, r2, #1024	; 0x400
 800212e:	609a      	str	r2, [r3, #8]
 8002130:	689a      	ldr	r2, [r3, #8]
 8002132:	2000      	movs	r0, #0
 8002134:	ea42 2281 	orr.w	r2, r2, r1, lsl #10
 8002138:	609a      	str	r2, [r3, #8]
 800213a:	6460      	str	r0, [r4, #68]	; 0x44
 800213c:	6c23      	ldr	r3, [r4, #64]	; 0x40
 800213e:	f023 0303 	bic.w	r3, r3, #3
 8002142:	f043 0301 	orr.w	r3, r3, #1
 8002146:	6423      	str	r3, [r4, #64]	; 0x40
 8002148:	2300      	movs	r3, #0
 800214a:	f884 303c 	strb.w	r3, [r4, #60]	; 0x3c
 800214e:	bd38      	pop	{r3, r4, r5, pc}
 8002150:	689a      	ldr	r2, [r3, #8]
 8002152:	f022 6270 	bic.w	r2, r2, #251658240	; 0xf000000
 8002156:	609a      	str	r2, [r3, #8]
 8002158:	689a      	ldr	r2, [r3, #8]
 800215a:	f022 5240 	bic.w	r2, r2, #805306368	; 0x30000000
 800215e:	e7b2      	b.n	80020c6 <HAL_ADC_Init+0x9a>
 8002160:	685a      	ldr	r2, [r3, #4]
 8002162:	f422 6200 	bic.w	r2, r2, #2048	; 0x800
 8002166:	e7c9      	b.n	80020fc <HAL_ADC_Init+0xd0>
 8002168:	2001      	movs	r0, #1
 800216a:	e7ed      	b.n	8002148 <HAL_ADC_Init+0x11c>
 800216c:	2001      	movs	r0, #1
 800216e:	e7ee      	b.n	800214e <HAL_ADC_Init+0x122>
 8002170:	40012300 	.word	0x40012300
 8002174:	0f000001 	.word	0x0f000001

08002178 <HAL_ADC_Start_DMA>:
 8002178:	b537      	push	{r0, r1, r2, r4, r5, lr}
 800217a:	4613      	mov	r3, r2
 800217c:	2200      	movs	r2, #0
 800217e:	9201      	str	r2, [sp, #4]
 8002180:	f890 203c 	ldrb.w	r2, [r0, #60]	; 0x3c
 8002184:	2a01      	cmp	r2, #1
 8002186:	4604      	mov	r4, r0
 8002188:	d065      	beq.n	8002256 <HAL_ADC_Start_DMA+0xde>
 800218a:	6805      	ldr	r5, [r0, #0]
 800218c:	2201      	movs	r2, #1
 800218e:	f880 203c 	strb.w	r2, [r0, #60]	; 0x3c
 8002192:	68aa      	ldr	r2, [r5, #8]
 8002194:	07d2      	lsls	r2, r2, #31
 8002196:	d505      	bpl.n	80021a4 <HAL_ADC_Start_DMA+0x2c>
 8002198:	68aa      	ldr	r2, [r5, #8]
 800219a:	07d0      	lsls	r0, r2, #31
 800219c:	d415      	bmi.n	80021ca <HAL_ADC_Start_DMA+0x52>
 800219e:	2000      	movs	r0, #0
 80021a0:	b003      	add	sp, #12
 80021a2:	bd30      	pop	{r4, r5, pc}
 80021a4:	68aa      	ldr	r2, [r5, #8]
 80021a6:	f042 0201 	orr.w	r2, r2, #1
 80021aa:	60aa      	str	r2, [r5, #8]
 80021ac:	4a2b      	ldr	r2, [pc, #172]	; (800225c <HAL_ADC_Start_DMA+0xe4>)
 80021ae:	6810      	ldr	r0, [r2, #0]
 80021b0:	4a2b      	ldr	r2, [pc, #172]	; (8002260 <HAL_ADC_Start_DMA+0xe8>)
 80021b2:	fbb0 f0f2 	udiv	r0, r0, r2
 80021b6:	eb00 0040 	add.w	r0, r0, r0, lsl #1
 80021ba:	9001      	str	r0, [sp, #4]
 80021bc:	9a01      	ldr	r2, [sp, #4]
 80021be:	2a00      	cmp	r2, #0
 80021c0:	d0ea      	beq.n	8002198 <HAL_ADC_Start_DMA+0x20>
 80021c2:	9a01      	ldr	r2, [sp, #4]
 80021c4:	3a01      	subs	r2, #1
 80021c6:	9201      	str	r2, [sp, #4]
 80021c8:	e7f8      	b.n	80021bc <HAL_ADC_Start_DMA+0x44>
 80021ca:	6c20      	ldr	r0, [r4, #64]	; 0x40
 80021cc:	f420 60e0 	bic.w	r0, r0, #1792	; 0x700
 80021d0:	f020 0001 	bic.w	r0, r0, #1
 80021d4:	f440 7080 	orr.w	r0, r0, #256	; 0x100
 80021d8:	6420      	str	r0, [r4, #64]	; 0x40
 80021da:	686a      	ldr	r2, [r5, #4]
 80021dc:	0552      	lsls	r2, r2, #21
 80021de:	bf41      	itttt	mi
 80021e0:	6c20      	ldrmi	r0, [r4, #64]	; 0x40
 80021e2:	f420 5040 	bicmi.w	r0, r0, #12288	; 0x3000
 80021e6:	f440 5080 	orrmi.w	r0, r0, #4096	; 0x1000
 80021ea:	6420      	strmi	r0, [r4, #64]	; 0x40
 80021ec:	6c22      	ldr	r2, [r4, #64]	; 0x40
 80021ee:	6ba0      	ldr	r0, [r4, #56]	; 0x38
 80021f0:	f412 5280 	ands.w	r2, r2, #4096	; 0x1000
 80021f4:	bf1c      	itt	ne
 80021f6:	6c62      	ldrne	r2, [r4, #68]	; 0x44
 80021f8:	f022 0206 	bicne.w	r2, r2, #6
 80021fc:	6462      	str	r2, [r4, #68]	; 0x44
 80021fe:	2200      	movs	r2, #0
 8002200:	f884 203c 	strb.w	r2, [r4, #60]	; 0x3c
 8002204:	4a17      	ldr	r2, [pc, #92]	; (8002264 <HAL_ADC_Start_DMA+0xec>)
 8002206:	63c2      	str	r2, [r0, #60]	; 0x3c
 8002208:	4a17      	ldr	r2, [pc, #92]	; (8002268 <HAL_ADC_Start_DMA+0xf0>)
 800220a:	6402      	str	r2, [r0, #64]	; 0x40
 800220c:	4a17      	ldr	r2, [pc, #92]	; (800226c <HAL_ADC_Start_DMA+0xf4>)
 800220e:	64c2      	str	r2, [r0, #76]	; 0x4c
 8002210:	f06f 0222 	mvn.w	r2, #34	; 0x22
 8002214:	602a      	str	r2, [r5, #0]
 8002216:	686a      	ldr	r2, [r5, #4]
 8002218:	f042 6280 	orr.w	r2, r2, #67108864	; 0x4000000
 800221c:	606a      	str	r2, [r5, #4]
 800221e:	68aa      	ldr	r2, [r5, #8]
 8002220:	f442 7280 	orr.w	r2, r2, #256	; 0x100
 8002224:	60aa      	str	r2, [r5, #8]
 8002226:	460a      	mov	r2, r1
 8002228:	f105 014c 	add.w	r1, r5, #76	; 0x4c
 800222c:	f000 fabe 	bl	80027ac <HAL_DMA_Start_IT>
 8002230:	4b0f      	ldr	r3, [pc, #60]	; (8002270 <HAL_ADC_Start_DMA+0xf8>)
 8002232:	685b      	ldr	r3, [r3, #4]
 8002234:	f013 0f1f 	tst.w	r3, #31
 8002238:	6823      	ldr	r3, [r4, #0]
 800223a:	d108      	bne.n	800224e <HAL_ADC_Start_DMA+0xd6>
 800223c:	6898      	ldr	r0, [r3, #8]
 800223e:	f010 5040 	ands.w	r0, r0, #805306368	; 0x30000000
 8002242:	d1ac      	bne.n	800219e <HAL_ADC_Start_DMA+0x26>
 8002244:	689a      	ldr	r2, [r3, #8]
 8002246:	f042 4280 	orr.w	r2, r2, #1073741824	; 0x40000000
 800224a:	609a      	str	r2, [r3, #8]
 800224c:	e7a8      	b.n	80021a0 <HAL_ADC_Start_DMA+0x28>
 800224e:	4a09      	ldr	r2, [pc, #36]	; (8002274 <HAL_ADC_Start_DMA+0xfc>)
 8002250:	4293      	cmp	r3, r2
 8002252:	d1a4      	bne.n	800219e <HAL_ADC_Start_DMA+0x26>
 8002254:	e7f2      	b.n	800223c <HAL_ADC_Start_DMA+0xc4>
 8002256:	2002      	movs	r0, #2
 8002258:	e7a2      	b.n	80021a0 <HAL_ADC_Start_DMA+0x28>
 800225a:	bf00      	nop
 800225c:	20000020 	.word	0x20000020
 8002260:	000f4240 	.word	0x000f4240
 8002264:	08002421 	.word	0x08002421
 8002268:	080022d5 	.word	0x080022d5
 800226c:	0800240b 	.word	0x0800240b
 8002270:	40012300 	.word	0x40012300
 8002274:	40012000 	.word	0x40012000

08002278 <HAL_ADC_Stop_DMA>:
 8002278:	f890 303c 	ldrb.w	r3, [r0, #60]	; 0x3c
 800227c:	2b01      	cmp	r3, #1
 800227e:	b510      	push	{r4, lr}
 8002280:	4604      	mov	r4, r0
 8002282:	d024      	beq.n	80022ce <HAL_ADC_Stop_DMA+0x56>
 8002284:	2301      	movs	r3, #1
 8002286:	f880 303c 	strb.w	r3, [r0, #60]	; 0x3c
 800228a:	6803      	ldr	r3, [r0, #0]
 800228c:	689a      	ldr	r2, [r3, #8]
 800228e:	f022 0201 	bic.w	r2, r2, #1
 8002292:	609a      	str	r2, [r3, #8]
 8002294:	689a      	ldr	r2, [r3, #8]
 8002296:	07d2      	lsls	r2, r2, #31
 8002298:	d417      	bmi.n	80022ca <HAL_ADC_Stop_DMA+0x52>
 800229a:	689a      	ldr	r2, [r3, #8]
 800229c:	6b80      	ldr	r0, [r0, #56]	; 0x38
 800229e:	f422 7280 	bic.w	r2, r2, #256	; 0x100
 80022a2:	609a      	str	r2, [r3, #8]
 80022a4:	f000 fabc 	bl	8002820 <HAL_DMA_Abort>
 80022a8:	6822      	ldr	r2, [r4, #0]
 80022aa:	6853      	ldr	r3, [r2, #4]
 80022ac:	f023 6380 	bic.w	r3, r3, #67108864	; 0x4000000
 80022b0:	6053      	str	r3, [r2, #4]
 80022b2:	6c23      	ldr	r3, [r4, #64]	; 0x40
 80022b4:	f423 5388 	bic.w	r3, r3, #4352	; 0x1100
 80022b8:	f023 0301 	bic.w	r3, r3, #1
 80022bc:	f043 0301 	orr.w	r3, r3, #1
 80022c0:	6423      	str	r3, [r4, #64]	; 0x40
 80022c2:	2300      	movs	r3, #0
 80022c4:	f884 303c 	strb.w	r3, [r4, #60]	; 0x3c
 80022c8:	bd10      	pop	{r4, pc}
 80022ca:	2000      	movs	r0, #0
 80022cc:	e7f9      	b.n	80022c2 <HAL_ADC_Stop_DMA+0x4a>
 80022ce:	2002      	movs	r0, #2
 80022d0:	e7fa      	b.n	80022c8 <HAL_ADC_Stop_DMA+0x50>

080022d2 <HAL_ADC_ConvHalfCpltCallback>:
 80022d2:	4770      	bx	lr

080022d4 <ADC_DMAHalfConvCplt>:
 80022d4:	b508      	push	{r3, lr}
 80022d6:	6b80      	ldr	r0, [r0, #56]	; 0x38
 80022d8:	f7ff fffb 	bl	80022d2 <HAL_ADC_ConvHalfCpltCallback>
 80022dc:	bd08      	pop	{r3, pc}

080022de <HAL_ADC_LevelOutOfWindowCallback>:
 80022de:	4770      	bx	lr

080022e0 <HAL_ADC_ErrorCallback>:
 80022e0:	4770      	bx	lr

080022e2 <HAL_ADC_IRQHandler>:
 80022e2:	b538      	push	{r3, r4, r5, lr}
 80022e4:	6803      	ldr	r3, [r0, #0]
 80022e6:	6819      	ldr	r1, [r3, #0]
 80022e8:	685a      	ldr	r2, [r3, #4]
 80022ea:	078d      	lsls	r5, r1, #30
 80022ec:	4604      	mov	r4, r0
 80022ee:	d52b      	bpl.n	8002348 <HAL_ADC_IRQHandler+0x66>
 80022f0:	0690      	lsls	r0, r2, #26
 80022f2:	d529      	bpl.n	8002348 <HAL_ADC_IRQHandler+0x66>
 80022f4:	6c22      	ldr	r2, [r4, #64]	; 0x40
 80022f6:	06d1      	lsls	r1, r2, #27
 80022f8:	bf5e      	ittt	pl
 80022fa:	6c22      	ldrpl	r2, [r4, #64]	; 0x40
 80022fc:	f442 7200 	orrpl.w	r2, r2, #512	; 0x200
 8002300:	6422      	strpl	r2, [r4, #64]	; 0x40
 8002302:	689a      	ldr	r2, [r3, #8]
 8002304:	f012 5f40 	tst.w	r2, #805306368	; 0x30000000
 8002308:	d117      	bne.n	800233a <HAL_ADC_IRQHandler+0x58>
 800230a:	7e22      	ldrb	r2, [r4, #24]
 800230c:	b9aa      	cbnz	r2, 800233a <HAL_ADC_IRQHandler+0x58>
 800230e:	6ada      	ldr	r2, [r3, #44]	; 0x2c
 8002310:	f412 0f70 	tst.w	r2, #15728640	; 0xf00000
 8002314:	d002      	beq.n	800231c <HAL_ADC_IRQHandler+0x3a>
 8002316:	689a      	ldr	r2, [r3, #8]
 8002318:	0552      	lsls	r2, r2, #21
 800231a:	d40e      	bmi.n	800233a <HAL_ADC_IRQHandler+0x58>
 800231c:	685a      	ldr	r2, [r3, #4]
 800231e:	f022 0220 	bic.w	r2, r2, #32
 8002322:	605a      	str	r2, [r3, #4]
 8002324:	6c23      	ldr	r3, [r4, #64]	; 0x40
 8002326:	f423 7380 	bic.w	r3, r3, #256	; 0x100
 800232a:	6423      	str	r3, [r4, #64]	; 0x40
 800232c:	6c23      	ldr	r3, [r4, #64]	; 0x40
 800232e:	04db      	lsls	r3, r3, #19
 8002330:	bf5e      	ittt	pl
 8002332:	6c23      	ldrpl	r3, [r4, #64]	; 0x40
 8002334:	f043 0301 	orrpl.w	r3, r3, #1
 8002338:	6423      	strpl	r3, [r4, #64]	; 0x40
 800233a:	4620      	mov	r0, r4
 800233c:	f7ff f91c 	bl	8001578 <HAL_ADC_ConvCpltCallback>
 8002340:	6823      	ldr	r3, [r4, #0]
 8002342:	f06f 0212 	mvn.w	r2, #18
 8002346:	601a      	str	r2, [r3, #0]
 8002348:	6823      	ldr	r3, [r4, #0]
 800234a:	6819      	ldr	r1, [r3, #0]
 800234c:	685a      	ldr	r2, [r3, #4]
 800234e:	074d      	lsls	r5, r1, #29
 8002350:	d532      	bpl.n	80023b8 <HAL_ADC_IRQHandler+0xd6>
 8002352:	0610      	lsls	r0, r2, #24
 8002354:	d530      	bpl.n	80023b8 <HAL_ADC_IRQHandler+0xd6>
 8002356:	6c22      	ldr	r2, [r4, #64]	; 0x40
 8002358:	06d1      	lsls	r1, r2, #27
 800235a:	bf5e      	ittt	pl
 800235c:	6c22      	ldrpl	r2, [r4, #64]	; 0x40
 800235e:	f442 5200 	orrpl.w	r2, r2, #8192	; 0x2000
 8002362:	6422      	strpl	r2, [r4, #64]	; 0x40
 8002364:	689a      	ldr	r2, [r3, #8]
 8002366:	f412 1f40 	tst.w	r2, #3145728	; 0x300000
 800236a:	d11e      	bne.n	80023aa <HAL_ADC_IRQHandler+0xc8>
 800236c:	6b9a      	ldr	r2, [r3, #56]	; 0x38
 800236e:	f412 1f40 	tst.w	r2, #3145728	; 0x300000
 8002372:	d002      	beq.n	800237a <HAL_ADC_IRQHandler+0x98>
 8002374:	689a      	ldr	r2, [r3, #8]
 8002376:	0552      	lsls	r2, r2, #21
 8002378:	d417      	bmi.n	80023aa <HAL_ADC_IRQHandler+0xc8>
 800237a:	685a      	ldr	r2, [r3, #4]
 800237c:	0555      	lsls	r5, r2, #21
 800237e:	d414      	bmi.n	80023aa <HAL_ADC_IRQHandler+0xc8>
 8002380:	689a      	ldr	r2, [r3, #8]
 8002382:	f012 5f40 	tst.w	r2, #805306368	; 0x30000000
 8002386:	d110      	bne.n	80023aa <HAL_ADC_IRQHandler+0xc8>
 8002388:	7e22      	ldrb	r2, [r4, #24]
 800238a:	b972      	cbnz	r2, 80023aa <HAL_ADC_IRQHandler+0xc8>
 800238c:	685a      	ldr	r2, [r3, #4]
 800238e:	f022 0280 	bic.w	r2, r2, #128	; 0x80
 8002392:	605a      	str	r2, [r3, #4]
 8002394:	6c23      	ldr	r3, [r4, #64]	; 0x40
 8002396:	f423 5380 	bic.w	r3, r3, #4096	; 0x1000
 800239a:	6423      	str	r3, [r4, #64]	; 0x40
 800239c:	6c23      	ldr	r3, [r4, #64]	; 0x40
 800239e:	05d8      	lsls	r0, r3, #23
 80023a0:	bf5e      	ittt	pl
 80023a2:	6c23      	ldrpl	r3, [r4, #64]	; 0x40
 80023a4:	f043 0301 	orrpl.w	r3, r3, #1
 80023a8:	6423      	strpl	r3, [r4, #64]	; 0x40
 80023aa:	4620      	mov	r0, r4
 80023ac:	f000 f8fe 	bl	80025ac <HAL_ADCEx_InjectedConvCpltCallback>
 80023b0:	6823      	ldr	r3, [r4, #0]
 80023b2:	f06f 020c 	mvn.w	r2, #12
 80023b6:	601a      	str	r2, [r3, #0]
 80023b8:	6823      	ldr	r3, [r4, #0]
 80023ba:	6819      	ldr	r1, [r3, #0]
 80023bc:	685a      	ldr	r2, [r3, #4]
 80023be:	07c9      	lsls	r1, r1, #31
 80023c0:	d50f      	bpl.n	80023e2 <HAL_ADC_IRQHandler+0x100>
 80023c2:	0655      	lsls	r5, r2, #25
 80023c4:	d50d      	bpl.n	80023e2 <HAL_ADC_IRQHandler+0x100>
 80023c6:	681b      	ldr	r3, [r3, #0]
 80023c8:	07d8      	lsls	r0, r3, #31
 80023ca:	d50a      	bpl.n	80023e2 <HAL_ADC_IRQHandler+0x100>
 80023cc:	6c23      	ldr	r3, [r4, #64]	; 0x40
 80023ce:	f443 3380 	orr.w	r3, r3, #65536	; 0x10000
 80023d2:	6423      	str	r3, [r4, #64]	; 0x40
 80023d4:	4620      	mov	r0, r4
 80023d6:	f7ff ff82 	bl	80022de <HAL_ADC_LevelOutOfWindowCallback>
 80023da:	6823      	ldr	r3, [r4, #0]
 80023dc:	f06f 0201 	mvn.w	r2, #1
 80023e0:	601a      	str	r2, [r3, #0]
 80023e2:	6823      	ldr	r3, [r4, #0]
 80023e4:	6819      	ldr	r1, [r3, #0]
 80023e6:	685a      	ldr	r2, [r3, #4]
 80023e8:	0689      	lsls	r1, r1, #26
 80023ea:	d50d      	bpl.n	8002408 <HAL_ADC_IRQHandler+0x126>
 80023ec:	0152      	lsls	r2, r2, #5
 80023ee:	d50b      	bpl.n	8002408 <HAL_ADC_IRQHandler+0x126>
 80023f0:	6c62      	ldr	r2, [r4, #68]	; 0x44
 80023f2:	f06f 0520 	mvn.w	r5, #32
 80023f6:	f042 0202 	orr.w	r2, r2, #2
 80023fa:	6462      	str	r2, [r4, #68]	; 0x44
 80023fc:	4620      	mov	r0, r4
 80023fe:	601d      	str	r5, [r3, #0]
 8002400:	f7ff ff6e 	bl	80022e0 <HAL_ADC_ErrorCallback>
 8002404:	6823      	ldr	r3, [r4, #0]
 8002406:	601d      	str	r5, [r3, #0]
 8002408:	bd38      	pop	{r3, r4, r5, pc}

0800240a <ADC_DMAError>:
 800240a:	6b80      	ldr	r0, [r0, #56]	; 0x38
 800240c:	b508      	push	{r3, lr}
 800240e:	2340      	movs	r3, #64	; 0x40
 8002410:	6403      	str	r3, [r0, #64]	; 0x40
 8002412:	6c43      	ldr	r3, [r0, #68]	; 0x44
 8002414:	f043 0304 	orr.w	r3, r3, #4
 8002418:	6443      	str	r3, [r0, #68]	; 0x44
 800241a:	f7ff ff61 	bl	80022e0 <HAL_ADC_ErrorCallback>
 800241e:	bd08      	pop	{r3, pc}

08002420 <ADC_DMAConvCplt>:
 8002420:	6b83      	ldr	r3, [r0, #56]	; 0x38
 8002422:	6c1a      	ldr	r2, [r3, #64]	; 0x40
 8002424:	f012 0f50 	tst.w	r2, #80	; 0x50
 8002428:	b510      	push	{r4, lr}
 800242a:	6c1a      	ldr	r2, [r3, #64]	; 0x40
 800242c:	d123      	bne.n	8002476 <ADC_DMAConvCplt+0x56>
 800242e:	f442 7200 	orr.w	r2, r2, #512	; 0x200
 8002432:	641a      	str	r2, [r3, #64]	; 0x40
 8002434:	681a      	ldr	r2, [r3, #0]
 8002436:	6891      	ldr	r1, [r2, #8]
 8002438:	f011 5f40 	tst.w	r1, #805306368	; 0x30000000
 800243c:	d117      	bne.n	800246e <ADC_DMAConvCplt+0x4e>
 800243e:	7e19      	ldrb	r1, [r3, #24]
 8002440:	b9a9      	cbnz	r1, 800246e <ADC_DMAConvCplt+0x4e>
 8002442:	6ad1      	ldr	r1, [r2, #44]	; 0x2c
 8002444:	f411 0f70 	tst.w	r1, #15728640	; 0xf00000
 8002448:	d002      	beq.n	8002450 <ADC_DMAConvCplt+0x30>
 800244a:	6891      	ldr	r1, [r2, #8]
 800244c:	0548      	lsls	r0, r1, #21
 800244e:	d40e      	bmi.n	800246e <ADC_DMAConvCplt+0x4e>
 8002450:	6851      	ldr	r1, [r2, #4]
 8002452:	f021 0120 	bic.w	r1, r1, #32
 8002456:	6051      	str	r1, [r2, #4]
 8002458:	6c1a      	ldr	r2, [r3, #64]	; 0x40
 800245a:	f422 7280 	bic.w	r2, r2, #256	; 0x100
 800245e:	641a      	str	r2, [r3, #64]	; 0x40
 8002460:	6c1a      	ldr	r2, [r3, #64]	; 0x40
 8002462:	04d1      	lsls	r1, r2, #19
 8002464:	bf5e      	ittt	pl
 8002466:	6c1a      	ldrpl	r2, [r3, #64]	; 0x40
 8002468:	f042 0201 	orrpl.w	r2, r2, #1
 800246c:	641a      	strpl	r2, [r3, #64]	; 0x40
 800246e:	4618      	mov	r0, r3
 8002470:	f7ff f882 	bl	8001578 <HAL_ADC_ConvCpltCallback>
 8002474:	bd10      	pop	{r4, pc}
 8002476:	06d2      	lsls	r2, r2, #27
 8002478:	d503      	bpl.n	8002482 <ADC_DMAConvCplt+0x62>
 800247a:	4618      	mov	r0, r3
 800247c:	f7ff ff30 	bl	80022e0 <HAL_ADC_ErrorCallback>
 8002480:	e7f8      	b.n	8002474 <ADC_DMAConvCplt+0x54>
 8002482:	6b9b      	ldr	r3, [r3, #56]	; 0x38
 8002484:	e8bd 4010 	ldmia.w	sp!, {r4, lr}
 8002488:	6cdb      	ldr	r3, [r3, #76]	; 0x4c
 800248a:	4718      	bx	r3

0800248c <HAL_ADC_ConfigChannel>:
 800248c:	b5f7      	push	{r0, r1, r2, r4, r5, r6, r7, lr}
 800248e:	2300      	movs	r3, #0
 8002490:	9301      	str	r3, [sp, #4]
 8002492:	f890 303c 	ldrb.w	r3, [r0, #60]	; 0x3c
 8002496:	2b01      	cmp	r3, #1
 8002498:	d07e      	beq.n	8002598 <HAL_ADC_ConfigChannel+0x10c>
 800249a:	680d      	ldr	r5, [r1, #0]
 800249c:	688e      	ldr	r6, [r1, #8]
 800249e:	2301      	movs	r3, #1
 80024a0:	2d09      	cmp	r5, #9
 80024a2:	f880 303c 	strb.w	r3, [r0, #60]	; 0x3c
 80024a6:	b2ac      	uxth	r4, r5
 80024a8:	6803      	ldr	r3, [r0, #0]
 80024aa:	d929      	bls.n	8002500 <HAL_ADC_ConfigChannel+0x74>
 80024ac:	eb04 0244 	add.w	r2, r4, r4, lsl #1
 80024b0:	68df      	ldr	r7, [r3, #12]
 80024b2:	3a1e      	subs	r2, #30
 80024b4:	f04f 0c07 	mov.w	ip, #7
 80024b8:	fa0c fc02 	lsl.w	ip, ip, r2
 80024bc:	ea27 070c 	bic.w	r7, r7, ip
 80024c0:	60df      	str	r7, [r3, #12]
 80024c2:	68df      	ldr	r7, [r3, #12]
 80024c4:	fa06 f202 	lsl.w	r2, r6, r2
 80024c8:	433a      	orrs	r2, r7
 80024ca:	60da      	str	r2, [r3, #12]
 80024cc:	6849      	ldr	r1, [r1, #4]
 80024ce:	2906      	cmp	r1, #6
 80024d0:	eb01 0281 	add.w	r2, r1, r1, lsl #2
 80024d4:	d824      	bhi.n	8002520 <HAL_ADC_ConfigChannel+0x94>
 80024d6:	6b59      	ldr	r1, [r3, #52]	; 0x34
 80024d8:	3a05      	subs	r2, #5
 80024da:	261f      	movs	r6, #31
 80024dc:	4096      	lsls	r6, r2
 80024de:	ea21 0106 	bic.w	r1, r1, r6
 80024e2:	6359      	str	r1, [r3, #52]	; 0x34
 80024e4:	6b59      	ldr	r1, [r3, #52]	; 0x34
 80024e6:	fa04 f202 	lsl.w	r2, r4, r2
 80024ea:	430a      	orrs	r2, r1
 80024ec:	635a      	str	r2, [r3, #52]	; 0x34
 80024ee:	4a2b      	ldr	r2, [pc, #172]	; (800259c <HAL_ADC_ConfigChannel+0x110>)
 80024f0:	4293      	cmp	r3, r2
 80024f2:	d031      	beq.n	8002558 <HAL_ADC_ConfigChannel+0xcc>
 80024f4:	2300      	movs	r3, #0
 80024f6:	f880 303c 	strb.w	r3, [r0, #60]	; 0x3c
 80024fa:	4618      	mov	r0, r3
 80024fc:	b003      	add	sp, #12
 80024fe:	bdf0      	pop	{r4, r5, r6, r7, pc}
 8002500:	691f      	ldr	r7, [r3, #16]
 8002502:	eb05 0245 	add.w	r2, r5, r5, lsl #1
 8002506:	f04f 0c07 	mov.w	ip, #7
 800250a:	fa0c fc02 	lsl.w	ip, ip, r2
 800250e:	ea27 070c 	bic.w	r7, r7, ip
 8002512:	611f      	str	r7, [r3, #16]
 8002514:	691f      	ldr	r7, [r3, #16]
 8002516:	fa06 f202 	lsl.w	r2, r6, r2
 800251a:	433a      	orrs	r2, r7
 800251c:	611a      	str	r2, [r3, #16]
 800251e:	e7d5      	b.n	80024cc <HAL_ADC_ConfigChannel+0x40>
 8002520:	290c      	cmp	r1, #12
 8002522:	f04f 011f 	mov.w	r1, #31
 8002526:	d80b      	bhi.n	8002540 <HAL_ADC_ConfigChannel+0xb4>
 8002528:	6b1e      	ldr	r6, [r3, #48]	; 0x30
 800252a:	3a23      	subs	r2, #35	; 0x23
 800252c:	4091      	lsls	r1, r2
 800252e:	ea26 0101 	bic.w	r1, r6, r1
 8002532:	6319      	str	r1, [r3, #48]	; 0x30
 8002534:	6b19      	ldr	r1, [r3, #48]	; 0x30
 8002536:	fa04 f202 	lsl.w	r2, r4, r2
 800253a:	430a      	orrs	r2, r1
 800253c:	631a      	str	r2, [r3, #48]	; 0x30
 800253e:	e7d6      	b.n	80024ee <HAL_ADC_ConfigChannel+0x62>
 8002540:	6ade      	ldr	r6, [r3, #44]	; 0x2c
 8002542:	3a41      	subs	r2, #65	; 0x41
 8002544:	4091      	lsls	r1, r2
 8002546:	ea26 0101 	bic.w	r1, r6, r1
 800254a:	62d9      	str	r1, [r3, #44]	; 0x2c
 800254c:	6ad9      	ldr	r1, [r3, #44]	; 0x2c
 800254e:	fa04 f202 	lsl.w	r2, r4, r2
 8002552:	430a      	orrs	r2, r1
 8002554:	62da      	str	r2, [r3, #44]	; 0x2c
 8002556:	e7ca      	b.n	80024ee <HAL_ADC_ConfigChannel+0x62>
 8002558:	2d12      	cmp	r5, #18
 800255a:	d104      	bne.n	8002566 <HAL_ADC_ConfigChannel+0xda>
 800255c:	4a10      	ldr	r2, [pc, #64]	; (80025a0 <HAL_ADC_ConfigChannel+0x114>)
 800255e:	6853      	ldr	r3, [r2, #4]
 8002560:	f443 0380 	orr.w	r3, r3, #4194304	; 0x400000
 8002564:	6053      	str	r3, [r2, #4]
 8002566:	f1a5 0310 	sub.w	r3, r5, #16
 800256a:	2b01      	cmp	r3, #1
 800256c:	d8c2      	bhi.n	80024f4 <HAL_ADC_ConfigChannel+0x68>
 800256e:	4a0c      	ldr	r2, [pc, #48]	; (80025a0 <HAL_ADC_ConfigChannel+0x114>)
 8002570:	6853      	ldr	r3, [r2, #4]
 8002572:	2d10      	cmp	r5, #16
 8002574:	f443 0300 	orr.w	r3, r3, #8388608	; 0x800000
 8002578:	6053      	str	r3, [r2, #4]
 800257a:	d1bb      	bne.n	80024f4 <HAL_ADC_ConfigChannel+0x68>
 800257c:	4b09      	ldr	r3, [pc, #36]	; (80025a4 <HAL_ADC_ConfigChannel+0x118>)
 800257e:	4a0a      	ldr	r2, [pc, #40]	; (80025a8 <HAL_ADC_ConfigChannel+0x11c>)
 8002580:	681b      	ldr	r3, [r3, #0]
 8002582:	fbb3 f2f2 	udiv	r2, r3, r2
 8002586:	230a      	movs	r3, #10
 8002588:	4353      	muls	r3, r2
 800258a:	9301      	str	r3, [sp, #4]
 800258c:	9b01      	ldr	r3, [sp, #4]
 800258e:	2b00      	cmp	r3, #0
 8002590:	d0b0      	beq.n	80024f4 <HAL_ADC_ConfigChannel+0x68>
 8002592:	9b01      	ldr	r3, [sp, #4]
 8002594:	3b01      	subs	r3, #1
 8002596:	e7f8      	b.n	800258a <HAL_ADC_ConfigChannel+0xfe>
 8002598:	2002      	movs	r0, #2
 800259a:	e7af      	b.n	80024fc <HAL_ADC_ConfigChannel+0x70>
 800259c:	40012000 	.word	0x40012000
 80025a0:	40012300 	.word	0x40012300
 80025a4:	20000020 	.word	0x20000020
 80025a8:	000f4240 	.word	0x000f4240

080025ac <HAL_ADCEx_InjectedConvCpltCallback>:
 80025ac:	4770      	bx	lr
	...

080025b0 <HAL_NVIC_SetPriorityGrouping>:
 80025b0:	4a07      	ldr	r2, [pc, #28]	; (80025d0 <HAL_NVIC_SetPriorityGrouping+0x20>)
 80025b2:	68d3      	ldr	r3, [r2, #12]
 80025b4:	f423 63e0 	bic.w	r3, r3, #1792	; 0x700
 80025b8:	041b      	lsls	r3, r3, #16
 80025ba:	0c1b      	lsrs	r3, r3, #16
 80025bc:	f043 63bf 	orr.w	r3, r3, #100139008	; 0x5f80000
 80025c0:	0200      	lsls	r0, r0, #8
 80025c2:	f443 3300 	orr.w	r3, r3, #131072	; 0x20000
 80025c6:	f400 60e0 	and.w	r0, r0, #1792	; 0x700
 80025ca:	4303      	orrs	r3, r0
 80025cc:	60d3      	str	r3, [r2, #12]
 80025ce:	4770      	bx	lr
 80025d0:	e000ed00 	.word	0xe000ed00

080025d4 <HAL_NVIC_SetPriority>:
 80025d4:	4b17      	ldr	r3, [pc, #92]	; (8002634 <HAL_NVIC_SetPriority+0x60>)
 80025d6:	b570      	push	{r4, r5, r6, lr}
 80025d8:	68dc      	ldr	r4, [r3, #12]
 80025da:	f3c4 2402 	ubfx	r4, r4, #8, #3
 80025de:	f1c4 0507 	rsb	r5, r4, #7
 80025e2:	2d04      	cmp	r5, #4
 80025e4:	f104 0304 	add.w	r3, r4, #4
 80025e8:	bf28      	it	cs
 80025ea:	2504      	movcs	r5, #4
 80025ec:	f04f 36ff 	mov.w	r6, #4294967295
 80025f0:	2b06      	cmp	r3, #6
 80025f2:	fa06 f305 	lsl.w	r3, r6, r5
 80025f6:	bf8c      	ite	hi
 80025f8:	3c03      	subhi	r4, #3
 80025fa:	2400      	movls	r4, #0
 80025fc:	ea21 0303 	bic.w	r3, r1, r3
 8002600:	40a3      	lsls	r3, r4
 8002602:	fa06 f404 	lsl.w	r4, r6, r4
 8002606:	ea22 0404 	bic.w	r4, r2, r4
 800260a:	2800      	cmp	r0, #0
 800260c:	ea43 0304 	orr.w	r3, r3, r4
 8002610:	bfa8      	it	ge
 8002612:	f100 4060 	addge.w	r0, r0, #3758096384	; 0xe0000000
 8002616:	ea4f 1303 	mov.w	r3, r3, lsl #4
 800261a:	bfbc      	itt	lt
 800261c:	f000 000f 	andlt.w	r0, r0, #15
 8002620:	4a05      	ldrlt	r2, [pc, #20]	; (8002638 <HAL_NVIC_SetPriority+0x64>)
 8002622:	b2db      	uxtb	r3, r3
 8002624:	bfaa      	itet	ge
 8002626:	f500 4061 	addge.w	r0, r0, #57600	; 0xe100
 800262a:	5413      	strblt	r3, [r2, r0]
 800262c:	f880 3300 	strbge.w	r3, [r0, #768]	; 0x300
 8002630:	bd70      	pop	{r4, r5, r6, pc}
 8002632:	bf00      	nop
 8002634:	e000ed00 	.word	0xe000ed00
 8002638:	e000ed14 	.word	0xe000ed14

0800263c <HAL_NVIC_EnableIRQ>:
 800263c:	2800      	cmp	r0, #0
 800263e:	db08      	blt.n	8002652 <HAL_NVIC_EnableIRQ+0x16>
 8002640:	0942      	lsrs	r2, r0, #5
 8002642:	2301      	movs	r3, #1
 8002644:	f000 001f 	and.w	r0, r0, #31
 8002648:	fa03 f000 	lsl.w	r0, r3, r0
 800264c:	4b01      	ldr	r3, [pc, #4]	; (8002654 <HAL_NVIC_EnableIRQ+0x18>)
 800264e:	f843 0022 	str.w	r0, [r3, r2, lsl #2]
 8002652:	4770      	bx	lr
 8002654:	e000e100 	.word	0xe000e100

08002658 <HAL_SYSTICK_Config>:
 8002658:	3801      	subs	r0, #1
 800265a:	f1b0 7f80 	cmp.w	r0, #16777216	; 0x1000000
 800265e:	d20a      	bcs.n	8002676 <HAL_SYSTICK_Config+0x1e>
 8002660:	4b06      	ldr	r3, [pc, #24]	; (800267c <HAL_SYSTICK_Config+0x24>)
 8002662:	4a07      	ldr	r2, [pc, #28]	; (8002680 <HAL_SYSTICK_Config+0x28>)
 8002664:	6058      	str	r0, [r3, #4]
 8002666:	21f0      	movs	r1, #240	; 0xf0
 8002668:	f882 1023 	strb.w	r1, [r2, #35]	; 0x23
 800266c:	2000      	movs	r0, #0
 800266e:	2207      	movs	r2, #7
 8002670:	6098      	str	r0, [r3, #8]
 8002672:	601a      	str	r2, [r3, #0]
 8002674:	4770      	bx	lr
 8002676:	2001      	movs	r0, #1
 8002678:	4770      	bx	lr
 800267a:	bf00      	nop
 800267c:	e000e010 	.word	0xe000e010
 8002680:	e000ed00 	.word	0xe000ed00

08002684 <DMA_CalcBaseAndBitshift>:
 8002684:	6803      	ldr	r3, [r0, #0]
 8002686:	b2da      	uxtb	r2, r3
 8002688:	f423 737f 	bic.w	r3, r3, #1020	; 0x3fc
 800268c:	f023 0303 	bic.w	r3, r3, #3
 8002690:	2118      	movs	r1, #24
 8002692:	3a10      	subs	r2, #16
 8002694:	fbb2 f2f1 	udiv	r2, r2, r1
 8002698:	4904      	ldr	r1, [pc, #16]	; (80026ac <DMA_CalcBaseAndBitshift+0x28>)
 800269a:	2a03      	cmp	r2, #3
 800269c:	bf88      	it	hi
 800269e:	3304      	addhi	r3, #4
 80026a0:	5c89      	ldrb	r1, [r1, r2]
 80026a2:	6583      	str	r3, [r0, #88]	; 0x58
 80026a4:	65c1      	str	r1, [r0, #92]	; 0x5c
 80026a6:	6d80      	ldr	r0, [r0, #88]	; 0x58
 80026a8:	4770      	bx	lr
 80026aa:	bf00      	nop
 80026ac:	080061bc 	.word	0x080061bc

080026b0 <HAL_DMA_Init>:
 80026b0:	b570      	push	{r4, r5, r6, lr}
 80026b2:	4604      	mov	r4, r0
 80026b4:	f7ff fca0 	bl	8001ff8 <HAL_GetTick>
 80026b8:	4605      	mov	r5, r0
 80026ba:	2c00      	cmp	r4, #0
 80026bc:	d071      	beq.n	80027a2 <HAL_DMA_Init+0xf2>
 80026be:	2300      	movs	r3, #0
 80026c0:	f884 3034 	strb.w	r3, [r4, #52]	; 0x34
 80026c4:	6822      	ldr	r2, [r4, #0]
 80026c6:	2302      	movs	r3, #2
 80026c8:	f884 3035 	strb.w	r3, [r4, #53]	; 0x35
 80026cc:	6813      	ldr	r3, [r2, #0]
 80026ce:	f023 0301 	bic.w	r3, r3, #1
 80026d2:	6013      	str	r3, [r2, #0]
 80026d4:	6821      	ldr	r1, [r4, #0]
 80026d6:	680b      	ldr	r3, [r1, #0]
 80026d8:	07d8      	lsls	r0, r3, #31
 80026da:	d43c      	bmi.n	8002756 <HAL_DMA_Init+0xa6>
 80026dc:	680b      	ldr	r3, [r1, #0]
 80026de:	4d32      	ldr	r5, [pc, #200]	; (80027a8 <HAL_DMA_Init+0xf8>)
 80026e0:	69a0      	ldr	r0, [r4, #24]
 80026e2:	401d      	ands	r5, r3
 80026e4:	e9d4 2301 	ldrd	r2, r3, [r4, #4]
 80026e8:	4313      	orrs	r3, r2
 80026ea:	68e2      	ldr	r2, [r4, #12]
 80026ec:	4313      	orrs	r3, r2
 80026ee:	6922      	ldr	r2, [r4, #16]
 80026f0:	4313      	orrs	r3, r2
 80026f2:	6962      	ldr	r2, [r4, #20]
 80026f4:	4313      	orrs	r3, r2
 80026f6:	69e2      	ldr	r2, [r4, #28]
 80026f8:	4303      	orrs	r3, r0
 80026fa:	4313      	orrs	r3, r2
 80026fc:	6a22      	ldr	r2, [r4, #32]
 80026fe:	4313      	orrs	r3, r2
 8002700:	6a62      	ldr	r2, [r4, #36]	; 0x24
 8002702:	2a04      	cmp	r2, #4
 8002704:	ea43 0305 	orr.w	r3, r3, r5
 8002708:	bf02      	ittt	eq
 800270a:	e9d4 560b 	ldrdeq	r5, r6, [r4, #44]	; 0x2c
 800270e:	4335      	orreq	r5, r6
 8002710:	432b      	orreq	r3, r5
 8002712:	600b      	str	r3, [r1, #0]
 8002714:	694b      	ldr	r3, [r1, #20]
 8002716:	2a04      	cmp	r2, #4
 8002718:	f023 0307 	bic.w	r3, r3, #7
 800271c:	ea43 0302 	orr.w	r3, r3, r2
 8002720:	d10b      	bne.n	800273a <HAL_DMA_Init+0x8a>
 8002722:	6aa2      	ldr	r2, [r4, #40]	; 0x28
 8002724:	6ae5      	ldr	r5, [r4, #44]	; 0x2c
 8002726:	4313      	orrs	r3, r2
 8002728:	b13d      	cbz	r5, 800273a <HAL_DMA_Init+0x8a>
 800272a:	b9f8      	cbnz	r0, 800276c <HAL_DMA_Init+0xbc>
 800272c:	2a01      	cmp	r2, #1
 800272e:	d02d      	beq.n	800278c <HAL_DMA_Init+0xdc>
 8002730:	d301      	bcc.n	8002736 <HAL_DMA_Init+0x86>
 8002732:	2a02      	cmp	r2, #2
 8002734:	d101      	bne.n	800273a <HAL_DMA_Init+0x8a>
 8002736:	01ea      	lsls	r2, r5, #7
 8002738:	d42b      	bmi.n	8002792 <HAL_DMA_Init+0xe2>
 800273a:	614b      	str	r3, [r1, #20]
 800273c:	4620      	mov	r0, r4
 800273e:	f7ff ffa1 	bl	8002684 <DMA_CalcBaseAndBitshift>
 8002742:	6de2      	ldr	r2, [r4, #92]	; 0x5c
 8002744:	233f      	movs	r3, #63	; 0x3f
 8002746:	4093      	lsls	r3, r2
 8002748:	6083      	str	r3, [r0, #8]
 800274a:	2000      	movs	r0, #0
 800274c:	2301      	movs	r3, #1
 800274e:	6560      	str	r0, [r4, #84]	; 0x54
 8002750:	f884 3035 	strb.w	r3, [r4, #53]	; 0x35
 8002754:	e009      	b.n	800276a <HAL_DMA_Init+0xba>
 8002756:	f7ff fc4f 	bl	8001ff8 <HAL_GetTick>
 800275a:	1b40      	subs	r0, r0, r5
 800275c:	2805      	cmp	r0, #5
 800275e:	d9b9      	bls.n	80026d4 <HAL_DMA_Init+0x24>
 8002760:	2320      	movs	r3, #32
 8002762:	6563      	str	r3, [r4, #84]	; 0x54
 8002764:	2003      	movs	r0, #3
 8002766:	f884 0035 	strb.w	r0, [r4, #53]	; 0x35
 800276a:	bd70      	pop	{r4, r5, r6, pc}
 800276c:	f5b0 5f00 	cmp.w	r0, #8192	; 0x2000
 8002770:	d113      	bne.n	800279a <HAL_DMA_Init+0xea>
 8002772:	2a03      	cmp	r2, #3
 8002774:	d8e1      	bhi.n	800273a <HAL_DMA_Init+0x8a>
 8002776:	a001      	add	r0, pc, #4	; (adr r0, 800277c <HAL_DMA_Init+0xcc>)
 8002778:	f850 f022 	ldr.w	pc, [r0, r2, lsl #2]
 800277c:	08002793 	.word	0x08002793
 8002780:	08002737 	.word	0x08002737
 8002784:	08002793 	.word	0x08002793
 8002788:	0800278d 	.word	0x0800278d
 800278c:	f1b5 7fc0 	cmp.w	r5, #25165824	; 0x1800000
 8002790:	d1d3      	bne.n	800273a <HAL_DMA_Init+0x8a>
 8002792:	2340      	movs	r3, #64	; 0x40
 8002794:	6563      	str	r3, [r4, #84]	; 0x54
 8002796:	2001      	movs	r0, #1
 8002798:	e7e5      	b.n	8002766 <HAL_DMA_Init+0xb6>
 800279a:	2a02      	cmp	r2, #2
 800279c:	d9f9      	bls.n	8002792 <HAL_DMA_Init+0xe2>
 800279e:	2a03      	cmp	r2, #3
 80027a0:	e7c8      	b.n	8002734 <HAL_DMA_Init+0x84>
 80027a2:	2001      	movs	r0, #1
 80027a4:	e7e1      	b.n	800276a <HAL_DMA_Init+0xba>
 80027a6:	bf00      	nop
 80027a8:	f010803f 	.word	0xf010803f

080027ac <HAL_DMA_Start_IT>:
 80027ac:	b570      	push	{r4, r5, r6, lr}
 80027ae:	f890 4034 	ldrb.w	r4, [r0, #52]	; 0x34
 80027b2:	2c01      	cmp	r4, #1
 80027b4:	d032      	beq.n	800281c <HAL_DMA_Start_IT+0x70>
 80027b6:	2401      	movs	r4, #1
 80027b8:	f880 4034 	strb.w	r4, [r0, #52]	; 0x34
 80027bc:	f890 4035 	ldrb.w	r4, [r0, #53]	; 0x35
 80027c0:	6d86      	ldr	r6, [r0, #88]	; 0x58
 80027c2:	2c01      	cmp	r4, #1
 80027c4:	f04f 0500 	mov.w	r5, #0
 80027c8:	f04f 0402 	mov.w	r4, #2
 80027cc:	d124      	bne.n	8002818 <HAL_DMA_Start_IT+0x6c>
 80027ce:	f880 4035 	strb.w	r4, [r0, #53]	; 0x35
 80027d2:	6804      	ldr	r4, [r0, #0]
 80027d4:	6545      	str	r5, [r0, #84]	; 0x54
 80027d6:	6825      	ldr	r5, [r4, #0]
 80027d8:	f425 2580 	bic.w	r5, r5, #262144	; 0x40000
 80027dc:	6025      	str	r5, [r4, #0]
 80027de:	6063      	str	r3, [r4, #4]
 80027e0:	6883      	ldr	r3, [r0, #8]
 80027e2:	2b40      	cmp	r3, #64	; 0x40
 80027e4:	bf0e      	itee	eq
 80027e6:	60a2      	streq	r2, [r4, #8]
 80027e8:	60a1      	strne	r1, [r4, #8]
 80027ea:	60e2      	strne	r2, [r4, #12]
 80027ec:	6dc2      	ldr	r2, [r0, #92]	; 0x5c
 80027ee:	bf08      	it	eq
 80027f0:	60e1      	streq	r1, [r4, #12]
 80027f2:	233f      	movs	r3, #63	; 0x3f
 80027f4:	4093      	lsls	r3, r2
 80027f6:	60b3      	str	r3, [r6, #8]
 80027f8:	6823      	ldr	r3, [r4, #0]
 80027fa:	f043 0316 	orr.w	r3, r3, #22
 80027fe:	6023      	str	r3, [r4, #0]
 8002800:	6c03      	ldr	r3, [r0, #64]	; 0x40
 8002802:	b11b      	cbz	r3, 800280c <HAL_DMA_Start_IT+0x60>
 8002804:	6823      	ldr	r3, [r4, #0]
 8002806:	f043 0308 	orr.w	r3, r3, #8
 800280a:	6023      	str	r3, [r4, #0]
 800280c:	6823      	ldr	r3, [r4, #0]
 800280e:	f043 0301 	orr.w	r3, r3, #1
 8002812:	6023      	str	r3, [r4, #0]
 8002814:	2000      	movs	r0, #0
 8002816:	bd70      	pop	{r4, r5, r6, pc}
 8002818:	f880 5034 	strb.w	r5, [r0, #52]	; 0x34
 800281c:	2002      	movs	r0, #2
 800281e:	e7fa      	b.n	8002816 <HAL_DMA_Start_IT+0x6a>

08002820 <HAL_DMA_Abort>:
 8002820:	b570      	push	{r4, r5, r6, lr}
 8002822:	4604      	mov	r4, r0
 8002824:	6d85      	ldr	r5, [r0, #88]	; 0x58
 8002826:	f7ff fbe7 	bl	8001ff8 <HAL_GetTick>
 800282a:	f894 3035 	ldrb.w	r3, [r4, #53]	; 0x35
 800282e:	2b02      	cmp	r3, #2
 8002830:	4606      	mov	r6, r0
 8002832:	d006      	beq.n	8002842 <HAL_DMA_Abort+0x22>
 8002834:	2380      	movs	r3, #128	; 0x80
 8002836:	6563      	str	r3, [r4, #84]	; 0x54
 8002838:	2300      	movs	r3, #0
 800283a:	f884 3034 	strb.w	r3, [r4, #52]	; 0x34
 800283e:	2001      	movs	r0, #1
 8002840:	bd70      	pop	{r4, r5, r6, pc}
 8002842:	6823      	ldr	r3, [r4, #0]
 8002844:	681a      	ldr	r2, [r3, #0]
 8002846:	f022 0216 	bic.w	r2, r2, #22
 800284a:	601a      	str	r2, [r3, #0]
 800284c:	695a      	ldr	r2, [r3, #20]
 800284e:	f022 0280 	bic.w	r2, r2, #128	; 0x80
 8002852:	615a      	str	r2, [r3, #20]
 8002854:	6c22      	ldr	r2, [r4, #64]	; 0x40
 8002856:	b90a      	cbnz	r2, 800285c <HAL_DMA_Abort+0x3c>
 8002858:	6ca2      	ldr	r2, [r4, #72]	; 0x48
 800285a:	b11a      	cbz	r2, 8002864 <HAL_DMA_Abort+0x44>
 800285c:	681a      	ldr	r2, [r3, #0]
 800285e:	f022 0208 	bic.w	r2, r2, #8
 8002862:	601a      	str	r2, [r3, #0]
 8002864:	681a      	ldr	r2, [r3, #0]
 8002866:	f022 0201 	bic.w	r2, r2, #1
 800286a:	601a      	str	r2, [r3, #0]
 800286c:	6823      	ldr	r3, [r4, #0]
 800286e:	6818      	ldr	r0, [r3, #0]
 8002870:	f010 0001 	ands.w	r0, r0, #1
 8002874:	d109      	bne.n	800288a <HAL_DMA_Abort+0x6a>
 8002876:	6de2      	ldr	r2, [r4, #92]	; 0x5c
 8002878:	233f      	movs	r3, #63	; 0x3f
 800287a:	4093      	lsls	r3, r2
 800287c:	60ab      	str	r3, [r5, #8]
 800287e:	2301      	movs	r3, #1
 8002880:	f884 0034 	strb.w	r0, [r4, #52]	; 0x34
 8002884:	f884 3035 	strb.w	r3, [r4, #53]	; 0x35
 8002888:	e7da      	b.n	8002840 <HAL_DMA_Abort+0x20>
 800288a:	f7ff fbb5 	bl	8001ff8 <HAL_GetTick>
 800288e:	1b80      	subs	r0, r0, r6
 8002890:	2805      	cmp	r0, #5
 8002892:	d9eb      	bls.n	800286c <HAL_DMA_Abort+0x4c>
 8002894:	2320      	movs	r3, #32
 8002896:	6563      	str	r3, [r4, #84]	; 0x54
 8002898:	2003      	movs	r0, #3
 800289a:	2300      	movs	r3, #0
 800289c:	f884 3034 	strb.w	r3, [r4, #52]	; 0x34
 80028a0:	f884 0035 	strb.w	r0, [r4, #53]	; 0x35
 80028a4:	e7cc      	b.n	8002840 <HAL_DMA_Abort+0x20>

080028a6 <HAL_DMA_Abort_IT>:
 80028a6:	f890 3035 	ldrb.w	r3, [r0, #53]	; 0x35
 80028aa:	2b02      	cmp	r3, #2
 80028ac:	d003      	beq.n	80028b6 <HAL_DMA_Abort_IT+0x10>
 80028ae:	2380      	movs	r3, #128	; 0x80
 80028b0:	6543      	str	r3, [r0, #84]	; 0x54
 80028b2:	2001      	movs	r0, #1
 80028b4:	4770      	bx	lr
 80028b6:	6802      	ldr	r2, [r0, #0]
 80028b8:	2305      	movs	r3, #5
 80028ba:	f880 3035 	strb.w	r3, [r0, #53]	; 0x35
 80028be:	6813      	ldr	r3, [r2, #0]
 80028c0:	f023 0301 	bic.w	r3, r3, #1
 80028c4:	6013      	str	r3, [r2, #0]
 80028c6:	2000      	movs	r0, #0
 80028c8:	4770      	bx	lr
	...

080028cc <HAL_DMA_IRQHandler>:
 80028cc:	b5f7      	push	{r0, r1, r2, r4, r5, r6, r7, lr}
 80028ce:	2300      	movs	r3, #0
 80028d0:	9301      	str	r3, [sp, #4]
 80028d2:	4b5c      	ldr	r3, [pc, #368]	; (8002a44 <HAL_DMA_IRQHandler+0x178>)
 80028d4:	6d85      	ldr	r5, [r0, #88]	; 0x58
 80028d6:	681f      	ldr	r7, [r3, #0]
 80028d8:	6dc3      	ldr	r3, [r0, #92]	; 0x5c
 80028da:	682e      	ldr	r6, [r5, #0]
 80028dc:	2208      	movs	r2, #8
 80028de:	409a      	lsls	r2, r3
 80028e0:	4232      	tst	r2, r6
 80028e2:	4604      	mov	r4, r0
 80028e4:	d00c      	beq.n	8002900 <HAL_DMA_IRQHandler+0x34>
 80028e6:	6801      	ldr	r1, [r0, #0]
 80028e8:	6808      	ldr	r0, [r1, #0]
 80028ea:	0740      	lsls	r0, r0, #29
 80028ec:	d508      	bpl.n	8002900 <HAL_DMA_IRQHandler+0x34>
 80028ee:	6808      	ldr	r0, [r1, #0]
 80028f0:	f020 0004 	bic.w	r0, r0, #4
 80028f4:	6008      	str	r0, [r1, #0]
 80028f6:	60aa      	str	r2, [r5, #8]
 80028f8:	6d62      	ldr	r2, [r4, #84]	; 0x54
 80028fa:	f042 0201 	orr.w	r2, r2, #1
 80028fe:	6562      	str	r2, [r4, #84]	; 0x54
 8002900:	2201      	movs	r2, #1
 8002902:	409a      	lsls	r2, r3
 8002904:	4232      	tst	r2, r6
 8002906:	d008      	beq.n	800291a <HAL_DMA_IRQHandler+0x4e>
 8002908:	6821      	ldr	r1, [r4, #0]
 800290a:	6949      	ldr	r1, [r1, #20]
 800290c:	0609      	lsls	r1, r1, #24
 800290e:	bf41      	itttt	mi
 8002910:	60aa      	strmi	r2, [r5, #8]
 8002912:	6d62      	ldrmi	r2, [r4, #84]	; 0x54
 8002914:	f042 0202 	orrmi.w	r2, r2, #2
 8002918:	6562      	strmi	r2, [r4, #84]	; 0x54
 800291a:	2204      	movs	r2, #4
 800291c:	409a      	lsls	r2, r3
 800291e:	4232      	tst	r2, r6
 8002920:	d008      	beq.n	8002934 <HAL_DMA_IRQHandler+0x68>
 8002922:	6821      	ldr	r1, [r4, #0]
 8002924:	6809      	ldr	r1, [r1, #0]
 8002926:	0788      	lsls	r0, r1, #30
 8002928:	bf41      	itttt	mi
 800292a:	60aa      	strmi	r2, [r5, #8]
 800292c:	6d62      	ldrmi	r2, [r4, #84]	; 0x54
 800292e:	f042 0204 	orrmi.w	r2, r2, #4
 8002932:	6562      	strmi	r2, [r4, #84]	; 0x54
 8002934:	2210      	movs	r2, #16
 8002936:	409a      	lsls	r2, r3
 8002938:	4232      	tst	r2, r6
 800293a:	d010      	beq.n	800295e <HAL_DMA_IRQHandler+0x92>
 800293c:	6823      	ldr	r3, [r4, #0]
 800293e:	6819      	ldr	r1, [r3, #0]
 8002940:	0709      	lsls	r1, r1, #28
 8002942:	d50c      	bpl.n	800295e <HAL_DMA_IRQHandler+0x92>
 8002944:	60aa      	str	r2, [r5, #8]
 8002946:	681a      	ldr	r2, [r3, #0]
 8002948:	0350      	lsls	r0, r2, #13
 800294a:	d537      	bpl.n	80029bc <HAL_DMA_IRQHandler+0xf0>
 800294c:	681b      	ldr	r3, [r3, #0]
 800294e:	0319      	lsls	r1, r3, #12
 8002950:	d401      	bmi.n	8002956 <HAL_DMA_IRQHandler+0x8a>
 8002952:	6c23      	ldr	r3, [r4, #64]	; 0x40
 8002954:	e000      	b.n	8002958 <HAL_DMA_IRQHandler+0x8c>
 8002956:	6ca3      	ldr	r3, [r4, #72]	; 0x48
 8002958:	b10b      	cbz	r3, 800295e <HAL_DMA_IRQHandler+0x92>
 800295a:	4620      	mov	r0, r4
 800295c:	4798      	blx	r3
 800295e:	6de1      	ldr	r1, [r4, #92]	; 0x5c
 8002960:	2220      	movs	r2, #32
 8002962:	408a      	lsls	r2, r1
 8002964:	4232      	tst	r2, r6
 8002966:	d03a      	beq.n	80029de <HAL_DMA_IRQHandler+0x112>
 8002968:	6823      	ldr	r3, [r4, #0]
 800296a:	6818      	ldr	r0, [r3, #0]
 800296c:	06c6      	lsls	r6, r0, #27
 800296e:	d536      	bpl.n	80029de <HAL_DMA_IRQHandler+0x112>
 8002970:	60aa      	str	r2, [r5, #8]
 8002972:	f894 2035 	ldrb.w	r2, [r4, #53]	; 0x35
 8002976:	2a05      	cmp	r2, #5
 8002978:	681a      	ldr	r2, [r3, #0]
 800297a:	d127      	bne.n	80029cc <HAL_DMA_IRQHandler+0x100>
 800297c:	f022 0216 	bic.w	r2, r2, #22
 8002980:	601a      	str	r2, [r3, #0]
 8002982:	695a      	ldr	r2, [r3, #20]
 8002984:	f022 0280 	bic.w	r2, r2, #128	; 0x80
 8002988:	615a      	str	r2, [r3, #20]
 800298a:	6c22      	ldr	r2, [r4, #64]	; 0x40
 800298c:	b90a      	cbnz	r2, 8002992 <HAL_DMA_IRQHandler+0xc6>
 800298e:	6ca2      	ldr	r2, [r4, #72]	; 0x48
 8002990:	b11a      	cbz	r2, 800299a <HAL_DMA_IRQHandler+0xce>
 8002992:	681a      	ldr	r2, [r3, #0]
 8002994:	f022 0208 	bic.w	r2, r2, #8
 8002998:	601a      	str	r2, [r3, #0]
 800299a:	233f      	movs	r3, #63	; 0x3f
 800299c:	408b      	lsls	r3, r1
 800299e:	60ab      	str	r3, [r5, #8]
 80029a0:	2300      	movs	r3, #0
 80029a2:	f884 3034 	strb.w	r3, [r4, #52]	; 0x34
 80029a6:	2301      	movs	r3, #1
 80029a8:	f884 3035 	strb.w	r3, [r4, #53]	; 0x35
 80029ac:	6d23      	ldr	r3, [r4, #80]	; 0x50
 80029ae:	2b00      	cmp	r3, #0
 80029b0:	d045      	beq.n	8002a3e <HAL_DMA_IRQHandler+0x172>
 80029b2:	4620      	mov	r0, r4
 80029b4:	b003      	add	sp, #12
 80029b6:	e8bd 40f0 	ldmia.w	sp!, {r4, r5, r6, r7, lr}
 80029ba:	4718      	bx	r3
 80029bc:	681a      	ldr	r2, [r3, #0]
 80029be:	05d2      	lsls	r2, r2, #23
 80029c0:	bf5e      	ittt	pl
 80029c2:	681a      	ldrpl	r2, [r3, #0]
 80029c4:	f022 0208 	bicpl.w	r2, r2, #8
 80029c8:	601a      	strpl	r2, [r3, #0]
 80029ca:	e7c2      	b.n	8002952 <HAL_DMA_IRQHandler+0x86>
 80029cc:	0350      	lsls	r0, r2, #13
 80029ce:	d527      	bpl.n	8002a20 <HAL_DMA_IRQHandler+0x154>
 80029d0:	681b      	ldr	r3, [r3, #0]
 80029d2:	0319      	lsls	r1, r3, #12
 80029d4:	d431      	bmi.n	8002a3a <HAL_DMA_IRQHandler+0x16e>
 80029d6:	6c63      	ldr	r3, [r4, #68]	; 0x44
 80029d8:	b10b      	cbz	r3, 80029de <HAL_DMA_IRQHandler+0x112>
 80029da:	4620      	mov	r0, r4
 80029dc:	4798      	blx	r3
 80029de:	6d63      	ldr	r3, [r4, #84]	; 0x54
 80029e0:	b36b      	cbz	r3, 8002a3e <HAL_DMA_IRQHandler+0x172>
 80029e2:	6d63      	ldr	r3, [r4, #84]	; 0x54
 80029e4:	07da      	lsls	r2, r3, #31
 80029e6:	d519      	bpl.n	8002a1c <HAL_DMA_IRQHandler+0x150>
 80029e8:	2305      	movs	r3, #5
 80029ea:	6822      	ldr	r2, [r4, #0]
 80029ec:	f884 3035 	strb.w	r3, [r4, #53]	; 0x35
 80029f0:	6813      	ldr	r3, [r2, #0]
 80029f2:	f023 0301 	bic.w	r3, r3, #1
 80029f6:	6013      	str	r3, [r2, #0]
 80029f8:	f44f 5316 	mov.w	r3, #9600	; 0x2580
 80029fc:	fbb7 f7f3 	udiv	r7, r7, r3
 8002a00:	9b01      	ldr	r3, [sp, #4]
 8002a02:	3301      	adds	r3, #1
 8002a04:	42bb      	cmp	r3, r7
 8002a06:	9301      	str	r3, [sp, #4]
 8002a08:	d802      	bhi.n	8002a10 <HAL_DMA_IRQHandler+0x144>
 8002a0a:	6813      	ldr	r3, [r2, #0]
 8002a0c:	07db      	lsls	r3, r3, #31
 8002a0e:	d4f7      	bmi.n	8002a00 <HAL_DMA_IRQHandler+0x134>
 8002a10:	2300      	movs	r3, #0
 8002a12:	f884 3034 	strb.w	r3, [r4, #52]	; 0x34
 8002a16:	2301      	movs	r3, #1
 8002a18:	f884 3035 	strb.w	r3, [r4, #53]	; 0x35
 8002a1c:	6ce3      	ldr	r3, [r4, #76]	; 0x4c
 8002a1e:	e7c6      	b.n	80029ae <HAL_DMA_IRQHandler+0xe2>
 8002a20:	681a      	ldr	r2, [r3, #0]
 8002a22:	f412 7280 	ands.w	r2, r2, #256	; 0x100
 8002a26:	d108      	bne.n	8002a3a <HAL_DMA_IRQHandler+0x16e>
 8002a28:	6819      	ldr	r1, [r3, #0]
 8002a2a:	f021 0110 	bic.w	r1, r1, #16
 8002a2e:	6019      	str	r1, [r3, #0]
 8002a30:	2301      	movs	r3, #1
 8002a32:	f884 2034 	strb.w	r2, [r4, #52]	; 0x34
 8002a36:	f884 3035 	strb.w	r3, [r4, #53]	; 0x35
 8002a3a:	6be3      	ldr	r3, [r4, #60]	; 0x3c
 8002a3c:	e7cc      	b.n	80029d8 <HAL_DMA_IRQHandler+0x10c>
 8002a3e:	b003      	add	sp, #12
 8002a40:	bdf0      	pop	{r4, r5, r6, r7, pc}
 8002a42:	bf00      	nop
 8002a44:	20000020 	.word	0x20000020

08002a48 <HAL_DMA_GetState>:
 8002a48:	f890 0035 	ldrb.w	r0, [r0, #53]	; 0x35
 8002a4c:	4770      	bx	lr

08002a4e <HAL_DMA_GetError>:
 8002a4e:	6d40      	ldr	r0, [r0, #84]	; 0x54
 8002a50:	4770      	bx	lr
	...

08002a54 <HAL_GPIO_Init>:
 8002a54:	e92d 4ff0 	stmdb	sp!, {r4, r5, r6, r7, r8, r9, sl, fp, lr}
 8002a58:	b085      	sub	sp, #20
 8002a5a:	680b      	ldr	r3, [r1, #0]
 8002a5c:	f8df 818c 	ldr.w	r8, [pc, #396]	; 8002bec <HAL_GPIO_Init+0x198>
 8002a60:	4a60      	ldr	r2, [pc, #384]	; (8002be4 <HAL_GPIO_Init+0x190>)
 8002a62:	9301      	str	r3, [sp, #4]
 8002a64:	f04f 0901 	mov.w	r9, #1
 8002a68:	2300      	movs	r3, #0
 8002a6a:	9d01      	ldr	r5, [sp, #4]
 8002a6c:	fa09 f403 	lsl.w	r4, r9, r3
 8002a70:	4025      	ands	r5, r4
 8002a72:	42ac      	cmp	r4, r5
 8002a74:	f040 80a6 	bne.w	8002bc4 <HAL_GPIO_Init+0x170>
 8002a78:	684c      	ldr	r4, [r1, #4]
 8002a7a:	f024 0c10 	bic.w	ip, r4, #16
 8002a7e:	ea4f 0e43 	mov.w	lr, r3, lsl #1
 8002a82:	2603      	movs	r6, #3
 8002a84:	f10c 37ff 	add.w	r7, ip, #4294967295
 8002a88:	fa06 f60e 	lsl.w	r6, r6, lr
 8002a8c:	2f01      	cmp	r7, #1
 8002a8e:	ea6f 0606 	mvn.w	r6, r6
 8002a92:	d811      	bhi.n	8002ab8 <HAL_GPIO_Init+0x64>
 8002a94:	6887      	ldr	r7, [r0, #8]
 8002a96:	ea07 0a06 	and.w	sl, r7, r6
 8002a9a:	68cf      	ldr	r7, [r1, #12]
 8002a9c:	fa07 f70e 	lsl.w	r7, r7, lr
 8002aa0:	ea47 070a 	orr.w	r7, r7, sl
 8002aa4:	6087      	str	r7, [r0, #8]
 8002aa6:	6847      	ldr	r7, [r0, #4]
 8002aa8:	ea27 0a05 	bic.w	sl, r7, r5
 8002aac:	f3c4 1700 	ubfx	r7, r4, #4, #1
 8002ab0:	409f      	lsls	r7, r3
 8002ab2:	ea47 070a 	orr.w	r7, r7, sl
 8002ab6:	6047      	str	r7, [r0, #4]
 8002ab8:	68c7      	ldr	r7, [r0, #12]
 8002aba:	ea07 0a06 	and.w	sl, r7, r6
 8002abe:	688f      	ldr	r7, [r1, #8]
 8002ac0:	fa07 f70e 	lsl.w	r7, r7, lr
 8002ac4:	ea47 070a 	orr.w	r7, r7, sl
 8002ac8:	f1bc 0f02 	cmp.w	ip, #2
 8002acc:	60c7      	str	r7, [r0, #12]
 8002ace:	d116      	bne.n	8002afe <HAL_GPIO_Init+0xaa>
 8002ad0:	ea4f 0ad3 	mov.w	sl, r3, lsr #3
 8002ad4:	eb00 0a8a 	add.w	sl, r0, sl, lsl #2
 8002ad8:	f003 0b07 	and.w	fp, r3, #7
 8002adc:	f8da 7020 	ldr.w	r7, [sl, #32]
 8002ae0:	ea4f 0b8b 	mov.w	fp, fp, lsl #2
 8002ae4:	f04f 0c0f 	mov.w	ip, #15
 8002ae8:	fa0c fc0b 	lsl.w	ip, ip, fp
 8002aec:	ea27 0c0c 	bic.w	ip, r7, ip
 8002af0:	690f      	ldr	r7, [r1, #16]
 8002af2:	fa07 f70b 	lsl.w	r7, r7, fp
 8002af6:	ea47 070c 	orr.w	r7, r7, ip
 8002afa:	f8ca 7020 	str.w	r7, [sl, #32]
 8002afe:	6807      	ldr	r7, [r0, #0]
 8002b00:	403e      	ands	r6, r7
 8002b02:	f004 0703 	and.w	r7, r4, #3
 8002b06:	fa07 fe0e 	lsl.w	lr, r7, lr
 8002b0a:	ea4e 0606 	orr.w	r6, lr, r6
 8002b0e:	6006      	str	r6, [r0, #0]
 8002b10:	00e6      	lsls	r6, r4, #3
 8002b12:	d557      	bpl.n	8002bc4 <HAL_GPIO_Init+0x170>
 8002b14:	f04f 0b00 	mov.w	fp, #0
 8002b18:	f8cd b00c 	str.w	fp, [sp, #12]
 8002b1c:	f8d8 7044 	ldr.w	r7, [r8, #68]	; 0x44
 8002b20:	4e31      	ldr	r6, [pc, #196]	; (8002be8 <HAL_GPIO_Init+0x194>)
 8002b22:	f447 4780 	orr.w	r7, r7, #16384	; 0x4000
 8002b26:	f8c8 7044 	str.w	r7, [r8, #68]	; 0x44
 8002b2a:	f8d8 7044 	ldr.w	r7, [r8, #68]	; 0x44
 8002b2e:	f407 4780 	and.w	r7, r7, #16384	; 0x4000
 8002b32:	9703      	str	r7, [sp, #12]
 8002b34:	9f03      	ldr	r7, [sp, #12]
 8002b36:	f023 0703 	bic.w	r7, r3, #3
 8002b3a:	f107 4780 	add.w	r7, r7, #1073741824	; 0x40000000
 8002b3e:	f507 379c 	add.w	r7, r7, #79872	; 0x13800
 8002b42:	f003 0e03 	and.w	lr, r3, #3
 8002b46:	f8d7 a008 	ldr.w	sl, [r7, #8]
 8002b4a:	ea4f 0e8e 	mov.w	lr, lr, lsl #2
 8002b4e:	f04f 0c0f 	mov.w	ip, #15
 8002b52:	fa0c fc0e 	lsl.w	ip, ip, lr
 8002b56:	42b0      	cmp	r0, r6
 8002b58:	ea2a 0c0c 	bic.w	ip, sl, ip
 8002b5c:	d039      	beq.n	8002bd2 <HAL_GPIO_Init+0x17e>
 8002b5e:	f506 6680 	add.w	r6, r6, #1024	; 0x400
 8002b62:	42b0      	cmp	r0, r6
 8002b64:	d037      	beq.n	8002bd6 <HAL_GPIO_Init+0x182>
 8002b66:	f506 6680 	add.w	r6, r6, #1024	; 0x400
 8002b6a:	42b0      	cmp	r0, r6
 8002b6c:	d035      	beq.n	8002bda <HAL_GPIO_Init+0x186>
 8002b6e:	f506 6680 	add.w	r6, r6, #1024	; 0x400
 8002b72:	42b0      	cmp	r0, r6
 8002b74:	d033      	beq.n	8002bde <HAL_GPIO_Init+0x18a>
 8002b76:	f506 6680 	add.w	r6, r6, #1024	; 0x400
 8002b7a:	42b0      	cmp	r0, r6
 8002b7c:	bf14      	ite	ne
 8002b7e:	2607      	movne	r6, #7
 8002b80:	2604      	moveq	r6, #4
 8002b82:	fa06 f60e 	lsl.w	r6, r6, lr
 8002b86:	ea46 060c 	orr.w	r6, r6, ip
 8002b8a:	60be      	str	r6, [r7, #8]
 8002b8c:	6816      	ldr	r6, [r2, #0]
 8002b8e:	43ef      	mvns	r7, r5
 8002b90:	f414 3f80 	tst.w	r4, #65536	; 0x10000
 8002b94:	bf0c      	ite	eq
 8002b96:	403e      	andeq	r6, r7
 8002b98:	432e      	orrne	r6, r5
 8002b9a:	6016      	str	r6, [r2, #0]
 8002b9c:	6856      	ldr	r6, [r2, #4]
 8002b9e:	f414 3f00 	tst.w	r4, #131072	; 0x20000
 8002ba2:	bf0c      	ite	eq
 8002ba4:	403e      	andeq	r6, r7
 8002ba6:	432e      	orrne	r6, r5
 8002ba8:	6056      	str	r6, [r2, #4]
 8002baa:	6896      	ldr	r6, [r2, #8]
 8002bac:	f414 1f80 	tst.w	r4, #1048576	; 0x100000
 8002bb0:	bf0c      	ite	eq
 8002bb2:	403e      	andeq	r6, r7
 8002bb4:	432e      	orrne	r6, r5
 8002bb6:	6096      	str	r6, [r2, #8]
 8002bb8:	68d6      	ldr	r6, [r2, #12]
 8002bba:	02a4      	lsls	r4, r4, #10
 8002bbc:	bf54      	ite	pl
 8002bbe:	403e      	andpl	r6, r7
 8002bc0:	432e      	orrmi	r6, r5
 8002bc2:	60d6      	str	r6, [r2, #12]
 8002bc4:	3301      	adds	r3, #1
 8002bc6:	2b10      	cmp	r3, #16
 8002bc8:	f47f af4f 	bne.w	8002a6a <HAL_GPIO_Init+0x16>
 8002bcc:	b005      	add	sp, #20
 8002bce:	e8bd 8ff0 	ldmia.w	sp!, {r4, r5, r6, r7, r8, r9, sl, fp, pc}
 8002bd2:	465e      	mov	r6, fp
 8002bd4:	e7d5      	b.n	8002b82 <HAL_GPIO_Init+0x12e>
 8002bd6:	2601      	movs	r6, #1
 8002bd8:	e7d3      	b.n	8002b82 <HAL_GPIO_Init+0x12e>
 8002bda:	2602      	movs	r6, #2
 8002bdc:	e7d1      	b.n	8002b82 <HAL_GPIO_Init+0x12e>
 8002bde:	2603      	movs	r6, #3
 8002be0:	e7cf      	b.n	8002b82 <HAL_GPIO_Init+0x12e>
 8002be2:	bf00      	nop
 8002be4:	40013c00 	.word	0x40013c00
 8002be8:	40020000 	.word	0x40020000
 8002bec:	40023800 	.word	0x40023800

08002bf0 <HAL_GPIO_ReadPin>:
 8002bf0:	6903      	ldr	r3, [r0, #16]
 8002bf2:	4219      	tst	r1, r3
 8002bf4:	bf14      	ite	ne
 8002bf6:	2001      	movne	r0, #1
 8002bf8:	2000      	moveq	r0, #0
 8002bfa:	4770      	bx	lr

08002bfc <HAL_GPIO_WritePin>:
 8002bfc:	b10a      	cbz	r2, 8002c02 <HAL_GPIO_WritePin+0x6>
 8002bfe:	6181      	str	r1, [r0, #24]
 8002c00:	4770      	bx	lr
 8002c02:	0409      	lsls	r1, r1, #16
 8002c04:	e7fb      	b.n	8002bfe <HAL_GPIO_WritePin+0x2>

08002c06 <HAL_GPIO_TogglePin>:
 8002c06:	6943      	ldr	r3, [r0, #20]
 8002c08:	ea31 0303 	bics.w	r3, r1, r3
 8002c0c:	bf08      	it	eq
 8002c0e:	0409      	lsleq	r1, r1, #16
 8002c10:	6181      	str	r1, [r0, #24]
 8002c12:	4770      	bx	lr

08002c14 <HAL_GPIO_EXTI_IRQHandler>:
 8002c14:	b508      	push	{r3, lr}
 8002c16:	4b04      	ldr	r3, [pc, #16]	; (8002c28 <HAL_GPIO_EXTI_IRQHandler+0x14>)
 8002c18:	6959      	ldr	r1, [r3, #20]
 8002c1a:	4201      	tst	r1, r0
 8002c1c:	d002      	beq.n	8002c24 <HAL_GPIO_EXTI_IRQHandler+0x10>
 8002c1e:	6158      	str	r0, [r3, #20]
 8002c20:	f7fe fc6a 	bl	80014f8 <HAL_GPIO_EXTI_Callback>
 8002c24:	bd08      	pop	{r3, pc}
 8002c26:	bf00      	nop
 8002c28:	40013c00 	.word	0x40013c00

08002c2c <I2C_IsAcknowledgeFailed>:
 8002c2c:	6801      	ldr	r1, [r0, #0]
 8002c2e:	694b      	ldr	r3, [r1, #20]
 8002c30:	f413 6380 	ands.w	r3, r3, #1024	; 0x400
 8002c34:	f04f 0200 	mov.w	r2, #0
 8002c38:	d010      	beq.n	8002c5c <I2C_IsAcknowledgeFailed+0x30>
 8002c3a:	f46f 6380 	mvn.w	r3, #1024	; 0x400
 8002c3e:	614b      	str	r3, [r1, #20]
 8002c40:	2320      	movs	r3, #32
 8002c42:	6302      	str	r2, [r0, #48]	; 0x30
 8002c44:	f880 303d 	strb.w	r3, [r0, #61]	; 0x3d
 8002c48:	f880 203e 	strb.w	r2, [r0, #62]	; 0x3e
 8002c4c:	6c03      	ldr	r3, [r0, #64]	; 0x40
 8002c4e:	f880 203c 	strb.w	r2, [r0, #60]	; 0x3c
 8002c52:	f043 0304 	orr.w	r3, r3, #4
 8002c56:	6403      	str	r3, [r0, #64]	; 0x40
 8002c58:	2001      	movs	r0, #1
 8002c5a:	4770      	bx	lr
 8002c5c:	4618      	mov	r0, r3
 8002c5e:	4770      	bx	lr

08002c60 <I2C_WaitOnMasterAddressFlagUntilTimeout>:
 8002c60:	e92d 41f0 	stmdb	sp!, {r4, r5, r6, r7, r8, lr}
 8002c64:	4604      	mov	r4, r0
 8002c66:	4616      	mov	r6, r2
 8002c68:	4698      	mov	r8, r3
 8002c6a:	b28f      	uxth	r7, r1
 8002c6c:	6825      	ldr	r5, [r4, #0]
 8002c6e:	6968      	ldr	r0, [r5, #20]
 8002c70:	ea37 0000 	bics.w	r0, r7, r0
 8002c74:	d017      	beq.n	8002ca6 <I2C_WaitOnMasterAddressFlagUntilTimeout+0x46>
 8002c76:	696b      	ldr	r3, [r5, #20]
 8002c78:	055a      	lsls	r2, r3, #21
 8002c7a:	d516      	bpl.n	8002caa <I2C_WaitOnMasterAddressFlagUntilTimeout+0x4a>
 8002c7c:	682b      	ldr	r3, [r5, #0]
 8002c7e:	f443 7300 	orr.w	r3, r3, #512	; 0x200
 8002c82:	602b      	str	r3, [r5, #0]
 8002c84:	f46f 6380 	mvn.w	r3, #1024	; 0x400
 8002c88:	616b      	str	r3, [r5, #20]
 8002c8a:	2220      	movs	r2, #32
 8002c8c:	2300      	movs	r3, #0
 8002c8e:	6323      	str	r3, [r4, #48]	; 0x30
 8002c90:	f884 203d 	strb.w	r2, [r4, #61]	; 0x3d
 8002c94:	f884 303e 	strb.w	r3, [r4, #62]	; 0x3e
 8002c98:	6c22      	ldr	r2, [r4, #64]	; 0x40
 8002c9a:	f042 0204 	orr.w	r2, r2, #4
 8002c9e:	6422      	str	r2, [r4, #64]	; 0x40
 8002ca0:	f884 303c 	strb.w	r3, [r4, #60]	; 0x3c
 8002ca4:	2001      	movs	r0, #1
 8002ca6:	e8bd 81f0 	ldmia.w	sp!, {r4, r5, r6, r7, r8, pc}
 8002caa:	1c73      	adds	r3, r6, #1
 8002cac:	d0df      	beq.n	8002c6e <I2C_WaitOnMasterAddressFlagUntilTimeout+0xe>
 8002cae:	f7ff f9a3 	bl	8001ff8 <HAL_GetTick>
 8002cb2:	eba0 0008 	sub.w	r0, r0, r8
 8002cb6:	42b0      	cmp	r0, r6
 8002cb8:	d801      	bhi.n	8002cbe <I2C_WaitOnMasterAddressFlagUntilTimeout+0x5e>
 8002cba:	2e00      	cmp	r6, #0
 8002cbc:	d1d6      	bne.n	8002c6c <I2C_WaitOnMasterAddressFlagUntilTimeout+0xc>
 8002cbe:	2300      	movs	r3, #0
 8002cc0:	2220      	movs	r2, #32
 8002cc2:	6323      	str	r3, [r4, #48]	; 0x30
 8002cc4:	f884 203d 	strb.w	r2, [r4, #61]	; 0x3d
 8002cc8:	f884 303e 	strb.w	r3, [r4, #62]	; 0x3e
 8002ccc:	6c22      	ldr	r2, [r4, #64]	; 0x40
 8002cce:	f042 0220 	orr.w	r2, r2, #32
 8002cd2:	e7e4      	b.n	8002c9e <I2C_WaitOnMasterAddressFlagUntilTimeout+0x3e>

08002cd4 <I2C_MemoryTransmit_TXE_BTF>:
 8002cd4:	6d03      	ldr	r3, [r0, #80]	; 0x50
 8002cd6:	b983      	cbnz	r3, 8002cfa <I2C_MemoryTransmit_TXE_BTF+0x26>
 8002cd8:	6cc3      	ldr	r3, [r0, #76]	; 0x4c
 8002cda:	6802      	ldr	r2, [r0, #0]
 8002cdc:	2b01      	cmp	r3, #1
 8002cde:	6c83      	ldr	r3, [r0, #72]	; 0x48
 8002ce0:	d105      	bne.n	8002cee <I2C_MemoryTransmit_TXE_BTF+0x1a>
 8002ce2:	b2db      	uxtb	r3, r3
 8002ce4:	6113      	str	r3, [r2, #16]
 8002ce6:	6d03      	ldr	r3, [r0, #80]	; 0x50
 8002ce8:	3302      	adds	r3, #2
 8002cea:	6503      	str	r3, [r0, #80]	; 0x50
 8002cec:	4770      	bx	lr
 8002cee:	f3c3 2307 	ubfx	r3, r3, #8, #8
 8002cf2:	6113      	str	r3, [r2, #16]
 8002cf4:	6d03      	ldr	r3, [r0, #80]	; 0x50
 8002cf6:	3301      	adds	r3, #1
 8002cf8:	e7f7      	b.n	8002cea <I2C_MemoryTransmit_TXE_BTF+0x16>
 8002cfa:	6d03      	ldr	r3, [r0, #80]	; 0x50
 8002cfc:	2b01      	cmp	r3, #1
 8002cfe:	d103      	bne.n	8002d08 <I2C_MemoryTransmit_TXE_BTF+0x34>
 8002d00:	6c83      	ldr	r3, [r0, #72]	; 0x48
 8002d02:	6802      	ldr	r2, [r0, #0]
 8002d04:	b2db      	uxtb	r3, r3
 8002d06:	e7f4      	b.n	8002cf2 <I2C_MemoryTransmit_TXE_BTF+0x1e>
 8002d08:	6d03      	ldr	r3, [r0, #80]	; 0x50
 8002d0a:	2b02      	cmp	r3, #2
 8002d0c:	d117      	bne.n	8002d3e <I2C_MemoryTransmit_TXE_BTF+0x6a>
 8002d0e:	f890 303d 	ldrb.w	r3, [r0, #61]	; 0x3d
 8002d12:	2b22      	cmp	r3, #34	; 0x22
 8002d14:	d105      	bne.n	8002d22 <I2C_MemoryTransmit_TXE_BTF+0x4e>
 8002d16:	6802      	ldr	r2, [r0, #0]
 8002d18:	6813      	ldr	r3, [r2, #0]
 8002d1a:	f443 7380 	orr.w	r3, r3, #256	; 0x100
 8002d1e:	6013      	str	r3, [r2, #0]
 8002d20:	4770      	bx	lr
 8002d22:	f890 303d 	ldrb.w	r3, [r0, #61]	; 0x3d
 8002d26:	2b21      	cmp	r3, #33	; 0x21
 8002d28:	d109      	bne.n	8002d3e <I2C_MemoryTransmit_TXE_BTF+0x6a>
 8002d2a:	6a43      	ldr	r3, [r0, #36]	; 0x24
 8002d2c:	6802      	ldr	r2, [r0, #0]
 8002d2e:	f813 1b01 	ldrb.w	r1, [r3], #1
 8002d32:	6111      	str	r1, [r2, #16]
 8002d34:	6243      	str	r3, [r0, #36]	; 0x24
 8002d36:	8d43      	ldrh	r3, [r0, #42]	; 0x2a
 8002d38:	3b01      	subs	r3, #1
 8002d3a:	b29b      	uxth	r3, r3
 8002d3c:	8543      	strh	r3, [r0, #42]	; 0x2a
 8002d3e:	4770      	bx	lr

08002d40 <I2C_WaitOnBTFFlagUntilTimeout>:
 8002d40:	b570      	push	{r4, r5, r6, lr}
 8002d42:	4604      	mov	r4, r0
 8002d44:	460d      	mov	r5, r1
 8002d46:	4616      	mov	r6, r2
 8002d48:	6823      	ldr	r3, [r4, #0]
 8002d4a:	695b      	ldr	r3, [r3, #20]
 8002d4c:	075b      	lsls	r3, r3, #29
 8002d4e:	d501      	bpl.n	8002d54 <I2C_WaitOnBTFFlagUntilTimeout+0x14>
 8002d50:	2000      	movs	r0, #0
 8002d52:	bd70      	pop	{r4, r5, r6, pc}
 8002d54:	4620      	mov	r0, r4
 8002d56:	f7ff ff69 	bl	8002c2c <I2C_IsAcknowledgeFailed>
 8002d5a:	b9a8      	cbnz	r0, 8002d88 <I2C_WaitOnBTFFlagUntilTimeout+0x48>
 8002d5c:	1c6a      	adds	r2, r5, #1
 8002d5e:	d0f3      	beq.n	8002d48 <I2C_WaitOnBTFFlagUntilTimeout+0x8>
 8002d60:	f7ff f94a 	bl	8001ff8 <HAL_GetTick>
 8002d64:	1b80      	subs	r0, r0, r6
 8002d66:	42a8      	cmp	r0, r5
 8002d68:	d801      	bhi.n	8002d6e <I2C_WaitOnBTFFlagUntilTimeout+0x2e>
 8002d6a:	2d00      	cmp	r5, #0
 8002d6c:	d1ec      	bne.n	8002d48 <I2C_WaitOnBTFFlagUntilTimeout+0x8>
 8002d6e:	2300      	movs	r3, #0
 8002d70:	2220      	movs	r2, #32
 8002d72:	6323      	str	r3, [r4, #48]	; 0x30
 8002d74:	f884 203d 	strb.w	r2, [r4, #61]	; 0x3d
 8002d78:	f884 303e 	strb.w	r3, [r4, #62]	; 0x3e
 8002d7c:	6c22      	ldr	r2, [r4, #64]	; 0x40
 8002d7e:	f884 303c 	strb.w	r3, [r4, #60]	; 0x3c
 8002d82:	f042 0220 	orr.w	r2, r2, #32
 8002d86:	6422      	str	r2, [r4, #64]	; 0x40
 8002d88:	2001      	movs	r0, #1
 8002d8a:	e7e2      	b.n	8002d52 <I2C_WaitOnBTFFlagUntilTimeout+0x12>

08002d8c <I2C_WaitOnFlagUntilTimeout>:
 8002d8c:	e92d 43f8 	stmdb	sp!, {r3, r4, r5, r6, r7, r8, r9, lr}
 8002d90:	9e08      	ldr	r6, [sp, #32]
 8002d92:	4604      	mov	r4, r0
 8002d94:	4690      	mov	r8, r2
 8002d96:	461f      	mov	r7, r3
 8002d98:	ea4f 4911 	mov.w	r9, r1, lsr #16
 8002d9c:	b28d      	uxth	r5, r1
 8002d9e:	6821      	ldr	r1, [r4, #0]
 8002da0:	f1b9 0f01 	cmp.w	r9, #1
 8002da4:	bf0c      	ite	eq
 8002da6:	694b      	ldreq	r3, [r1, #20]
 8002da8:	698b      	ldrne	r3, [r1, #24]
 8002daa:	ea35 0303 	bics.w	r3, r5, r3
 8002dae:	bf0c      	ite	eq
 8002db0:	2301      	moveq	r3, #1
 8002db2:	2300      	movne	r3, #0
 8002db4:	4598      	cmp	r8, r3
 8002db6:	d001      	beq.n	8002dbc <I2C_WaitOnFlagUntilTimeout+0x30>
 8002db8:	2000      	movs	r0, #0
 8002dba:	e016      	b.n	8002dea <I2C_WaitOnFlagUntilTimeout+0x5e>
 8002dbc:	1c7b      	adds	r3, r7, #1
 8002dbe:	d0ef      	beq.n	8002da0 <I2C_WaitOnFlagUntilTimeout+0x14>
 8002dc0:	f7ff f91a 	bl	8001ff8 <HAL_GetTick>
 8002dc4:	1b80      	subs	r0, r0, r6
 8002dc6:	42b8      	cmp	r0, r7
 8002dc8:	d801      	bhi.n	8002dce <I2C_WaitOnFlagUntilTimeout+0x42>
 8002dca:	2f00      	cmp	r7, #0
 8002dcc:	d1e7      	bne.n	8002d9e <I2C_WaitOnFlagUntilTimeout+0x12>
 8002dce:	2300      	movs	r3, #0
 8002dd0:	2220      	movs	r2, #32
 8002dd2:	6323      	str	r3, [r4, #48]	; 0x30
 8002dd4:	f884 203d 	strb.w	r2, [r4, #61]	; 0x3d
 8002dd8:	f884 303e 	strb.w	r3, [r4, #62]	; 0x3e
 8002ddc:	6c22      	ldr	r2, [r4, #64]	; 0x40
 8002dde:	f884 303c 	strb.w	r3, [r4, #60]	; 0x3c
 8002de2:	f042 0220 	orr.w	r2, r2, #32
 8002de6:	6422      	str	r2, [r4, #64]	; 0x40
 8002de8:	2001      	movs	r0, #1
 8002dea:	e8bd 83f8 	ldmia.w	sp!, {r3, r4, r5, r6, r7, r8, r9, pc}

08002dee <I2C_WaitOnTXEFlagUntilTimeout>:
 8002dee:	b570      	push	{r4, r5, r6, lr}
 8002df0:	4604      	mov	r4, r0
 8002df2:	460d      	mov	r5, r1
 8002df4:	4616      	mov	r6, r2
 8002df6:	6823      	ldr	r3, [r4, #0]
 8002df8:	695b      	ldr	r3, [r3, #20]
 8002dfa:	061b      	lsls	r3, r3, #24
 8002dfc:	d501      	bpl.n	8002e02 <I2C_WaitOnTXEFlagUntilTimeout+0x14>
 8002dfe:	2000      	movs	r0, #0
 8002e00:	bd70      	pop	{r4, r5, r6, pc}
 8002e02:	4620      	mov	r0, r4
 8002e04:	f7ff ff12 	bl	8002c2c <I2C_IsAcknowledgeFailed>
 8002e08:	b9a8      	cbnz	r0, 8002e36 <I2C_WaitOnTXEFlagUntilTimeout+0x48>
 8002e0a:	1c6a      	adds	r2, r5, #1
 8002e0c:	d0f3      	beq.n	8002df6 <I2C_WaitOnTXEFlagUntilTimeout+0x8>
 8002e0e:	f7ff f8f3 	bl	8001ff8 <HAL_GetTick>
 8002e12:	1b80      	subs	r0, r0, r6
 8002e14:	42a8      	cmp	r0, r5
 8002e16:	d801      	bhi.n	8002e1c <I2C_WaitOnTXEFlagUntilTimeout+0x2e>
 8002e18:	2d00      	cmp	r5, #0
 8002e1a:	d1ec      	bne.n	8002df6 <I2C_WaitOnTXEFlagUntilTimeout+0x8>
 8002e1c:	2300      	movs	r3, #0
 8002e1e:	2220      	movs	r2, #32
 8002e20:	6323      	str	r3, [r4, #48]	; 0x30
 8002e22:	f884 203d 	strb.w	r2, [r4, #61]	; 0x3d
 8002e26:	f884 303e 	strb.w	r3, [r4, #62]	; 0x3e
 8002e2a:	6c22      	ldr	r2, [r4, #64]	; 0x40
 8002e2c:	f884 303c 	strb.w	r3, [r4, #60]	; 0x3c
 8002e30:	f042 0220 	orr.w	r2, r2, #32
 8002e34:	6422      	str	r2, [r4, #64]	; 0x40
 8002e36:	2001      	movs	r0, #1
 8002e38:	e7e2      	b.n	8002e00 <I2C_WaitOnTXEFlagUntilTimeout+0x12>
	...

08002e3c <I2C_RequestMemoryWrite>:
 8002e3c:	e92d 41ff 	stmdb	sp!, {r0, r1, r2, r3, r4, r5, r6, r7, r8, lr}
 8002e40:	4615      	mov	r5, r2
 8002e42:	6802      	ldr	r2, [r0, #0]
 8002e44:	9e0b      	ldr	r6, [sp, #44]	; 0x2c
 8002e46:	4698      	mov	r8, r3
 8002e48:	6813      	ldr	r3, [r2, #0]
 8002e4a:	f443 7380 	orr.w	r3, r3, #256	; 0x100
 8002e4e:	6013      	str	r3, [r2, #0]
 8002e50:	460f      	mov	r7, r1
 8002e52:	9b0a      	ldr	r3, [sp, #40]	; 0x28
 8002e54:	9600      	str	r6, [sp, #0]
 8002e56:	2200      	movs	r2, #0
 8002e58:	f04f 1101 	mov.w	r1, #65537	; 0x10001
 8002e5c:	4604      	mov	r4, r0
 8002e5e:	f7ff ff95 	bl	8002d8c <I2C_WaitOnFlagUntilTimeout>
 8002e62:	6823      	ldr	r3, [r4, #0]
 8002e64:	b138      	cbz	r0, 8002e76 <I2C_RequestMemoryWrite+0x3a>
 8002e66:	681b      	ldr	r3, [r3, #0]
 8002e68:	05db      	lsls	r3, r3, #23
 8002e6a:	d502      	bpl.n	8002e72 <I2C_RequestMemoryWrite+0x36>
 8002e6c:	f44f 7300 	mov.w	r3, #512	; 0x200
 8002e70:	6423      	str	r3, [r4, #64]	; 0x40
 8002e72:	2003      	movs	r0, #3
 8002e74:	e00a      	b.n	8002e8c <I2C_RequestMemoryWrite+0x50>
 8002e76:	f007 07fe 	and.w	r7, r7, #254	; 0xfe
 8002e7a:	611f      	str	r7, [r3, #16]
 8002e7c:	9a0a      	ldr	r2, [sp, #40]	; 0x28
 8002e7e:	4919      	ldr	r1, [pc, #100]	; (8002ee4 <I2C_RequestMemoryWrite+0xa8>)
 8002e80:	4633      	mov	r3, r6
 8002e82:	4620      	mov	r0, r4
 8002e84:	f7ff feec 	bl	8002c60 <I2C_WaitOnMasterAddressFlagUntilTimeout>
 8002e88:	b118      	cbz	r0, 8002e92 <I2C_RequestMemoryWrite+0x56>
 8002e8a:	2001      	movs	r0, #1
 8002e8c:	b004      	add	sp, #16
 8002e8e:	e8bd 81f0 	ldmia.w	sp!, {r4, r5, r6, r7, r8, pc}
 8002e92:	6823      	ldr	r3, [r4, #0]
 8002e94:	9003      	str	r0, [sp, #12]
 8002e96:	695a      	ldr	r2, [r3, #20]
 8002e98:	9203      	str	r2, [sp, #12]
 8002e9a:	699b      	ldr	r3, [r3, #24]
 8002e9c:	9303      	str	r3, [sp, #12]
 8002e9e:	4632      	mov	r2, r6
 8002ea0:	990a      	ldr	r1, [sp, #40]	; 0x28
 8002ea2:	9b03      	ldr	r3, [sp, #12]
 8002ea4:	4620      	mov	r0, r4
 8002ea6:	f7ff ffa2 	bl	8002dee <I2C_WaitOnTXEFlagUntilTimeout>
 8002eaa:	b140      	cbz	r0, 8002ebe <I2C_RequestMemoryWrite+0x82>
 8002eac:	6c23      	ldr	r3, [r4, #64]	; 0x40
 8002eae:	2b04      	cmp	r3, #4
 8002eb0:	bf01      	itttt	eq
 8002eb2:	6822      	ldreq	r2, [r4, #0]
 8002eb4:	6813      	ldreq	r3, [r2, #0]
 8002eb6:	f443 7300 	orreq.w	r3, r3, #512	; 0x200
 8002eba:	6013      	streq	r3, [r2, #0]
 8002ebc:	e7e5      	b.n	8002e8a <I2C_RequestMemoryWrite+0x4e>
 8002ebe:	f1b8 0f01 	cmp.w	r8, #1
 8002ec2:	6823      	ldr	r3, [r4, #0]
 8002ec4:	d102      	bne.n	8002ecc <I2C_RequestMemoryWrite+0x90>
 8002ec6:	b2ed      	uxtb	r5, r5
 8002ec8:	611d      	str	r5, [r3, #16]
 8002eca:	e7df      	b.n	8002e8c <I2C_RequestMemoryWrite+0x50>
 8002ecc:	0a2a      	lsrs	r2, r5, #8
 8002ece:	611a      	str	r2, [r3, #16]
 8002ed0:	990a      	ldr	r1, [sp, #40]	; 0x28
 8002ed2:	4632      	mov	r2, r6
 8002ed4:	4620      	mov	r0, r4
 8002ed6:	f7ff ff8a 	bl	8002dee <I2C_WaitOnTXEFlagUntilTimeout>
 8002eda:	2800      	cmp	r0, #0
 8002edc:	d1e6      	bne.n	8002eac <I2C_RequestMemoryWrite+0x70>
 8002ede:	6823      	ldr	r3, [r4, #0]
 8002ee0:	e7f1      	b.n	8002ec6 <I2C_RequestMemoryWrite+0x8a>
 8002ee2:	bf00      	nop
 8002ee4:	00010002 	.word	0x00010002

08002ee8 <I2C_RequestMemoryRead>:
 8002ee8:	e92d 41ff 	stmdb	sp!, {r0, r1, r2, r3, r4, r5, r6, r7, r8, lr}
 8002eec:	4698      	mov	r8, r3
 8002eee:	6803      	ldr	r3, [r0, #0]
 8002ef0:	9d0b      	ldr	r5, [sp, #44]	; 0x2c
 8002ef2:	4616      	mov	r6, r2
 8002ef4:	681a      	ldr	r2, [r3, #0]
 8002ef6:	f442 6280 	orr.w	r2, r2, #1024	; 0x400
 8002efa:	601a      	str	r2, [r3, #0]
 8002efc:	681a      	ldr	r2, [r3, #0]
 8002efe:	f442 7280 	orr.w	r2, r2, #256	; 0x100
 8002f02:	601a      	str	r2, [r3, #0]
 8002f04:	460f      	mov	r7, r1
 8002f06:	9b0a      	ldr	r3, [sp, #40]	; 0x28
 8002f08:	9500      	str	r5, [sp, #0]
 8002f0a:	2200      	movs	r2, #0
 8002f0c:	f04f 1101 	mov.w	r1, #65537	; 0x10001
 8002f10:	4604      	mov	r4, r0
 8002f12:	f7ff ff3b 	bl	8002d8c <I2C_WaitOnFlagUntilTimeout>
 8002f16:	6823      	ldr	r3, [r4, #0]
 8002f18:	b148      	cbz	r0, 8002f2e <I2C_RequestMemoryRead+0x46>
 8002f1a:	681b      	ldr	r3, [r3, #0]
 8002f1c:	05db      	lsls	r3, r3, #23
 8002f1e:	d502      	bpl.n	8002f26 <I2C_RequestMemoryRead+0x3e>
 8002f20:	f44f 7300 	mov.w	r3, #512	; 0x200
 8002f24:	6423      	str	r3, [r4, #64]	; 0x40
 8002f26:	2003      	movs	r0, #3
 8002f28:	b004      	add	sp, #16
 8002f2a:	e8bd 81f0 	ldmia.w	sp!, {r4, r5, r6, r7, r8, pc}
 8002f2e:	b2ff      	uxtb	r7, r7
 8002f30:	f007 02fe 	and.w	r2, r7, #254	; 0xfe
 8002f34:	611a      	str	r2, [r3, #16]
 8002f36:	492a      	ldr	r1, [pc, #168]	; (8002fe0 <I2C_RequestMemoryRead+0xf8>)
 8002f38:	9a0a      	ldr	r2, [sp, #40]	; 0x28
 8002f3a:	462b      	mov	r3, r5
 8002f3c:	4620      	mov	r0, r4
 8002f3e:	f7ff fe8f 	bl	8002c60 <I2C_WaitOnMasterAddressFlagUntilTimeout>
 8002f42:	b108      	cbz	r0, 8002f48 <I2C_RequestMemoryRead+0x60>
 8002f44:	2001      	movs	r0, #1
 8002f46:	e7ef      	b.n	8002f28 <I2C_RequestMemoryRead+0x40>
 8002f48:	6823      	ldr	r3, [r4, #0]
 8002f4a:	9003      	str	r0, [sp, #12]
 8002f4c:	695a      	ldr	r2, [r3, #20]
 8002f4e:	9203      	str	r2, [sp, #12]
 8002f50:	699b      	ldr	r3, [r3, #24]
 8002f52:	9303      	str	r3, [sp, #12]
 8002f54:	462a      	mov	r2, r5
 8002f56:	990a      	ldr	r1, [sp, #40]	; 0x28
 8002f58:	9b03      	ldr	r3, [sp, #12]
 8002f5a:	4620      	mov	r0, r4
 8002f5c:	f7ff ff47 	bl	8002dee <I2C_WaitOnTXEFlagUntilTimeout>
 8002f60:	b140      	cbz	r0, 8002f74 <I2C_RequestMemoryRead+0x8c>
 8002f62:	6c23      	ldr	r3, [r4, #64]	; 0x40
 8002f64:	2b04      	cmp	r3, #4
 8002f66:	bf01      	itttt	eq
 8002f68:	6822      	ldreq	r2, [r4, #0]
 8002f6a:	6813      	ldreq	r3, [r2, #0]
 8002f6c:	f443 7300 	orreq.w	r3, r3, #512	; 0x200
 8002f70:	6013      	streq	r3, [r2, #0]
 8002f72:	e7e7      	b.n	8002f44 <I2C_RequestMemoryRead+0x5c>
 8002f74:	f1b8 0f01 	cmp.w	r8, #1
 8002f78:	6823      	ldr	r3, [r4, #0]
 8002f7a:	d125      	bne.n	8002fc8 <I2C_RequestMemoryRead+0xe0>
 8002f7c:	b2f6      	uxtb	r6, r6
 8002f7e:	611e      	str	r6, [r3, #16]
 8002f80:	462a      	mov	r2, r5
 8002f82:	990a      	ldr	r1, [sp, #40]	; 0x28
 8002f84:	4620      	mov	r0, r4
 8002f86:	f7ff ff32 	bl	8002dee <I2C_WaitOnTXEFlagUntilTimeout>
 8002f8a:	4602      	mov	r2, r0
 8002f8c:	2800      	cmp	r0, #0
 8002f8e:	d1e8      	bne.n	8002f62 <I2C_RequestMemoryRead+0x7a>
 8002f90:	6821      	ldr	r1, [r4, #0]
 8002f92:	680b      	ldr	r3, [r1, #0]
 8002f94:	f443 7380 	orr.w	r3, r3, #256	; 0x100
 8002f98:	600b      	str	r3, [r1, #0]
 8002f9a:	4620      	mov	r0, r4
 8002f9c:	9b0a      	ldr	r3, [sp, #40]	; 0x28
 8002f9e:	9500      	str	r5, [sp, #0]
 8002fa0:	f04f 1101 	mov.w	r1, #65537	; 0x10001
 8002fa4:	f7ff fef2 	bl	8002d8c <I2C_WaitOnFlagUntilTimeout>
 8002fa8:	6823      	ldr	r3, [r4, #0]
 8002faa:	2800      	cmp	r0, #0
 8002fac:	d1b5      	bne.n	8002f1a <I2C_RequestMemoryRead+0x32>
 8002fae:	f047 0701 	orr.w	r7, r7, #1
 8002fb2:	611f      	str	r7, [r3, #16]
 8002fb4:	9a0a      	ldr	r2, [sp, #40]	; 0x28
 8002fb6:	490a      	ldr	r1, [pc, #40]	; (8002fe0 <I2C_RequestMemoryRead+0xf8>)
 8002fb8:	462b      	mov	r3, r5
 8002fba:	4620      	mov	r0, r4
 8002fbc:	f7ff fe50 	bl	8002c60 <I2C_WaitOnMasterAddressFlagUntilTimeout>
 8002fc0:	3000      	adds	r0, #0
 8002fc2:	bf18      	it	ne
 8002fc4:	2001      	movne	r0, #1
 8002fc6:	e7af      	b.n	8002f28 <I2C_RequestMemoryRead+0x40>
 8002fc8:	0a32      	lsrs	r2, r6, #8
 8002fca:	611a      	str	r2, [r3, #16]
 8002fcc:	990a      	ldr	r1, [sp, #40]	; 0x28
 8002fce:	462a      	mov	r2, r5
 8002fd0:	4620      	mov	r0, r4
 8002fd2:	f7ff ff0c 	bl	8002dee <I2C_WaitOnTXEFlagUntilTimeout>
 8002fd6:	2800      	cmp	r0, #0
 8002fd8:	d1c3      	bne.n	8002f62 <I2C_RequestMemoryRead+0x7a>
 8002fda:	6823      	ldr	r3, [r4, #0]
 8002fdc:	e7ce      	b.n	8002f7c <I2C_RequestMemoryRead+0x94>
 8002fde:	bf00      	nop
 8002fe0:	00010002 	.word	0x00010002

08002fe4 <HAL_I2C_Init>:
 8002fe4:	b570      	push	{r4, r5, r6, lr}
 8002fe6:	4604      	mov	r4, r0
 8002fe8:	b908      	cbnz	r0, 8002fee <HAL_I2C_Init+0xa>
 8002fea:	2001      	movs	r0, #1
 8002fec:	bd70      	pop	{r4, r5, r6, pc}
 8002fee:	f890 303d 	ldrb.w	r3, [r0, #61]	; 0x3d
 8002ff2:	f003 02ff 	and.w	r2, r3, #255	; 0xff
 8002ff6:	b91b      	cbnz	r3, 8003000 <HAL_I2C_Init+0x1c>
 8002ff8:	f880 203c 	strb.w	r2, [r0, #60]	; 0x3c
 8002ffc:	f7fd ff06 	bl	8000e0c <HAL_I2C_MspInit>
 8003000:	2324      	movs	r3, #36	; 0x24
 8003002:	f884 303d 	strb.w	r3, [r4, #61]	; 0x3d
 8003006:	6823      	ldr	r3, [r4, #0]
 8003008:	681a      	ldr	r2, [r3, #0]
 800300a:	f022 0201 	bic.w	r2, r2, #1
 800300e:	601a      	str	r2, [r3, #0]
 8003010:	681a      	ldr	r2, [r3, #0]
 8003012:	f442 4200 	orr.w	r2, r2, #32768	; 0x8000
 8003016:	601a      	str	r2, [r3, #0]
 8003018:	681a      	ldr	r2, [r3, #0]
 800301a:	f422 4200 	bic.w	r2, r2, #32768	; 0x8000
 800301e:	601a      	str	r2, [r3, #0]
 8003020:	f001 faa2 	bl	8004568 <HAL_RCC_GetPCLK1Freq>
 8003024:	6863      	ldr	r3, [r4, #4]
 8003026:	4a41      	ldr	r2, [pc, #260]	; (800312c <HAL_I2C_Init+0x148>)
 8003028:	4293      	cmp	r3, r2
 800302a:	d84d      	bhi.n	80030c8 <HAL_I2C_Init+0xe4>
 800302c:	4a40      	ldr	r2, [pc, #256]	; (8003130 <HAL_I2C_Init+0x14c>)
 800302e:	4290      	cmp	r0, r2
 8003030:	d9db      	bls.n	8002fea <HAL_I2C_Init+0x6>
 8003032:	6822      	ldr	r2, [r4, #0]
 8003034:	493f      	ldr	r1, [pc, #252]	; (8003134 <HAL_I2C_Init+0x150>)
 8003036:	6855      	ldr	r5, [r2, #4]
 8003038:	fbb0 f1f1 	udiv	r1, r0, r1
 800303c:	f025 053f 	bic.w	r5, r5, #63	; 0x3f
 8003040:	430d      	orrs	r5, r1
 8003042:	6055      	str	r5, [r2, #4]
 8003044:	6a15      	ldr	r5, [r2, #32]
 8003046:	f025 053f 	bic.w	r5, r5, #63	; 0x3f
 800304a:	3101      	adds	r1, #1
 800304c:	4329      	orrs	r1, r5
 800304e:	6211      	str	r1, [r2, #32]
 8003050:	69d1      	ldr	r1, [r2, #28]
 8003052:	4d36      	ldr	r5, [pc, #216]	; (800312c <HAL_I2C_Init+0x148>)
 8003054:	f421 414f 	bic.w	r1, r1, #52992	; 0xcf00
 8003058:	42ab      	cmp	r3, r5
 800305a:	f021 01ff 	bic.w	r1, r1, #255	; 0xff
 800305e:	f100 30ff 	add.w	r0, r0, #4294967295
 8003062:	d848      	bhi.n	80030f6 <HAL_I2C_Init+0x112>
 8003064:	005b      	lsls	r3, r3, #1
 8003066:	fbb0 f0f3 	udiv	r0, r0, r3
 800306a:	1c43      	adds	r3, r0, #1
 800306c:	f3c3 030b 	ubfx	r3, r3, #0, #12
 8003070:	2b04      	cmp	r3, #4
 8003072:	bf38      	it	cc
 8003074:	2304      	movcc	r3, #4
 8003076:	430b      	orrs	r3, r1
 8003078:	61d3      	str	r3, [r2, #28]
 800307a:	e9d4 3007 	ldrd	r3, r0, [r4, #28]
 800307e:	6811      	ldr	r1, [r2, #0]
 8003080:	4303      	orrs	r3, r0
 8003082:	f021 01c0 	bic.w	r1, r1, #192	; 0xc0
 8003086:	430b      	orrs	r3, r1
 8003088:	6013      	str	r3, [r2, #0]
 800308a:	6891      	ldr	r1, [r2, #8]
 800308c:	e9d4 0303 	ldrd	r0, r3, [r4, #12]
 8003090:	f421 4103 	bic.w	r1, r1, #33536	; 0x8300
 8003094:	4303      	orrs	r3, r0
 8003096:	f021 01ff 	bic.w	r1, r1, #255	; 0xff
 800309a:	430b      	orrs	r3, r1
 800309c:	6093      	str	r3, [r2, #8]
 800309e:	e9d4 3005 	ldrd	r3, r0, [r4, #20]
 80030a2:	68d1      	ldr	r1, [r2, #12]
 80030a4:	4303      	orrs	r3, r0
 80030a6:	f021 01ff 	bic.w	r1, r1, #255	; 0xff
 80030aa:	430b      	orrs	r3, r1
 80030ac:	60d3      	str	r3, [r2, #12]
 80030ae:	6813      	ldr	r3, [r2, #0]
 80030b0:	f043 0301 	orr.w	r3, r3, #1
 80030b4:	6013      	str	r3, [r2, #0]
 80030b6:	2000      	movs	r0, #0
 80030b8:	2320      	movs	r3, #32
 80030ba:	6420      	str	r0, [r4, #64]	; 0x40
 80030bc:	f884 303d 	strb.w	r3, [r4, #61]	; 0x3d
 80030c0:	6320      	str	r0, [r4, #48]	; 0x30
 80030c2:	f884 003e 	strb.w	r0, [r4, #62]	; 0x3e
 80030c6:	e791      	b.n	8002fec <HAL_I2C_Init+0x8>
 80030c8:	4a1b      	ldr	r2, [pc, #108]	; (8003138 <HAL_I2C_Init+0x154>)
 80030ca:	4290      	cmp	r0, r2
 80030cc:	d98d      	bls.n	8002fea <HAL_I2C_Init+0x6>
 80030ce:	6822      	ldr	r2, [r4, #0]
 80030d0:	4e18      	ldr	r6, [pc, #96]	; (8003134 <HAL_I2C_Init+0x150>)
 80030d2:	6855      	ldr	r5, [r2, #4]
 80030d4:	fbb0 f6f6 	udiv	r6, r0, r6
 80030d8:	f025 053f 	bic.w	r5, r5, #63	; 0x3f
 80030dc:	4335      	orrs	r5, r6
 80030de:	6055      	str	r5, [r2, #4]
 80030e0:	6a15      	ldr	r5, [r2, #32]
 80030e2:	f44f 7196 	mov.w	r1, #300	; 0x12c
 80030e6:	4371      	muls	r1, r6
 80030e8:	f025 053f 	bic.w	r5, r5, #63	; 0x3f
 80030ec:	f44f 767a 	mov.w	r6, #1000	; 0x3e8
 80030f0:	fbb1 f1f6 	udiv	r1, r1, r6
 80030f4:	e7a9      	b.n	800304a <HAL_I2C_Init+0x66>
 80030f6:	68a5      	ldr	r5, [r4, #8]
 80030f8:	b955      	cbnz	r5, 8003110 <HAL_I2C_Init+0x12c>
 80030fa:	eb03 0343 	add.w	r3, r3, r3, lsl #1
 80030fe:	fbb0 f0f3 	udiv	r0, r0, r3
 8003102:	1c43      	adds	r3, r0, #1
 8003104:	f3c3 030b 	ubfx	r3, r3, #0, #12
 8003108:	b16b      	cbz	r3, 8003126 <HAL_I2C_Init+0x142>
 800310a:	f443 4300 	orr.w	r3, r3, #32768	; 0x8000
 800310e:	e7b2      	b.n	8003076 <HAL_I2C_Init+0x92>
 8003110:	2519      	movs	r5, #25
 8003112:	436b      	muls	r3, r5
 8003114:	fbb0 f0f3 	udiv	r0, r0, r3
 8003118:	1c43      	adds	r3, r0, #1
 800311a:	f3c3 030b 	ubfx	r3, r3, #0, #12
 800311e:	b113      	cbz	r3, 8003126 <HAL_I2C_Init+0x142>
 8003120:	f443 4340 	orr.w	r3, r3, #49152	; 0xc000
 8003124:	e7a7      	b.n	8003076 <HAL_I2C_Init+0x92>
 8003126:	2301      	movs	r3, #1
 8003128:	e7a5      	b.n	8003076 <HAL_I2C_Init+0x92>
 800312a:	bf00      	nop
 800312c:	000186a0 	.word	0x000186a0
 8003130:	001e847f 	.word	0x001e847f
 8003134:	000f4240 	.word	0x000f4240
 8003138:	003d08ff 	.word	0x003d08ff

0800313c <HAL_I2C_Mem_Write>:
 800313c:	e92d 43f7 	stmdb	sp!, {r0, r1, r2, r4, r5, r6, r7, r8, r9, lr}
 8003140:	4604      	mov	r4, r0
 8003142:	4699      	mov	r9, r3
 8003144:	460f      	mov	r7, r1
 8003146:	4690      	mov	r8, r2
 8003148:	9e0c      	ldr	r6, [sp, #48]	; 0x30
 800314a:	f7fe ff55 	bl	8001ff8 <HAL_GetTick>
 800314e:	f894 303d 	ldrb.w	r3, [r4, #61]	; 0x3d
 8003152:	2b20      	cmp	r3, #32
 8003154:	4605      	mov	r5, r0
 8003156:	d003      	beq.n	8003160 <HAL_I2C_Mem_Write+0x24>
 8003158:	2002      	movs	r0, #2
 800315a:	b003      	add	sp, #12
 800315c:	e8bd 83f0 	ldmia.w	sp!, {r4, r5, r6, r7, r8, r9, pc}
 8003160:	9000      	str	r0, [sp, #0]
 8003162:	2319      	movs	r3, #25
 8003164:	2201      	movs	r2, #1
 8003166:	493b      	ldr	r1, [pc, #236]	; (8003254 <HAL_I2C_Mem_Write+0x118>)
 8003168:	4620      	mov	r0, r4
 800316a:	f7ff fe0f 	bl	8002d8c <I2C_WaitOnFlagUntilTimeout>
 800316e:	2800      	cmp	r0, #0
 8003170:	d1f2      	bne.n	8003158 <HAL_I2C_Mem_Write+0x1c>
 8003172:	f894 303c 	ldrb.w	r3, [r4, #60]	; 0x3c
 8003176:	2b01      	cmp	r3, #1
 8003178:	d0ee      	beq.n	8003158 <HAL_I2C_Mem_Write+0x1c>
 800317a:	2301      	movs	r3, #1
 800317c:	f884 303c 	strb.w	r3, [r4, #60]	; 0x3c
 8003180:	6823      	ldr	r3, [r4, #0]
 8003182:	681a      	ldr	r2, [r3, #0]
 8003184:	07d1      	lsls	r1, r2, #31
 8003186:	bf5e      	ittt	pl
 8003188:	681a      	ldrpl	r2, [r3, #0]
 800318a:	f042 0201 	orrpl.w	r2, r2, #1
 800318e:	601a      	strpl	r2, [r3, #0]
 8003190:	681a      	ldr	r2, [r3, #0]
 8003192:	f422 6200 	bic.w	r2, r2, #2048	; 0x800
 8003196:	601a      	str	r2, [r3, #0]
 8003198:	2321      	movs	r3, #33	; 0x21
 800319a:	f884 303d 	strb.w	r3, [r4, #61]	; 0x3d
 800319e:	2340      	movs	r3, #64	; 0x40
 80031a0:	f884 303e 	strb.w	r3, [r4, #62]	; 0x3e
 80031a4:	2300      	movs	r3, #0
 80031a6:	6423      	str	r3, [r4, #64]	; 0x40
 80031a8:	9b0a      	ldr	r3, [sp, #40]	; 0x28
 80031aa:	6263      	str	r3, [r4, #36]	; 0x24
 80031ac:	f8bd 302c 	ldrh.w	r3, [sp, #44]	; 0x2c
 80031b0:	8563      	strh	r3, [r4, #42]	; 0x2a
 80031b2:	8d63      	ldrh	r3, [r4, #42]	; 0x2a
 80031b4:	8523      	strh	r3, [r4, #40]	; 0x28
 80031b6:	4b28      	ldr	r3, [pc, #160]	; (8003258 <HAL_I2C_Mem_Write+0x11c>)
 80031b8:	62e3      	str	r3, [r4, #44]	; 0x2c
 80031ba:	e9cd 6500 	strd	r6, r5, [sp]
 80031be:	464b      	mov	r3, r9
 80031c0:	4642      	mov	r2, r8
 80031c2:	4639      	mov	r1, r7
 80031c4:	4620      	mov	r0, r4
 80031c6:	f7ff fe39 	bl	8002e3c <I2C_RequestMemoryWrite>
 80031ca:	2800      	cmp	r0, #0
 80031cc:	d02a      	beq.n	8003224 <HAL_I2C_Mem_Write+0xe8>
 80031ce:	2001      	movs	r0, #1
 80031d0:	e7c3      	b.n	800315a <HAL_I2C_Mem_Write+0x1e>
 80031d2:	f7ff fe0c 	bl	8002dee <I2C_WaitOnTXEFlagUntilTimeout>
 80031d6:	b140      	cbz	r0, 80031ea <HAL_I2C_Mem_Write+0xae>
 80031d8:	6c23      	ldr	r3, [r4, #64]	; 0x40
 80031da:	2b04      	cmp	r3, #4
 80031dc:	bf01      	itttt	eq
 80031de:	6822      	ldreq	r2, [r4, #0]
 80031e0:	6813      	ldreq	r3, [r2, #0]
 80031e2:	f443 7300 	orreq.w	r3, r3, #512	; 0x200
 80031e6:	6013      	streq	r3, [r2, #0]
 80031e8:	e7f1      	b.n	80031ce <HAL_I2C_Mem_Write+0x92>
 80031ea:	6a63      	ldr	r3, [r4, #36]	; 0x24
 80031ec:	6827      	ldr	r7, [r4, #0]
 80031ee:	461a      	mov	r2, r3
 80031f0:	f812 1b01 	ldrb.w	r1, [r2], #1
 80031f4:	6139      	str	r1, [r7, #16]
 80031f6:	6262      	str	r2, [r4, #36]	; 0x24
 80031f8:	8d62      	ldrh	r2, [r4, #42]	; 0x2a
 80031fa:	8d21      	ldrh	r1, [r4, #40]	; 0x28
 80031fc:	3a01      	subs	r2, #1
 80031fe:	b292      	uxth	r2, r2
 8003200:	8562      	strh	r2, [r4, #42]	; 0x2a
 8003202:	697a      	ldr	r2, [r7, #20]
 8003204:	1e48      	subs	r0, r1, #1
 8003206:	b280      	uxth	r0, r0
 8003208:	0752      	lsls	r2, r2, #29
 800320a:	8520      	strh	r0, [r4, #40]	; 0x28
 800320c:	d50a      	bpl.n	8003224 <HAL_I2C_Mem_Write+0xe8>
 800320e:	b148      	cbz	r0, 8003224 <HAL_I2C_Mem_Write+0xe8>
 8003210:	785a      	ldrb	r2, [r3, #1]
 8003212:	613a      	str	r2, [r7, #16]
 8003214:	3302      	adds	r3, #2
 8003216:	6263      	str	r3, [r4, #36]	; 0x24
 8003218:	8d63      	ldrh	r3, [r4, #42]	; 0x2a
 800321a:	3b01      	subs	r3, #1
 800321c:	3902      	subs	r1, #2
 800321e:	b29b      	uxth	r3, r3
 8003220:	8521      	strh	r1, [r4, #40]	; 0x28
 8003222:	8563      	strh	r3, [r4, #42]	; 0x2a
 8003224:	8d23      	ldrh	r3, [r4, #40]	; 0x28
 8003226:	462a      	mov	r2, r5
 8003228:	4631      	mov	r1, r6
 800322a:	4620      	mov	r0, r4
 800322c:	2b00      	cmp	r3, #0
 800322e:	d1d0      	bne.n	80031d2 <HAL_I2C_Mem_Write+0x96>
 8003230:	f7ff fd86 	bl	8002d40 <I2C_WaitOnBTFFlagUntilTimeout>
 8003234:	2800      	cmp	r0, #0
 8003236:	d1cf      	bne.n	80031d8 <HAL_I2C_Mem_Write+0x9c>
 8003238:	6822      	ldr	r2, [r4, #0]
 800323a:	6813      	ldr	r3, [r2, #0]
 800323c:	f443 7300 	orr.w	r3, r3, #512	; 0x200
 8003240:	6013      	str	r3, [r2, #0]
 8003242:	2320      	movs	r3, #32
 8003244:	f884 303d 	strb.w	r3, [r4, #61]	; 0x3d
 8003248:	f884 003c 	strb.w	r0, [r4, #60]	; 0x3c
 800324c:	f884 003e 	strb.w	r0, [r4, #62]	; 0x3e
 8003250:	e783      	b.n	800315a <HAL_I2C_Mem_Write+0x1e>
 8003252:	bf00      	nop
 8003254:	00100002 	.word	0x00100002
 8003258:	ffff0000 	.word	0xffff0000

0800325c <HAL_I2C_Mem_Read_DMA>:
 800325c:	e92d 47f0 	stmdb	sp!, {r4, r5, r6, r7, r8, r9, sl, lr}
 8003260:	b086      	sub	sp, #24
 8003262:	4604      	mov	r4, r0
 8003264:	4698      	mov	r8, r3
 8003266:	460e      	mov	r6, r1
 8003268:	4617      	mov	r7, r2
 800326a:	f8dd a038 	ldr.w	sl, [sp, #56]	; 0x38
 800326e:	f7fe fec3 	bl	8001ff8 <HAL_GetTick>
 8003272:	2300      	movs	r3, #0
 8003274:	9303      	str	r3, [sp, #12]
 8003276:	f894 303d 	ldrb.w	r3, [r4, #61]	; 0x3d
 800327a:	2b20      	cmp	r3, #32
 800327c:	4681      	mov	r9, r0
 800327e:	d003      	beq.n	8003288 <HAL_I2C_Mem_Read_DMA+0x2c>
 8003280:	2002      	movs	r0, #2
 8003282:	b006      	add	sp, #24
 8003284:	e8bd 87f0 	ldmia.w	sp!, {r4, r5, r6, r7, r8, r9, sl, pc}
 8003288:	4b54      	ldr	r3, [pc, #336]	; (80033dc <HAL_I2C_Mem_Read_DMA+0x180>)
 800328a:	f246 12a8 	movw	r2, #25000	; 0x61a8
 800328e:	681b      	ldr	r3, [r3, #0]
 8003290:	fbb3 f2f2 	udiv	r2, r3, r2
 8003294:	2319      	movs	r3, #25
 8003296:	4353      	muls	r3, r2
 8003298:	9303      	str	r3, [sp, #12]
 800329a:	9b03      	ldr	r3, [sp, #12]
 800329c:	3b01      	subs	r3, #1
 800329e:	9303      	str	r3, [sp, #12]
 80032a0:	9b03      	ldr	r3, [sp, #12]
 80032a2:	b96b      	cbnz	r3, 80032c0 <HAL_I2C_Mem_Read_DMA+0x64>
 80032a4:	2220      	movs	r2, #32
 80032a6:	6323      	str	r3, [r4, #48]	; 0x30
 80032a8:	f884 203d 	strb.w	r2, [r4, #61]	; 0x3d
 80032ac:	f884 303e 	strb.w	r3, [r4, #62]	; 0x3e
 80032b0:	6c22      	ldr	r2, [r4, #64]	; 0x40
 80032b2:	f884 303c 	strb.w	r3, [r4, #60]	; 0x3c
 80032b6:	f042 0220 	orr.w	r2, r2, #32
 80032ba:	6422      	str	r2, [r4, #64]	; 0x40
 80032bc:	2001      	movs	r0, #1
 80032be:	e7e0      	b.n	8003282 <HAL_I2C_Mem_Read_DMA+0x26>
 80032c0:	6821      	ldr	r1, [r4, #0]
 80032c2:	698b      	ldr	r3, [r1, #24]
 80032c4:	079a      	lsls	r2, r3, #30
 80032c6:	d4e8      	bmi.n	800329a <HAL_I2C_Mem_Read_DMA+0x3e>
 80032c8:	f894 303c 	ldrb.w	r3, [r4, #60]	; 0x3c
 80032cc:	2b01      	cmp	r3, #1
 80032ce:	d0d7      	beq.n	8003280 <HAL_I2C_Mem_Read_DMA+0x24>
 80032d0:	2301      	movs	r3, #1
 80032d2:	f884 303c 	strb.w	r3, [r4, #60]	; 0x3c
 80032d6:	680b      	ldr	r3, [r1, #0]
 80032d8:	4a41      	ldr	r2, [pc, #260]	; (80033e0 <HAL_I2C_Mem_Read_DMA+0x184>)
 80032da:	07db      	lsls	r3, r3, #31
 80032dc:	bf5e      	ittt	pl
 80032de:	680b      	ldrpl	r3, [r1, #0]
 80032e0:	f043 0301 	orrpl.w	r3, r3, #1
 80032e4:	600b      	strpl	r3, [r1, #0]
 80032e6:	680b      	ldr	r3, [r1, #0]
 80032e8:	f423 6300 	bic.w	r3, r3, #2048	; 0x800
 80032ec:	600b      	str	r3, [r1, #0]
 80032ee:	2322      	movs	r3, #34	; 0x22
 80032f0:	f884 303d 	strb.w	r3, [r4, #61]	; 0x3d
 80032f4:	2340      	movs	r3, #64	; 0x40
 80032f6:	f884 303e 	strb.w	r3, [r4, #62]	; 0x3e
 80032fa:	2500      	movs	r5, #0
 80032fc:	f8bd 303c 	ldrh.w	r3, [sp, #60]	; 0x3c
 8003300:	6425      	str	r5, [r4, #64]	; 0x40
 8003302:	8563      	strh	r3, [r4, #42]	; 0x2a
 8003304:	8d63      	ldrh	r3, [r4, #42]	; 0x2a
 8003306:	f8c4 a024 	str.w	sl, [r4, #36]	; 0x24
 800330a:	b29b      	uxth	r3, r3
 800330c:	8523      	strh	r3, [r4, #40]	; 0x28
 800330e:	62e2      	str	r2, [r4, #44]	; 0x2c
 8003310:	2b00      	cmp	r3, #0
 8003312:	d045      	beq.n	80033a0 <HAL_I2C_Mem_Read_DMA+0x144>
 8003314:	6ba0      	ldr	r0, [r4, #56]	; 0x38
 8003316:	4a33      	ldr	r2, [pc, #204]	; (80033e4 <HAL_I2C_Mem_Read_DMA+0x188>)
 8003318:	63c2      	str	r2, [r0, #60]	; 0x3c
 800331a:	4a33      	ldr	r2, [pc, #204]	; (80033e8 <HAL_I2C_Mem_Read_DMA+0x18c>)
 800331c:	64c2      	str	r2, [r0, #76]	; 0x4c
 800331e:	e9c0 5510 	strd	r5, r5, [r0, #64]	; 0x40
 8003322:	6485      	str	r5, [r0, #72]	; 0x48
 8003324:	6505      	str	r5, [r0, #80]	; 0x50
 8003326:	4652      	mov	r2, sl
 8003328:	3110      	adds	r1, #16
 800332a:	f7ff fa3f 	bl	80027ac <HAL_DMA_Start_IT>
 800332e:	2800      	cmp	r0, #0
 8003330:	d12a      	bne.n	8003388 <HAL_I2C_Mem_Read_DMA+0x12c>
 8003332:	2323      	movs	r3, #35	; 0x23
 8003334:	9300      	str	r3, [sp, #0]
 8003336:	f8cd 9004 	str.w	r9, [sp, #4]
 800333a:	4643      	mov	r3, r8
 800333c:	463a      	mov	r2, r7
 800333e:	4631      	mov	r1, r6
 8003340:	4620      	mov	r0, r4
 8003342:	f7ff fdd1 	bl	8002ee8 <I2C_RequestMemoryRead>
 8003346:	2800      	cmp	r0, #0
 8003348:	d1b8      	bne.n	80032bc <HAL_I2C_Mem_Read_DMA+0x60>
 800334a:	8d22      	ldrh	r2, [r4, #40]	; 0x28
 800334c:	6823      	ldr	r3, [r4, #0]
 800334e:	2a01      	cmp	r2, #1
 8003350:	bf0b      	itete	eq
 8003352:	681a      	ldreq	r2, [r3, #0]
 8003354:	685a      	ldrne	r2, [r3, #4]
 8003356:	f422 6280 	biceq.w	r2, r2, #1024	; 0x400
 800335a:	f442 5280 	orrne.w	r2, r2, #4096	; 0x1000
 800335e:	bf0c      	ite	eq
 8003360:	601a      	streq	r2, [r3, #0]
 8003362:	605a      	strne	r2, [r3, #4]
 8003364:	2200      	movs	r2, #0
 8003366:	9204      	str	r2, [sp, #16]
 8003368:	6959      	ldr	r1, [r3, #20]
 800336a:	9104      	str	r1, [sp, #16]
 800336c:	6999      	ldr	r1, [r3, #24]
 800336e:	9104      	str	r1, [sp, #16]
 8003370:	9904      	ldr	r1, [sp, #16]
 8003372:	f884 203c 	strb.w	r2, [r4, #60]	; 0x3c
 8003376:	685a      	ldr	r2, [r3, #4]
 8003378:	f442 7280 	orr.w	r2, r2, #256	; 0x100
 800337c:	605a      	str	r2, [r3, #4]
 800337e:	685a      	ldr	r2, [r3, #4]
 8003380:	f442 6200 	orr.w	r2, r2, #2048	; 0x800
 8003384:	605a      	str	r2, [r3, #4]
 8003386:	e77c      	b.n	8003282 <HAL_I2C_Mem_Read_DMA+0x26>
 8003388:	2320      	movs	r3, #32
 800338a:	f884 303d 	strb.w	r3, [r4, #61]	; 0x3d
 800338e:	f884 503e 	strb.w	r5, [r4, #62]	; 0x3e
 8003392:	6c23      	ldr	r3, [r4, #64]	; 0x40
 8003394:	f884 503c 	strb.w	r5, [r4, #60]	; 0x3c
 8003398:	f043 0310 	orr.w	r3, r3, #16
 800339c:	6423      	str	r3, [r4, #64]	; 0x40
 800339e:	e78d      	b.n	80032bc <HAL_I2C_Mem_Read_DMA+0x60>
 80033a0:	2323      	movs	r3, #35	; 0x23
 80033a2:	9300      	str	r3, [sp, #0]
 80033a4:	f8cd 9004 	str.w	r9, [sp, #4]
 80033a8:	4643      	mov	r3, r8
 80033aa:	463a      	mov	r2, r7
 80033ac:	4631      	mov	r1, r6
 80033ae:	4620      	mov	r0, r4
 80033b0:	f7ff fd9a 	bl	8002ee8 <I2C_RequestMemoryRead>
 80033b4:	2800      	cmp	r0, #0
 80033b6:	d181      	bne.n	80032bc <HAL_I2C_Mem_Read_DMA+0x60>
 80033b8:	6823      	ldr	r3, [r4, #0]
 80033ba:	9005      	str	r0, [sp, #20]
 80033bc:	695a      	ldr	r2, [r3, #20]
 80033be:	9205      	str	r2, [sp, #20]
 80033c0:	699a      	ldr	r2, [r3, #24]
 80033c2:	9205      	str	r2, [sp, #20]
 80033c4:	9a05      	ldr	r2, [sp, #20]
 80033c6:	681a      	ldr	r2, [r3, #0]
 80033c8:	f442 7200 	orr.w	r2, r2, #512	; 0x200
 80033cc:	601a      	str	r2, [r3, #0]
 80033ce:	2320      	movs	r3, #32
 80033d0:	f884 303d 	strb.w	r3, [r4, #61]	; 0x3d
 80033d4:	f884 003c 	strb.w	r0, [r4, #60]	; 0x3c
 80033d8:	e753      	b.n	8003282 <HAL_I2C_Mem_Read_DMA+0x26>
 80033da:	bf00      	nop
 80033dc:	20000020 	.word	0x20000020
 80033e0:	ffff0000 	.word	0xffff0000
 80033e4:	0800359f 	.word	0x0800359f
 80033e8:	0800355b 	.word	0x0800355b

080033ec <HAL_I2C_IsDeviceReady>:
 80033ec:	e92d 4ff0 	stmdb	sp!, {r4, r5, r6, r7, r8, r9, sl, fp, lr}
 80033f0:	4604      	mov	r4, r0
 80033f2:	b085      	sub	sp, #20
 80033f4:	4698      	mov	r8, r3
 80033f6:	4689      	mov	r9, r1
 80033f8:	4692      	mov	sl, r2
 80033fa:	f7fe fdfd 	bl	8001ff8 <HAL_GetTick>
 80033fe:	f894 303d 	ldrb.w	r3, [r4, #61]	; 0x3d
 8003402:	2b20      	cmp	r3, #32
 8003404:	4605      	mov	r5, r0
 8003406:	d003      	beq.n	8003410 <HAL_I2C_IsDeviceReady+0x24>
 8003408:	2002      	movs	r0, #2
 800340a:	b005      	add	sp, #20
 800340c:	e8bd 8ff0 	ldmia.w	sp!, {r4, r5, r6, r7, r8, r9, sl, fp, pc}
 8003410:	9000      	str	r0, [sp, #0]
 8003412:	2319      	movs	r3, #25
 8003414:	2201      	movs	r2, #1
 8003416:	494c      	ldr	r1, [pc, #304]	; (8003548 <HAL_I2C_IsDeviceReady+0x15c>)
 8003418:	4620      	mov	r0, r4
 800341a:	f7ff fcb7 	bl	8002d8c <I2C_WaitOnFlagUntilTimeout>
 800341e:	2800      	cmp	r0, #0
 8003420:	d1f2      	bne.n	8003408 <HAL_I2C_IsDeviceReady+0x1c>
 8003422:	f894 303c 	ldrb.w	r3, [r4, #60]	; 0x3c
 8003426:	2b01      	cmp	r3, #1
 8003428:	d0ee      	beq.n	8003408 <HAL_I2C_IsDeviceReady+0x1c>
 800342a:	2301      	movs	r3, #1
 800342c:	f884 303c 	strb.w	r3, [r4, #60]	; 0x3c
 8003430:	6823      	ldr	r3, [r4, #0]
 8003432:	f8df b114 	ldr.w	fp, [pc, #276]	; 8003548 <HAL_I2C_IsDeviceReady+0x15c>
 8003436:	681a      	ldr	r2, [r3, #0]
 8003438:	07d2      	lsls	r2, r2, #31
 800343a:	bf5e      	ittt	pl
 800343c:	681a      	ldrpl	r2, [r3, #0]
 800343e:	f042 0201 	orrpl.w	r2, r2, #1
 8003442:	601a      	strpl	r2, [r3, #0]
 8003444:	681a      	ldr	r2, [r3, #0]
 8003446:	f422 6200 	bic.w	r2, r2, #2048	; 0x800
 800344a:	601a      	str	r2, [r3, #0]
 800344c:	2324      	movs	r3, #36	; 0x24
 800344e:	f884 303d 	strb.w	r3, [r4, #61]	; 0x3d
 8003452:	2300      	movs	r3, #0
 8003454:	6423      	str	r3, [r4, #64]	; 0x40
 8003456:	f5a3 3380 	sub.w	r3, r3, #65536	; 0x10000
 800345a:	62e3      	str	r3, [r4, #44]	; 0x2c
 800345c:	2701      	movs	r7, #1
 800345e:	f009 09fe 	and.w	r9, r9, #254	; 0xfe
 8003462:	6822      	ldr	r2, [r4, #0]
 8003464:	6813      	ldr	r3, [r2, #0]
 8003466:	f443 7380 	orr.w	r3, r3, #256	; 0x100
 800346a:	6013      	str	r3, [r2, #0]
 800346c:	f04f 1101 	mov.w	r1, #65537	; 0x10001
 8003470:	4643      	mov	r3, r8
 8003472:	9500      	str	r5, [sp, #0]
 8003474:	2200      	movs	r2, #0
 8003476:	4620      	mov	r0, r4
 8003478:	f7ff fc88 	bl	8002d8c <I2C_WaitOnFlagUntilTimeout>
 800347c:	6823      	ldr	r3, [r4, #0]
 800347e:	b138      	cbz	r0, 8003490 <HAL_I2C_IsDeviceReady+0xa4>
 8003480:	681b      	ldr	r3, [r3, #0]
 8003482:	05db      	lsls	r3, r3, #23
 8003484:	d502      	bpl.n	800348c <HAL_I2C_IsDeviceReady+0xa0>
 8003486:	f44f 7300 	mov.w	r3, #512	; 0x200
 800348a:	6423      	str	r3, [r4, #64]	; 0x40
 800348c:	2003      	movs	r0, #3
 800348e:	e7bc      	b.n	800340a <HAL_I2C_IsDeviceReady+0x1e>
 8003490:	f8c3 9010 	str.w	r9, [r3, #16]
 8003494:	f7fe fdb0 	bl	8001ff8 <HAL_GetTick>
 8003498:	6823      	ldr	r3, [r4, #0]
 800349a:	695a      	ldr	r2, [r3, #20]
 800349c:	695b      	ldr	r3, [r3, #20]
 800349e:	4605      	mov	r5, r0
 80034a0:	f3c2 0240 	ubfx	r2, r2, #1, #1
 80034a4:	f3c3 2380 	ubfx	r3, r3, #10, #1
 80034a8:	26a0      	movs	r6, #160	; 0xa0
 80034aa:	f894 103d 	ldrb.w	r1, [r4, #61]	; 0x3d
 80034ae:	29a0      	cmp	r1, #160	; 0xa0
 80034b0:	d001      	beq.n	80034b6 <HAL_I2C_IsDeviceReady+0xca>
 80034b2:	b902      	cbnz	r2, 80034b6 <HAL_I2C_IsDeviceReady+0xca>
 80034b4:	b1e3      	cbz	r3, 80034f0 <HAL_I2C_IsDeviceReady+0x104>
 80034b6:	6823      	ldr	r3, [r4, #0]
 80034b8:	2620      	movs	r6, #32
 80034ba:	f884 603d 	strb.w	r6, [r4, #61]	; 0x3d
 80034be:	695a      	ldr	r2, [r3, #20]
 80034c0:	f012 0f02 	tst.w	r2, #2
 80034c4:	681a      	ldr	r2, [r3, #0]
 80034c6:	f442 7200 	orr.w	r2, r2, #512	; 0x200
 80034ca:	601a      	str	r2, [r3, #0]
 80034cc:	d027      	beq.n	800351e <HAL_I2C_IsDeviceReady+0x132>
 80034ce:	2200      	movs	r2, #0
 80034d0:	9203      	str	r2, [sp, #12]
 80034d2:	695a      	ldr	r2, [r3, #20]
 80034d4:	9203      	str	r2, [sp, #12]
 80034d6:	699b      	ldr	r3, [r3, #24]
 80034d8:	9303      	str	r3, [sp, #12]
 80034da:	9b03      	ldr	r3, [sp, #12]
 80034dc:	9500      	str	r5, [sp, #0]
 80034de:	2319      	movs	r3, #25
 80034e0:	2201      	movs	r2, #1
 80034e2:	4919      	ldr	r1, [pc, #100]	; (8003548 <HAL_I2C_IsDeviceReady+0x15c>)
 80034e4:	4620      	mov	r0, r4
 80034e6:	f7ff fc51 	bl	8002d8c <I2C_WaitOnFlagUntilTimeout>
 80034ea:	b198      	cbz	r0, 8003514 <HAL_I2C_IsDeviceReady+0x128>
 80034ec:	2001      	movs	r0, #1
 80034ee:	e78c      	b.n	800340a <HAL_I2C_IsDeviceReady+0x1e>
 80034f0:	f7fe fd82 	bl	8001ff8 <HAL_GetTick>
 80034f4:	1b40      	subs	r0, r0, r5
 80034f6:	4540      	cmp	r0, r8
 80034f8:	d802      	bhi.n	8003500 <HAL_I2C_IsDeviceReady+0x114>
 80034fa:	f1b8 0f00 	cmp.w	r8, #0
 80034fe:	d101      	bne.n	8003504 <HAL_I2C_IsDeviceReady+0x118>
 8003500:	f884 603d 	strb.w	r6, [r4, #61]	; 0x3d
 8003504:	6823      	ldr	r3, [r4, #0]
 8003506:	695a      	ldr	r2, [r3, #20]
 8003508:	695b      	ldr	r3, [r3, #20]
 800350a:	f3c2 0240 	ubfx	r2, r2, #1, #1
 800350e:	f3c3 2380 	ubfx	r3, r3, #10, #1
 8003512:	e7ca      	b.n	80034aa <HAL_I2C_IsDeviceReady+0xbe>
 8003514:	f884 603d 	strb.w	r6, [r4, #61]	; 0x3d
 8003518:	f884 003c 	strb.w	r0, [r4, #60]	; 0x3c
 800351c:	e775      	b.n	800340a <HAL_I2C_IsDeviceReady+0x1e>
 800351e:	f46f 6280 	mvn.w	r2, #1024	; 0x400
 8003522:	615a      	str	r2, [r3, #20]
 8003524:	4659      	mov	r1, fp
 8003526:	9500      	str	r5, [sp, #0]
 8003528:	2319      	movs	r3, #25
 800352a:	2201      	movs	r2, #1
 800352c:	4620      	mov	r0, r4
 800352e:	f7ff fc2d 	bl	8002d8c <I2C_WaitOnFlagUntilTimeout>
 8003532:	2800      	cmp	r0, #0
 8003534:	d1da      	bne.n	80034ec <HAL_I2C_IsDeviceReady+0x100>
 8003536:	3701      	adds	r7, #1
 8003538:	4557      	cmp	r7, sl
 800353a:	d392      	bcc.n	8003462 <HAL_I2C_IsDeviceReady+0x76>
 800353c:	f884 603d 	strb.w	r6, [r4, #61]	; 0x3d
 8003540:	f884 003c 	strb.w	r0, [r4, #60]	; 0x3c
 8003544:	e7d2      	b.n	80034ec <HAL_I2C_IsDeviceReady+0x100>
 8003546:	bf00      	nop
 8003548:	00100002 	.word	0x00100002

0800354c <HAL_I2C_MasterTxCpltCallback>:
 800354c:	4770      	bx	lr

0800354e <HAL_I2C_MasterRxCpltCallback>:
 800354e:	4770      	bx	lr

08003550 <HAL_I2C_SlaveTxCpltCallback>:
 8003550:	4770      	bx	lr

08003552 <HAL_I2C_SlaveRxCpltCallback>:
 8003552:	4770      	bx	lr

08003554 <HAL_I2C_AddrCallback>:
 8003554:	4770      	bx	lr

08003556 <HAL_I2C_ListenCpltCallback>:
 8003556:	4770      	bx	lr

08003558 <HAL_I2C_ErrorCallback>:
 8003558:	4770      	bx	lr

0800355a <I2C_DMAError>:
 800355a:	b510      	push	{r4, lr}
 800355c:	6b84      	ldr	r4, [r0, #56]	; 0x38
 800355e:	6b63      	ldr	r3, [r4, #52]	; 0x34
 8003560:	b10b      	cbz	r3, 8003566 <I2C_DMAError+0xc>
 8003562:	2200      	movs	r2, #0
 8003564:	63da      	str	r2, [r3, #60]	; 0x3c
 8003566:	6ba3      	ldr	r3, [r4, #56]	; 0x38
 8003568:	b10b      	cbz	r3, 800356e <I2C_DMAError+0x14>
 800356a:	2200      	movs	r2, #0
 800356c:	63da      	str	r2, [r3, #60]	; 0x3c
 800356e:	f7ff fa6e 	bl	8002a4e <HAL_DMA_GetError>
 8003572:	2802      	cmp	r0, #2
 8003574:	d012      	beq.n	800359c <I2C_DMAError+0x42>
 8003576:	6822      	ldr	r2, [r4, #0]
 8003578:	6813      	ldr	r3, [r2, #0]
 800357a:	f423 6380 	bic.w	r3, r3, #1024	; 0x400
 800357e:	6013      	str	r3, [r2, #0]
 8003580:	2300      	movs	r3, #0
 8003582:	2220      	movs	r2, #32
 8003584:	8563      	strh	r3, [r4, #42]	; 0x2a
 8003586:	f884 203d 	strb.w	r2, [r4, #61]	; 0x3d
 800358a:	f884 303e 	strb.w	r3, [r4, #62]	; 0x3e
 800358e:	6c23      	ldr	r3, [r4, #64]	; 0x40
 8003590:	f043 0310 	orr.w	r3, r3, #16
 8003594:	6423      	str	r3, [r4, #64]	; 0x40
 8003596:	4620      	mov	r0, r4
 8003598:	f7ff ffde 	bl	8003558 <HAL_I2C_ErrorCallback>
 800359c:	bd10      	pop	{r4, pc}

0800359e <I2C_DMAXferCplt>:
 800359e:	b570      	push	{r4, r5, r6, lr}
 80035a0:	6b84      	ldr	r4, [r0, #56]	; 0x38
 80035a2:	6823      	ldr	r3, [r4, #0]
 80035a4:	f894 203d 	ldrb.w	r2, [r4, #61]	; 0x3d
 80035a8:	f894 003e 	ldrb.w	r0, [r4, #62]	; 0x3e
 80035ac:	6ae1      	ldr	r1, [r4, #44]	; 0x2c
 80035ae:	685d      	ldr	r5, [r3, #4]
 80035b0:	f425 7540 	bic.w	r5, r5, #768	; 0x300
 80035b4:	605d      	str	r5, [r3, #4]
 80035b6:	6b65      	ldr	r5, [r4, #52]	; 0x34
 80035b8:	b2d2      	uxtb	r2, r2
 80035ba:	b2c0      	uxtb	r0, r0
 80035bc:	b10d      	cbz	r5, 80035c2 <I2C_DMAXferCplt+0x24>
 80035be:	2600      	movs	r6, #0
 80035c0:	63ee      	str	r6, [r5, #60]	; 0x3c
 80035c2:	6ba5      	ldr	r5, [r4, #56]	; 0x38
 80035c4:	b10d      	cbz	r5, 80035ca <I2C_DMAXferCplt+0x2c>
 80035c6:	2600      	movs	r6, #0
 80035c8:	63ee      	str	r6, [r5, #60]	; 0x3c
 80035ca:	f002 0521 	and.w	r5, r2, #33	; 0x21
 80035ce:	2d21      	cmp	r5, #33	; 0x21
 80035d0:	d005      	beq.n	80035de <I2C_DMAXferCplt+0x40>
 80035d2:	f002 0522 	and.w	r5, r2, #34	; 0x22
 80035d6:	2d22      	cmp	r5, #34	; 0x22
 80035d8:	d123      	bne.n	8003622 <I2C_DMAXferCplt+0x84>
 80035da:	2820      	cmp	r0, #32
 80035dc:	d121      	bne.n	8003622 <I2C_DMAXferCplt+0x84>
 80035de:	6859      	ldr	r1, [r3, #4]
 80035e0:	f421 6100 	bic.w	r1, r1, #2048	; 0x800
 80035e4:	6059      	str	r1, [r3, #4]
 80035e6:	2a29      	cmp	r2, #41	; 0x29
 80035e8:	f04f 0300 	mov.w	r3, #0
 80035ec:	8563      	strh	r3, [r4, #42]	; 0x2a
 80035ee:	d10d      	bne.n	800360c <I2C_DMAXferCplt+0x6e>
 80035f0:	2321      	movs	r3, #33	; 0x21
 80035f2:	6323      	str	r3, [r4, #48]	; 0x30
 80035f4:	2328      	movs	r3, #40	; 0x28
 80035f6:	f884 303d 	strb.w	r3, [r4, #61]	; 0x3d
 80035fa:	4620      	mov	r0, r4
 80035fc:	f7ff ffa8 	bl	8003550 <HAL_I2C_SlaveTxCpltCallback>
 8003600:	6822      	ldr	r2, [r4, #0]
 8003602:	6853      	ldr	r3, [r2, #4]
 8003604:	f443 7340 	orr.w	r3, r3, #768	; 0x300
 8003608:	6053      	str	r3, [r2, #4]
 800360a:	bd70      	pop	{r4, r5, r6, pc}
 800360c:	2a2a      	cmp	r2, #42	; 0x2a
 800360e:	d1f7      	bne.n	8003600 <I2C_DMAXferCplt+0x62>
 8003610:	2322      	movs	r3, #34	; 0x22
 8003612:	6323      	str	r3, [r4, #48]	; 0x30
 8003614:	2328      	movs	r3, #40	; 0x28
 8003616:	f884 303d 	strb.w	r3, [r4, #61]	; 0x3d
 800361a:	4620      	mov	r0, r4
 800361c:	f7ff ff99 	bl	8003552 <HAL_I2C_SlaveRxCpltCallback>
 8003620:	e7ee      	b.n	8003600 <I2C_DMAXferCplt+0x62>
 8003622:	f894 203e 	ldrb.w	r2, [r4, #62]	; 0x3e
 8003626:	2a00      	cmp	r2, #0
 8003628:	d0ef      	beq.n	800360a <I2C_DMAXferCplt+0x6c>
 800362a:	8d62      	ldrh	r2, [r4, #42]	; 0x2a
 800362c:	b292      	uxth	r2, r2
 800362e:	2a01      	cmp	r2, #1
 8003630:	bf02      	ittt	eq
 8003632:	681a      	ldreq	r2, [r3, #0]
 8003634:	f422 6280 	biceq.w	r2, r2, #1024	; 0x400
 8003638:	601a      	streq	r2, [r3, #0]
 800363a:	685a      	ldr	r2, [r3, #4]
 800363c:	f511 3f80 	cmn.w	r1, #65536	; 0x10000
 8003640:	f422 7240 	bic.w	r2, r2, #768	; 0x300
 8003644:	605a      	str	r2, [r3, #4]
 8003646:	d006      	beq.n	8003656 <I2C_DMAXferCplt+0xb8>
 8003648:	2908      	cmp	r1, #8
 800364a:	d004      	beq.n	8003656 <I2C_DMAXferCplt+0xb8>
 800364c:	f1b1 4f2a 	cmp.w	r1, #2852126720	; 0xaa000000
 8003650:	d001      	beq.n	8003656 <I2C_DMAXferCplt+0xb8>
 8003652:	2920      	cmp	r1, #32
 8003654:	d103      	bne.n	800365e <I2C_DMAXferCplt+0xc0>
 8003656:	681a      	ldr	r2, [r3, #0]
 8003658:	f442 7200 	orr.w	r2, r2, #512	; 0x200
 800365c:	601a      	str	r2, [r3, #0]
 800365e:	685a      	ldr	r2, [r3, #4]
 8003660:	f422 5280 	bic.w	r2, r2, #4096	; 0x1000
 8003664:	605a      	str	r2, [r3, #4]
 8003666:	685a      	ldr	r2, [r3, #4]
 8003668:	f422 6200 	bic.w	r2, r2, #2048	; 0x800
 800366c:	605a      	str	r2, [r3, #4]
 800366e:	2300      	movs	r3, #0
 8003670:	8563      	strh	r3, [r4, #42]	; 0x2a
 8003672:	6c23      	ldr	r3, [r4, #64]	; 0x40
 8003674:	b11b      	cbz	r3, 800367e <I2C_DMAXferCplt+0xe0>
 8003676:	4620      	mov	r0, r4
 8003678:	f7ff ff6e 	bl	8003558 <HAL_I2C_ErrorCallback>
 800367c:	e7c5      	b.n	800360a <I2C_DMAXferCplt+0x6c>
 800367e:	2220      	movs	r2, #32
 8003680:	f884 203d 	strb.w	r2, [r4, #61]	; 0x3d
 8003684:	f894 203e 	ldrb.w	r2, [r4, #62]	; 0x3e
 8003688:	f884 303e 	strb.w	r3, [r4, #62]	; 0x3e
 800368c:	2a40      	cmp	r2, #64	; 0x40
 800368e:	d104      	bne.n	800369a <I2C_DMAXferCplt+0xfc>
 8003690:	6323      	str	r3, [r4, #48]	; 0x30
 8003692:	4620      	mov	r0, r4
 8003694:	f7fd fadc 	bl	8000c50 <HAL_I2C_MemRxCpltCallback>
 8003698:	e7b7      	b.n	800360a <I2C_DMAXferCplt+0x6c>
 800369a:	2312      	movs	r3, #18
 800369c:	6323      	str	r3, [r4, #48]	; 0x30
 800369e:	4620      	mov	r0, r4
 80036a0:	f7ff ff55 	bl	800354e <HAL_I2C_MasterRxCpltCallback>
 80036a4:	e7b1      	b.n	800360a <I2C_DMAXferCplt+0x6c>

080036a6 <HAL_I2C_AbortCpltCallback>:
 80036a6:	4770      	bx	lr

080036a8 <I2C_DMAAbort>:
 80036a8:	6b80      	ldr	r0, [r0, #56]	; 0x38
 80036aa:	b538      	push	{r3, r4, r5, lr}
 80036ac:	f890 203d 	ldrb.w	r2, [r0, #61]	; 0x3d
 80036b0:	6b45      	ldr	r5, [r0, #52]	; 0x34
 80036b2:	b2d2      	uxtb	r2, r2
 80036b4:	b10d      	cbz	r5, 80036ba <I2C_DMAAbort+0x12>
 80036b6:	2300      	movs	r3, #0
 80036b8:	63eb      	str	r3, [r5, #60]	; 0x3c
 80036ba:	6b84      	ldr	r4, [r0, #56]	; 0x38
 80036bc:	b10c      	cbz	r4, 80036c2 <I2C_DMAAbort+0x1a>
 80036be:	2300      	movs	r3, #0
 80036c0:	63e3      	str	r3, [r4, #60]	; 0x3c
 80036c2:	6803      	ldr	r3, [r0, #0]
 80036c4:	6819      	ldr	r1, [r3, #0]
 80036c6:	f421 6180 	bic.w	r1, r1, #1024	; 0x400
 80036ca:	6019      	str	r1, [r3, #0]
 80036cc:	2100      	movs	r1, #0
 80036ce:	8541      	strh	r1, [r0, #42]	; 0x2a
 80036d0:	b105      	cbz	r5, 80036d4 <I2C_DMAAbort+0x2c>
 80036d2:	6529      	str	r1, [r5, #80]	; 0x50
 80036d4:	b104      	cbz	r4, 80036d8 <I2C_DMAAbort+0x30>
 80036d6:	6521      	str	r1, [r4, #80]	; 0x50
 80036d8:	6819      	ldr	r1, [r3, #0]
 80036da:	f021 0101 	bic.w	r1, r1, #1
 80036de:	6019      	str	r1, [r3, #0]
 80036e0:	f890 103d 	ldrb.w	r1, [r0, #61]	; 0x3d
 80036e4:	2960      	cmp	r1, #96	; 0x60
 80036e6:	d109      	bne.n	80036fc <I2C_DMAAbort+0x54>
 80036e8:	2320      	movs	r3, #32
 80036ea:	f880 303d 	strb.w	r3, [r0, #61]	; 0x3d
 80036ee:	2300      	movs	r3, #0
 80036f0:	f880 303e 	strb.w	r3, [r0, #62]	; 0x3e
 80036f4:	6403      	str	r3, [r0, #64]	; 0x40
 80036f6:	f7ff ffd6 	bl	80036a6 <HAL_I2C_AbortCpltCallback>
 80036fa:	bd38      	pop	{r3, r4, r5, pc}
 80036fc:	f002 0228 	and.w	r2, r2, #40	; 0x28
 8003700:	2a28      	cmp	r2, #40	; 0x28
 8003702:	d10e      	bne.n	8003722 <I2C_DMAAbort+0x7a>
 8003704:	6819      	ldr	r1, [r3, #0]
 8003706:	f041 0101 	orr.w	r1, r1, #1
 800370a:	6019      	str	r1, [r3, #0]
 800370c:	6819      	ldr	r1, [r3, #0]
 800370e:	f441 6180 	orr.w	r1, r1, #1024	; 0x400
 8003712:	6019      	str	r1, [r3, #0]
 8003714:	2300      	movs	r3, #0
 8003716:	6303      	str	r3, [r0, #48]	; 0x30
 8003718:	f880 203d 	strb.w	r2, [r0, #61]	; 0x3d
 800371c:	f7ff ff1c 	bl	8003558 <HAL_I2C_ErrorCallback>
 8003720:	e7eb      	b.n	80036fa <I2C_DMAAbort+0x52>
 8003722:	2320      	movs	r3, #32
 8003724:	f880 303d 	strb.w	r3, [r0, #61]	; 0x3d
 8003728:	2300      	movs	r3, #0
 800372a:	f880 303e 	strb.w	r3, [r0, #62]	; 0x3e
 800372e:	e7f5      	b.n	800371c <I2C_DMAAbort+0x74>

08003730 <I2C_ITError>:
 8003730:	f890 203d 	ldrb.w	r2, [r0, #61]	; 0x3d
 8003734:	f890 103e 	ldrb.w	r1, [r0, #62]	; 0x3e
 8003738:	6803      	ldr	r3, [r0, #0]
 800373a:	2910      	cmp	r1, #16
 800373c:	b510      	push	{r4, lr}
 800373e:	b2d2      	uxtb	r2, r2
 8003740:	4604      	mov	r4, r0
 8003742:	d105      	bne.n	8003750 <I2C_ITError+0x20>
 8003744:	2a22      	cmp	r2, #34	; 0x22
 8003746:	bf02      	ittt	eq
 8003748:	6819      	ldreq	r1, [r3, #0]
 800374a:	f421 6100 	biceq.w	r1, r1, #2048	; 0x800
 800374e:	6019      	streq	r1, [r3, #0]
 8003750:	f002 0128 	and.w	r1, r2, #40	; 0x28
 8003754:	2928      	cmp	r1, #40	; 0x28
 8003756:	d13d      	bne.n	80037d4 <I2C_ITError+0xa4>
 8003758:	2200      	movs	r2, #0
 800375a:	6322      	str	r2, [r4, #48]	; 0x30
 800375c:	f884 103d 	strb.w	r1, [r4, #61]	; 0x3d
 8003760:	685a      	ldr	r2, [r3, #4]
 8003762:	f412 6200 	ands.w	r2, r2, #2048	; 0x800
 8003766:	d05c      	beq.n	8003822 <I2C_ITError+0xf2>
 8003768:	685a      	ldr	r2, [r3, #4]
 800376a:	6b60      	ldr	r0, [r4, #52]	; 0x34
 800376c:	f422 6200 	bic.w	r2, r2, #2048	; 0x800
 8003770:	605a      	str	r2, [r3, #4]
 8003772:	f890 3035 	ldrb.w	r3, [r0, #53]	; 0x35
 8003776:	2b01      	cmp	r3, #1
 8003778:	4b3d      	ldr	r3, [pc, #244]	; (8003870 <I2C_ITError+0x140>)
 800377a:	d038      	beq.n	80037ee <I2C_ITError+0xbe>
 800377c:	6503      	str	r3, [r0, #80]	; 0x50
 800377e:	f7ff f892 	bl	80028a6 <HAL_DMA_Abort_IT>
 8003782:	b150      	cbz	r0, 800379a <I2C_ITError+0x6a>
 8003784:	6822      	ldr	r2, [r4, #0]
 8003786:	6b60      	ldr	r0, [r4, #52]	; 0x34
 8003788:	6813      	ldr	r3, [r2, #0]
 800378a:	f023 0301 	bic.w	r3, r3, #1
 800378e:	6013      	str	r3, [r2, #0]
 8003790:	2320      	movs	r3, #32
 8003792:	f884 303d 	strb.w	r3, [r4, #61]	; 0x3d
 8003796:	6d03      	ldr	r3, [r0, #80]	; 0x50
 8003798:	4798      	blx	r3
 800379a:	6c23      	ldr	r3, [r4, #64]	; 0x40
 800379c:	0719      	lsls	r1, r3, #28
 800379e:	bf1f      	itttt	ne
 80037a0:	6822      	ldrne	r2, [r4, #0]
 80037a2:	6853      	ldrne	r3, [r2, #4]
 80037a4:	f423 63e0 	bicne.w	r3, r3, #1792	; 0x700
 80037a8:	6053      	strne	r3, [r2, #4]
 80037aa:	f894 303d 	ldrb.w	r3, [r4, #61]	; 0x3d
 80037ae:	6c22      	ldr	r2, [r4, #64]	; 0x40
 80037b0:	0752      	lsls	r2, r2, #29
 80037b2:	b2db      	uxtb	r3, r3
 80037b4:	d50d      	bpl.n	80037d2 <I2C_ITError+0xa2>
 80037b6:	2b28      	cmp	r3, #40	; 0x28
 80037b8:	d10b      	bne.n	80037d2 <I2C_ITError+0xa2>
 80037ba:	4b2e      	ldr	r3, [pc, #184]	; (8003874 <I2C_ITError+0x144>)
 80037bc:	62e3      	str	r3, [r4, #44]	; 0x2c
 80037be:	2220      	movs	r2, #32
 80037c0:	2300      	movs	r3, #0
 80037c2:	6323      	str	r3, [r4, #48]	; 0x30
 80037c4:	4620      	mov	r0, r4
 80037c6:	f884 203d 	strb.w	r2, [r4, #61]	; 0x3d
 80037ca:	f884 303e 	strb.w	r3, [r4, #62]	; 0x3e
 80037ce:	f7ff fec2 	bl	8003556 <HAL_I2C_ListenCpltCallback>
 80037d2:	bd10      	pop	{r4, pc}
 80037d4:	6859      	ldr	r1, [r3, #4]
 80037d6:	0508      	lsls	r0, r1, #20
 80037d8:	d404      	bmi.n	80037e4 <I2C_ITError+0xb4>
 80037da:	2a60      	cmp	r2, #96	; 0x60
 80037dc:	bf1c      	itt	ne
 80037de:	2220      	movne	r2, #32
 80037e0:	f884 203d 	strbne.w	r2, [r4, #61]	; 0x3d
 80037e4:	2200      	movs	r2, #0
 80037e6:	6322      	str	r2, [r4, #48]	; 0x30
 80037e8:	f884 203e 	strb.w	r2, [r4, #62]	; 0x3e
 80037ec:	e7b8      	b.n	8003760 <I2C_ITError+0x30>
 80037ee:	6ba0      	ldr	r0, [r4, #56]	; 0x38
 80037f0:	6503      	str	r3, [r0, #80]	; 0x50
 80037f2:	f7ff f858 	bl	80028a6 <HAL_DMA_Abort_IT>
 80037f6:	2800      	cmp	r0, #0
 80037f8:	d0cf      	beq.n	800379a <I2C_ITError+0x6a>
 80037fa:	6823      	ldr	r3, [r4, #0]
 80037fc:	695a      	ldr	r2, [r3, #20]
 80037fe:	0651      	lsls	r1, r2, #25
 8003800:	d505      	bpl.n	800380e <I2C_ITError+0xde>
 8003802:	691a      	ldr	r2, [r3, #16]
 8003804:	6a63      	ldr	r3, [r4, #36]	; 0x24
 8003806:	701a      	strb	r2, [r3, #0]
 8003808:	6a63      	ldr	r3, [r4, #36]	; 0x24
 800380a:	3301      	adds	r3, #1
 800380c:	6263      	str	r3, [r4, #36]	; 0x24
 800380e:	6822      	ldr	r2, [r4, #0]
 8003810:	6ba0      	ldr	r0, [r4, #56]	; 0x38
 8003812:	6813      	ldr	r3, [r2, #0]
 8003814:	f023 0301 	bic.w	r3, r3, #1
 8003818:	6013      	str	r3, [r2, #0]
 800381a:	2320      	movs	r3, #32
 800381c:	f884 303d 	strb.w	r3, [r4, #61]	; 0x3d
 8003820:	e7b9      	b.n	8003796 <I2C_ITError+0x66>
 8003822:	f894 103d 	ldrb.w	r1, [r4, #61]	; 0x3d
 8003826:	2960      	cmp	r1, #96	; 0x60
 8003828:	d115      	bne.n	8003856 <I2C_ITError+0x126>
 800382a:	2120      	movs	r1, #32
 800382c:	f884 103d 	strb.w	r1, [r4, #61]	; 0x3d
 8003830:	6422      	str	r2, [r4, #64]	; 0x40
 8003832:	695a      	ldr	r2, [r3, #20]
 8003834:	0652      	lsls	r2, r2, #25
 8003836:	d505      	bpl.n	8003844 <I2C_ITError+0x114>
 8003838:	691a      	ldr	r2, [r3, #16]
 800383a:	6a63      	ldr	r3, [r4, #36]	; 0x24
 800383c:	701a      	strb	r2, [r3, #0]
 800383e:	6a63      	ldr	r3, [r4, #36]	; 0x24
 8003840:	3301      	adds	r3, #1
 8003842:	6263      	str	r3, [r4, #36]	; 0x24
 8003844:	6822      	ldr	r2, [r4, #0]
 8003846:	6813      	ldr	r3, [r2, #0]
 8003848:	f023 0301 	bic.w	r3, r3, #1
 800384c:	6013      	str	r3, [r2, #0]
 800384e:	4620      	mov	r0, r4
 8003850:	f7ff ff29 	bl	80036a6 <HAL_I2C_AbortCpltCallback>
 8003854:	e7a1      	b.n	800379a <I2C_ITError+0x6a>
 8003856:	695a      	ldr	r2, [r3, #20]
 8003858:	0650      	lsls	r0, r2, #25
 800385a:	d505      	bpl.n	8003868 <I2C_ITError+0x138>
 800385c:	691a      	ldr	r2, [r3, #16]
 800385e:	6a63      	ldr	r3, [r4, #36]	; 0x24
 8003860:	701a      	strb	r2, [r3, #0]
 8003862:	6a63      	ldr	r3, [r4, #36]	; 0x24
 8003864:	3301      	adds	r3, #1
 8003866:	6263      	str	r3, [r4, #36]	; 0x24
 8003868:	4620      	mov	r0, r4
 800386a:	f7ff fe75 	bl	8003558 <HAL_I2C_ErrorCallback>
 800386e:	e794      	b.n	800379a <I2C_ITError+0x6a>
 8003870:	080036a9 	.word	0x080036a9
 8003874:	ffff0000 	.word	0xffff0000

08003878 <HAL_I2C_EV_IRQHandler>:
 8003878:	6803      	ldr	r3, [r0, #0]
 800387a:	b530      	push	{r4, r5, lr}
 800387c:	685a      	ldr	r2, [r3, #4]
 800387e:	6ac5      	ldr	r5, [r0, #44]	; 0x2c
 8003880:	f890 103e 	ldrb.w	r1, [r0, #62]	; 0x3e
 8003884:	4604      	mov	r4, r0
 8003886:	b2c9      	uxtb	r1, r1
 8003888:	f890 003d 	ldrb.w	r0, [r0, #61]	; 0x3d
 800388c:	2910      	cmp	r1, #16
 800388e:	b08d      	sub	sp, #52	; 0x34
 8003890:	b2c0      	uxtb	r0, r0
 8003892:	d002      	beq.n	800389a <HAL_I2C_EV_IRQHandler+0x22>
 8003894:	2940      	cmp	r1, #64	; 0x40
 8003896:	f040 829b 	bne.w	8003dd0 <HAL_I2C_EV_IRQHandler+0x558>
 800389a:	6999      	ldr	r1, [r3, #24]
 800389c:	6958      	ldr	r0, [r3, #20]
 800389e:	f010 0f01 	tst.w	r0, #1
 80038a2:	d107      	bne.n	80038b4 <HAL_I2C_EV_IRQHandler+0x3c>
 80038a4:	f5b5 0f2a 	cmp.w	r5, #11141120	; 0xaa0000
 80038a8:	d002      	beq.n	80038b0 <HAL_I2C_EV_IRQHandler+0x38>
 80038aa:	f1b5 4f2a 	cmp.w	r5, #2852126720	; 0xaa000000
 80038ae:	d150      	bne.n	8003952 <HAL_I2C_EV_IRQHandler+0xda>
 80038b0:	b00d      	add	sp, #52	; 0x34
 80038b2:	bd30      	pop	{r4, r5, pc}
 80038b4:	0595      	lsls	r5, r2, #22
 80038b6:	d54c      	bpl.n	8003952 <HAL_I2C_EV_IRQHandler+0xda>
 80038b8:	6ae2      	ldr	r2, [r4, #44]	; 0x2c
 80038ba:	f5b2 0f2a 	cmp.w	r2, #11141120	; 0xaa0000
 80038be:	d10c      	bne.n	80038da <HAL_I2C_EV_IRQHandler+0x62>
 80038c0:	2201      	movs	r2, #1
 80038c2:	62e2      	str	r2, [r4, #44]	; 0x2c
 80038c4:	f894 203e 	ldrb.w	r2, [r4, #62]	; 0x3e
 80038c8:	2a40      	cmp	r2, #64	; 0x40
 80038ca:	d111      	bne.n	80038f0 <HAL_I2C_EV_IRQHandler+0x78>
 80038cc:	6d22      	ldr	r2, [r4, #80]	; 0x50
 80038ce:	b952      	cbnz	r2, 80038e6 <HAL_I2C_EV_IRQHandler+0x6e>
 80038d0:	6c62      	ldr	r2, [r4, #68]	; 0x44
 80038d2:	f002 02fe 	and.w	r2, r2, #254	; 0xfe
 80038d6:	611a      	str	r2, [r3, #16]
 80038d8:	e7ea      	b.n	80038b0 <HAL_I2C_EV_IRQHandler+0x38>
 80038da:	6ae2      	ldr	r2, [r4, #44]	; 0x2c
 80038dc:	f1b2 4f2a 	cmp.w	r2, #2852126720	; 0xaa000000
 80038e0:	d1f0      	bne.n	80038c4 <HAL_I2C_EV_IRQHandler+0x4c>
 80038e2:	2208      	movs	r2, #8
 80038e4:	e7ed      	b.n	80038c2 <HAL_I2C_EV_IRQHandler+0x4a>
 80038e6:	6c62      	ldr	r2, [r4, #68]	; 0x44
 80038e8:	f042 0201 	orr.w	r2, r2, #1
 80038ec:	b2d2      	uxtb	r2, r2
 80038ee:	e7f2      	b.n	80038d6 <HAL_I2C_EV_IRQHandler+0x5e>
 80038f0:	6922      	ldr	r2, [r4, #16]
 80038f2:	f5b2 4f80 	cmp.w	r2, #16384	; 0x4000
 80038f6:	d119      	bne.n	800392c <HAL_I2C_EV_IRQHandler+0xb4>
 80038f8:	f894 203d 	ldrb.w	r2, [r4, #61]	; 0x3d
 80038fc:	2a21      	cmp	r2, #33	; 0x21
 80038fe:	6c62      	ldr	r2, [r4, #68]	; 0x44
 8003900:	bf16      	itet	ne
 8003902:	f042 0201 	orrne.w	r2, r2, #1
 8003906:	f002 02fe 	andeq.w	r2, r2, #254	; 0xfe
 800390a:	b2d2      	uxtbne	r2, r2
 800390c:	611a      	str	r2, [r3, #16]
 800390e:	6b62      	ldr	r2, [r4, #52]	; 0x34
 8003910:	b10a      	cbz	r2, 8003916 <HAL_I2C_EV_IRQHandler+0x9e>
 8003912:	6bd2      	ldr	r2, [r2, #60]	; 0x3c
 8003914:	b92a      	cbnz	r2, 8003922 <HAL_I2C_EV_IRQHandler+0xaa>
 8003916:	6ba2      	ldr	r2, [r4, #56]	; 0x38
 8003918:	2a00      	cmp	r2, #0
 800391a:	d0c9      	beq.n	80038b0 <HAL_I2C_EV_IRQHandler+0x38>
 800391c:	6bd2      	ldr	r2, [r2, #60]	; 0x3c
 800391e:	2a00      	cmp	r2, #0
 8003920:	d0c6      	beq.n	80038b0 <HAL_I2C_EV_IRQHandler+0x38>
 8003922:	685a      	ldr	r2, [r3, #4]
 8003924:	f442 6200 	orr.w	r2, r2, #2048	; 0x800
 8003928:	605a      	str	r2, [r3, #4]
 800392a:	e7c1      	b.n	80038b0 <HAL_I2C_EV_IRQHandler+0x38>
 800392c:	6d22      	ldr	r2, [r4, #80]	; 0x50
 800392e:	b932      	cbnz	r2, 800393e <HAL_I2C_EV_IRQHandler+0xc6>
 8003930:	6c62      	ldr	r2, [r4, #68]	; 0x44
 8003932:	11d2      	asrs	r2, r2, #7
 8003934:	f002 0206 	and.w	r2, r2, #6
 8003938:	f042 02f0 	orr.w	r2, r2, #240	; 0xf0
 800393c:	e7cb      	b.n	80038d6 <HAL_I2C_EV_IRQHandler+0x5e>
 800393e:	6d22      	ldr	r2, [r4, #80]	; 0x50
 8003940:	2a01      	cmp	r2, #1
 8003942:	d1b5      	bne.n	80038b0 <HAL_I2C_EV_IRQHandler+0x38>
 8003944:	6c62      	ldr	r2, [r4, #68]	; 0x44
 8003946:	11d2      	asrs	r2, r2, #7
 8003948:	f002 0206 	and.w	r2, r2, #6
 800394c:	f042 02f1 	orr.w	r2, r2, #241	; 0xf1
 8003950:	e7c1      	b.n	80038d6 <HAL_I2C_EV_IRQHandler+0x5e>
 8003952:	0705      	lsls	r5, r0, #28
 8003954:	d50e      	bpl.n	8003974 <HAL_I2C_EV_IRQHandler+0xfc>
 8003956:	0595      	lsls	r5, r2, #22
 8003958:	d50c      	bpl.n	8003974 <HAL_I2C_EV_IRQHandler+0xfc>
 800395a:	6c62      	ldr	r2, [r4, #68]	; 0x44
 800395c:	b2d2      	uxtb	r2, r2
 800395e:	611a      	str	r2, [r3, #16]
 8003960:	6b62      	ldr	r2, [r4, #52]	; 0x34
 8003962:	b912      	cbnz	r2, 800396a <HAL_I2C_EV_IRQHandler+0xf2>
 8003964:	6ba1      	ldr	r1, [r4, #56]	; 0x38
 8003966:	2900      	cmp	r1, #0
 8003968:	d0a2      	beq.n	80038b0 <HAL_I2C_EV_IRQHandler+0x38>
 800396a:	6bd2      	ldr	r2, [r2, #60]	; 0x3c
 800396c:	2a00      	cmp	r2, #0
 800396e:	d1d8      	bne.n	8003922 <HAL_I2C_EV_IRQHandler+0xaa>
 8003970:	6ba2      	ldr	r2, [r4, #56]	; 0x38
 8003972:	e7d3      	b.n	800391c <HAL_I2C_EV_IRQHandler+0xa4>
 8003974:	0785      	lsls	r5, r0, #30
 8003976:	f140 80dd 	bpl.w	8003b34 <HAL_I2C_EV_IRQHandler+0x2bc>
 800397a:	0595      	lsls	r5, r2, #22
 800397c:	f140 80da 	bpl.w	8003b34 <HAL_I2C_EV_IRQHandler+0x2bc>
 8003980:	f894 103e 	ldrb.w	r1, [r4, #62]	; 0x3e
 8003984:	6ae2      	ldr	r2, [r4, #44]	; 0x2c
 8003986:	6b25      	ldr	r5, [r4, #48]	; 0x30
 8003988:	f894 003d 	ldrb.w	r0, [r4, #61]	; 0x3d
 800398c:	2822      	cmp	r0, #34	; 0x22
 800398e:	b2c9      	uxtb	r1, r1
 8003990:	f040 80c8 	bne.w	8003b24 <HAL_I2C_EV_IRQHandler+0x2ac>
 8003994:	6d20      	ldr	r0, [r4, #80]	; 0x50
 8003996:	b940      	cbnz	r0, 80039aa <HAL_I2C_EV_IRQHandler+0x132>
 8003998:	2940      	cmp	r1, #64	; 0x40
 800399a:	d106      	bne.n	80039aa <HAL_I2C_EV_IRQHandler+0x132>
 800399c:	9001      	str	r0, [sp, #4]
 800399e:	695a      	ldr	r2, [r3, #20]
 80039a0:	9201      	str	r2, [sp, #4]
 80039a2:	699b      	ldr	r3, [r3, #24]
 80039a4:	9301      	str	r3, [sp, #4]
 80039a6:	9b01      	ldr	r3, [sp, #4]
 80039a8:	e782      	b.n	80038b0 <HAL_I2C_EV_IRQHandler+0x38>
 80039aa:	6d21      	ldr	r1, [r4, #80]	; 0x50
 80039ac:	b989      	cbnz	r1, 80039d2 <HAL_I2C_EV_IRQHandler+0x15a>
 80039ae:	6920      	ldr	r0, [r4, #16]
 80039b0:	f5b0 4f40 	cmp.w	r0, #49152	; 0xc000
 80039b4:	d10d      	bne.n	80039d2 <HAL_I2C_EV_IRQHandler+0x15a>
 80039b6:	9102      	str	r1, [sp, #8]
 80039b8:	695a      	ldr	r2, [r3, #20]
 80039ba:	9202      	str	r2, [sp, #8]
 80039bc:	699a      	ldr	r2, [r3, #24]
 80039be:	9202      	str	r2, [sp, #8]
 80039c0:	9a02      	ldr	r2, [sp, #8]
 80039c2:	681a      	ldr	r2, [r3, #0]
 80039c4:	f442 7280 	orr.w	r2, r2, #256	; 0x100
 80039c8:	601a      	str	r2, [r3, #0]
 80039ca:	6d23      	ldr	r3, [r4, #80]	; 0x50
 80039cc:	3301      	adds	r3, #1
 80039ce:	6523      	str	r3, [r4, #80]	; 0x50
 80039d0:	e76e      	b.n	80038b0 <HAL_I2C_EV_IRQHandler+0x38>
 80039d2:	8d61      	ldrh	r1, [r4, #42]	; 0x2a
 80039d4:	b289      	uxth	r1, r1
 80039d6:	b951      	cbnz	r1, 80039ee <HAL_I2C_EV_IRQHandler+0x176>
 80039d8:	9103      	str	r1, [sp, #12]
 80039da:	695a      	ldr	r2, [r3, #20]
 80039dc:	9203      	str	r2, [sp, #12]
 80039de:	699a      	ldr	r2, [r3, #24]
 80039e0:	9203      	str	r2, [sp, #12]
 80039e2:	9a03      	ldr	r2, [sp, #12]
 80039e4:	681a      	ldr	r2, [r3, #0]
 80039e6:	f442 7200 	orr.w	r2, r2, #512	; 0x200
 80039ea:	601a      	str	r2, [r3, #0]
 80039ec:	e019      	b.n	8003a22 <HAL_I2C_EV_IRQHandler+0x1aa>
 80039ee:	8d61      	ldrh	r1, [r4, #42]	; 0x2a
 80039f0:	b289      	uxth	r1, r1
 80039f2:	2901      	cmp	r1, #1
 80039f4:	d149      	bne.n	8003a8a <HAL_I2C_EV_IRQHandler+0x212>
 80039f6:	f512 3f80 	cmn.w	r2, #65536	; 0x10000
 80039fa:	d11b      	bne.n	8003a34 <HAL_I2C_EV_IRQHandler+0x1bc>
 80039fc:	681a      	ldr	r2, [r3, #0]
 80039fe:	f422 6280 	bic.w	r2, r2, #1024	; 0x400
 8003a02:	601a      	str	r2, [r3, #0]
 8003a04:	685a      	ldr	r2, [r3, #4]
 8003a06:	f412 6200 	ands.w	r2, r2, #2048	; 0x800
 8003a0a:	d00c      	beq.n	8003a26 <HAL_I2C_EV_IRQHandler+0x1ae>
 8003a0c:	681a      	ldr	r2, [r3, #0]
 8003a0e:	f422 6280 	bic.w	r2, r2, #1024	; 0x400
 8003a12:	601a      	str	r2, [r3, #0]
 8003a14:	2200      	movs	r2, #0
 8003a16:	9204      	str	r2, [sp, #16]
 8003a18:	695a      	ldr	r2, [r3, #20]
 8003a1a:	9204      	str	r2, [sp, #16]
 8003a1c:	699b      	ldr	r3, [r3, #24]
 8003a1e:	9304      	str	r3, [sp, #16]
 8003a20:	9b04      	ldr	r3, [sp, #16]
 8003a22:	2300      	movs	r3, #0
 8003a24:	e7d3      	b.n	80039ce <HAL_I2C_EV_IRQHandler+0x156>
 8003a26:	9205      	str	r2, [sp, #20]
 8003a28:	695a      	ldr	r2, [r3, #20]
 8003a2a:	9205      	str	r2, [sp, #20]
 8003a2c:	699a      	ldr	r2, [r3, #24]
 8003a2e:	9205      	str	r2, [sp, #20]
 8003a30:	9a05      	ldr	r2, [sp, #20]
 8003a32:	e7d7      	b.n	80039e4 <HAL_I2C_EV_IRQHandler+0x16c>
 8003a34:	2a08      	cmp	r2, #8
 8003a36:	d01c      	beq.n	8003a72 <HAL_I2C_EV_IRQHandler+0x1fa>
 8003a38:	2a20      	cmp	r2, #32
 8003a3a:	d01a      	beq.n	8003a72 <HAL_I2C_EV_IRQHandler+0x1fa>
 8003a3c:	2d12      	cmp	r5, #18
 8003a3e:	d10d      	bne.n	8003a5c <HAL_I2C_EV_IRQHandler+0x1e4>
 8003a40:	2a01      	cmp	r2, #1
 8003a42:	d116      	bne.n	8003a72 <HAL_I2C_EV_IRQHandler+0x1fa>
 8003a44:	681a      	ldr	r2, [r3, #0]
 8003a46:	f422 6280 	bic.w	r2, r2, #1024	; 0x400
 8003a4a:	601a      	str	r2, [r3, #0]
 8003a4c:	2200      	movs	r2, #0
 8003a4e:	9206      	str	r2, [sp, #24]
 8003a50:	695a      	ldr	r2, [r3, #20]
 8003a52:	9206      	str	r2, [sp, #24]
 8003a54:	699b      	ldr	r3, [r3, #24]
 8003a56:	9306      	str	r3, [sp, #24]
 8003a58:	9b06      	ldr	r3, [sp, #24]
 8003a5a:	e7e2      	b.n	8003a22 <HAL_I2C_EV_IRQHandler+0x1aa>
 8003a5c:	2a10      	cmp	r2, #16
 8003a5e:	d8f1      	bhi.n	8003a44 <HAL_I2C_EV_IRQHandler+0x1cc>
 8003a60:	49a4      	ldr	r1, [pc, #656]	; (8003cf4 <HAL_I2C_EV_IRQHandler+0x47c>)
 8003a62:	fa21 f202 	lsr.w	r2, r1, r2
 8003a66:	07d0      	lsls	r0, r2, #31
 8003a68:	d5ec      	bpl.n	8003a44 <HAL_I2C_EV_IRQHandler+0x1cc>
 8003a6a:	681a      	ldr	r2, [r3, #0]
 8003a6c:	f442 6280 	orr.w	r2, r2, #1024	; 0x400
 8003a70:	e7eb      	b.n	8003a4a <HAL_I2C_EV_IRQHandler+0x1d2>
 8003a72:	681a      	ldr	r2, [r3, #0]
 8003a74:	f422 6280 	bic.w	r2, r2, #1024	; 0x400
 8003a78:	601a      	str	r2, [r3, #0]
 8003a7a:	2200      	movs	r2, #0
 8003a7c:	9207      	str	r2, [sp, #28]
 8003a7e:	695a      	ldr	r2, [r3, #20]
 8003a80:	9207      	str	r2, [sp, #28]
 8003a82:	699a      	ldr	r2, [r3, #24]
 8003a84:	9207      	str	r2, [sp, #28]
 8003a86:	9a07      	ldr	r2, [sp, #28]
 8003a88:	e7ac      	b.n	80039e4 <HAL_I2C_EV_IRQHandler+0x16c>
 8003a8a:	8d61      	ldrh	r1, [r4, #42]	; 0x2a
 8003a8c:	b289      	uxth	r1, r1
 8003a8e:	2902      	cmp	r1, #2
 8003a90:	d12a      	bne.n	8003ae8 <HAL_I2C_EV_IRQHandler+0x270>
 8003a92:	2a10      	cmp	r2, #16
 8003a94:	d803      	bhi.n	8003a9e <HAL_I2C_EV_IRQHandler+0x226>
 8003a96:	4997      	ldr	r1, [pc, #604]	; (8003cf4 <HAL_I2C_EV_IRQHandler+0x47c>)
 8003a98:	40d1      	lsrs	r1, r2
 8003a9a:	07c9      	lsls	r1, r1, #31
 8003a9c:	d420      	bmi.n	8003ae0 <HAL_I2C_EV_IRQHandler+0x268>
 8003a9e:	6819      	ldr	r1, [r3, #0]
 8003aa0:	f421 6180 	bic.w	r1, r1, #1024	; 0x400
 8003aa4:	6019      	str	r1, [r3, #0]
 8003aa6:	6819      	ldr	r1, [r3, #0]
 8003aa8:	f441 6100 	orr.w	r1, r1, #2048	; 0x800
 8003aac:	6019      	str	r1, [r3, #0]
 8003aae:	6859      	ldr	r1, [r3, #4]
 8003ab0:	050d      	lsls	r5, r1, #20
 8003ab2:	d50d      	bpl.n	8003ad0 <HAL_I2C_EV_IRQHandler+0x258>
 8003ab4:	f512 3f80 	cmn.w	r2, #65536	; 0x10000
 8003ab8:	d006      	beq.n	8003ac8 <HAL_I2C_EV_IRQHandler+0x250>
 8003aba:	1e51      	subs	r1, r2, #1
 8003abc:	291f      	cmp	r1, #31
 8003abe:	d807      	bhi.n	8003ad0 <HAL_I2C_EV_IRQHandler+0x258>
 8003ac0:	4a8d      	ldr	r2, [pc, #564]	; (8003cf8 <HAL_I2C_EV_IRQHandler+0x480>)
 8003ac2:	40ca      	lsrs	r2, r1
 8003ac4:	07d0      	lsls	r0, r2, #31
 8003ac6:	d503      	bpl.n	8003ad0 <HAL_I2C_EV_IRQHandler+0x258>
 8003ac8:	685a      	ldr	r2, [r3, #4]
 8003aca:	f442 5280 	orr.w	r2, r2, #4096	; 0x1000
 8003ace:	605a      	str	r2, [r3, #4]
 8003ad0:	2200      	movs	r2, #0
 8003ad2:	9208      	str	r2, [sp, #32]
 8003ad4:	695a      	ldr	r2, [r3, #20]
 8003ad6:	9208      	str	r2, [sp, #32]
 8003ad8:	699b      	ldr	r3, [r3, #24]
 8003ada:	9308      	str	r3, [sp, #32]
 8003adc:	9b08      	ldr	r3, [sp, #32]
 8003ade:	e7a0      	b.n	8003a22 <HAL_I2C_EV_IRQHandler+0x1aa>
 8003ae0:	6819      	ldr	r1, [r3, #0]
 8003ae2:	f441 6180 	orr.w	r1, r1, #1024	; 0x400
 8003ae6:	e7e1      	b.n	8003aac <HAL_I2C_EV_IRQHandler+0x234>
 8003ae8:	6819      	ldr	r1, [r3, #0]
 8003aea:	f441 6180 	orr.w	r1, r1, #1024	; 0x400
 8003aee:	6019      	str	r1, [r3, #0]
 8003af0:	6859      	ldr	r1, [r3, #4]
 8003af2:	0509      	lsls	r1, r1, #20
 8003af4:	d50e      	bpl.n	8003b14 <HAL_I2C_EV_IRQHandler+0x29c>
 8003af6:	f512 3f80 	cmn.w	r2, #65536	; 0x10000
 8003afa:	d007      	beq.n	8003b0c <HAL_I2C_EV_IRQHandler+0x294>
 8003afc:	3a01      	subs	r2, #1
 8003afe:	2a1f      	cmp	r2, #31
 8003b00:	d808      	bhi.n	8003b14 <HAL_I2C_EV_IRQHandler+0x29c>
 8003b02:	497d      	ldr	r1, [pc, #500]	; (8003cf8 <HAL_I2C_EV_IRQHandler+0x480>)
 8003b04:	fa21 f202 	lsr.w	r2, r1, r2
 8003b08:	07d2      	lsls	r2, r2, #31
 8003b0a:	d503      	bpl.n	8003b14 <HAL_I2C_EV_IRQHandler+0x29c>
 8003b0c:	685a      	ldr	r2, [r3, #4]
 8003b0e:	f442 5280 	orr.w	r2, r2, #4096	; 0x1000
 8003b12:	605a      	str	r2, [r3, #4]
 8003b14:	2200      	movs	r2, #0
 8003b16:	9209      	str	r2, [sp, #36]	; 0x24
 8003b18:	695a      	ldr	r2, [r3, #20]
 8003b1a:	9209      	str	r2, [sp, #36]	; 0x24
 8003b1c:	699b      	ldr	r3, [r3, #24]
 8003b1e:	9309      	str	r3, [sp, #36]	; 0x24
 8003b20:	9b09      	ldr	r3, [sp, #36]	; 0x24
 8003b22:	e77e      	b.n	8003a22 <HAL_I2C_EV_IRQHandler+0x1aa>
 8003b24:	2200      	movs	r2, #0
 8003b26:	920a      	str	r2, [sp, #40]	; 0x28
 8003b28:	695a      	ldr	r2, [r3, #20]
 8003b2a:	920a      	str	r2, [sp, #40]	; 0x28
 8003b2c:	699b      	ldr	r3, [r3, #24]
 8003b2e:	930a      	str	r3, [sp, #40]	; 0x28
 8003b30:	9b0a      	ldr	r3, [sp, #40]	; 0x28
 8003b32:	e6bd      	b.n	80038b0 <HAL_I2C_EV_IRQHandler+0x38>
 8003b34:	f011 0f04 	tst.w	r1, #4
 8003b38:	6859      	ldr	r1, [r3, #4]
 8003b3a:	f000 808b 	beq.w	8003c54 <HAL_I2C_EV_IRQHandler+0x3dc>
 8003b3e:	050d      	lsls	r5, r1, #20
 8003b40:	f53f aeb6 	bmi.w	80038b0 <HAL_I2C_EV_IRQHandler+0x38>
 8003b44:	f3c0 0180 	ubfx	r1, r0, #2, #1
 8003b48:	0600      	lsls	r0, r0, #24
 8003b4a:	d53e      	bpl.n	8003bca <HAL_I2C_EV_IRQHandler+0x352>
 8003b4c:	0555      	lsls	r5, r2, #21
 8003b4e:	d53c      	bpl.n	8003bca <HAL_I2C_EV_IRQHandler+0x352>
 8003b50:	2900      	cmp	r1, #0
 8003b52:	d13d      	bne.n	8003bd0 <HAL_I2C_EV_IRQHandler+0x358>
 8003b54:	f894 203d 	ldrb.w	r2, [r4, #61]	; 0x3d
 8003b58:	8d25      	ldrh	r5, [r4, #40]	; 0x28
 8003b5a:	f894 103e 	ldrb.w	r1, [r4, #62]	; 0x3e
 8003b5e:	6ae0      	ldr	r0, [r4, #44]	; 0x2c
 8003b60:	b2d2      	uxtb	r2, r2
 8003b62:	b2c9      	uxtb	r1, r1
 8003b64:	b9c5      	cbnz	r5, 8003b98 <HAL_I2C_EV_IRQHandler+0x320>
 8003b66:	2a21      	cmp	r2, #33	; 0x21
 8003b68:	d118      	bne.n	8003b9c <HAL_I2C_EV_IRQHandler+0x324>
 8003b6a:	2808      	cmp	r0, #8
 8003b6c:	d055      	beq.n	8003c1a <HAL_I2C_EV_IRQHandler+0x3a2>
 8003b6e:	2820      	cmp	r0, #32
 8003b70:	d053      	beq.n	8003c1a <HAL_I2C_EV_IRQHandler+0x3a2>
 8003b72:	f510 3f80 	cmn.w	r0, #65536	; 0x10000
 8003b76:	d050      	beq.n	8003c1a <HAL_I2C_EV_IRQHandler+0x3a2>
 8003b78:	685a      	ldr	r2, [r3, #4]
 8003b7a:	f422 62e0 	bic.w	r2, r2, #1792	; 0x700
 8003b7e:	605a      	str	r2, [r3, #4]
 8003b80:	2311      	movs	r3, #17
 8003b82:	6323      	str	r3, [r4, #48]	; 0x30
 8003b84:	2300      	movs	r3, #0
 8003b86:	f884 303e 	strb.w	r3, [r4, #62]	; 0x3e
 8003b8a:	2320      	movs	r3, #32
 8003b8c:	f884 303d 	strb.w	r3, [r4, #61]	; 0x3d
 8003b90:	4620      	mov	r0, r4
 8003b92:	f7ff fcdb 	bl	800354c <HAL_I2C_MasterTxCpltCallback>
 8003b96:	e68b      	b.n	80038b0 <HAL_I2C_EV_IRQHandler+0x38>
 8003b98:	2a21      	cmp	r2, #33	; 0x21
 8003b9a:	d005      	beq.n	8003ba8 <HAL_I2C_EV_IRQHandler+0x330>
 8003b9c:	2940      	cmp	r1, #64	; 0x40
 8003b9e:	f47f ae87 	bne.w	80038b0 <HAL_I2C_EV_IRQHandler+0x38>
 8003ba2:	2a22      	cmp	r2, #34	; 0x22
 8003ba4:	f47f ae84 	bne.w	80038b0 <HAL_I2C_EV_IRQHandler+0x38>
 8003ba8:	8d62      	ldrh	r2, [r4, #42]	; 0x2a
 8003baa:	b292      	uxth	r2, r2
 8003bac:	b91a      	cbnz	r2, 8003bb6 <HAL_I2C_EV_IRQHandler+0x33e>
 8003bae:	685a      	ldr	r2, [r3, #4]
 8003bb0:	f422 6280 	bic.w	r2, r2, #1024	; 0x400
 8003bb4:	e6b8      	b.n	8003928 <HAL_I2C_EV_IRQHandler+0xb0>
 8003bb6:	f894 203e 	ldrb.w	r2, [r4, #62]	; 0x3e
 8003bba:	2a40      	cmp	r2, #64	; 0x40
 8003bbc:	d113      	bne.n	8003be6 <HAL_I2C_EV_IRQHandler+0x36e>
 8003bbe:	4620      	mov	r0, r4
 8003bc0:	b00d      	add	sp, #52	; 0x34
 8003bc2:	e8bd 4030 	ldmia.w	sp!, {r4, r5, lr}
 8003bc6:	f7ff b885 	b.w	8002cd4 <I2C_MemoryTransmit_TXE_BTF>
 8003bca:	2900      	cmp	r1, #0
 8003bcc:	f43f ae70 	beq.w	80038b0 <HAL_I2C_EV_IRQHandler+0x38>
 8003bd0:	0590      	lsls	r0, r2, #22
 8003bd2:	f57f ae6d 	bpl.w	80038b0 <HAL_I2C_EV_IRQHandler+0x38>
 8003bd6:	6ae1      	ldr	r1, [r4, #44]	; 0x2c
 8003bd8:	f894 203d 	ldrb.w	r2, [r4, #61]	; 0x3d
 8003bdc:	2a21      	cmp	r2, #33	; 0x21
 8003bde:	d133      	bne.n	8003c48 <HAL_I2C_EV_IRQHandler+0x3d0>
 8003be0:	8d62      	ldrh	r2, [r4, #42]	; 0x2a
 8003be2:	b292      	uxth	r2, r2
 8003be4:	b14a      	cbz	r2, 8003bfa <HAL_I2C_EV_IRQHandler+0x382>
 8003be6:	6a62      	ldr	r2, [r4, #36]	; 0x24
 8003be8:	f812 1b01 	ldrb.w	r1, [r2], #1
 8003bec:	6119      	str	r1, [r3, #16]
 8003bee:	6262      	str	r2, [r4, #36]	; 0x24
 8003bf0:	8d63      	ldrh	r3, [r4, #42]	; 0x2a
 8003bf2:	3b01      	subs	r3, #1
 8003bf4:	b29b      	uxth	r3, r3
 8003bf6:	8563      	strh	r3, [r4, #42]	; 0x2a
 8003bf8:	e65a      	b.n	80038b0 <HAL_I2C_EV_IRQHandler+0x38>
 8003bfa:	2908      	cmp	r1, #8
 8003bfc:	d00d      	beq.n	8003c1a <HAL_I2C_EV_IRQHandler+0x3a2>
 8003bfe:	2920      	cmp	r1, #32
 8003c00:	d00b      	beq.n	8003c1a <HAL_I2C_EV_IRQHandler+0x3a2>
 8003c02:	f511 3f80 	cmn.w	r1, #65536	; 0x10000
 8003c06:	d008      	beq.n	8003c1a <HAL_I2C_EV_IRQHandler+0x3a2>
 8003c08:	6859      	ldr	r1, [r3, #4]
 8003c0a:	f421 61e0 	bic.w	r1, r1, #1792	; 0x700
 8003c0e:	6059      	str	r1, [r3, #4]
 8003c10:	2311      	movs	r3, #17
 8003c12:	6323      	str	r3, [r4, #48]	; 0x30
 8003c14:	f884 203e 	strb.w	r2, [r4, #62]	; 0x3e
 8003c18:	e7b7      	b.n	8003b8a <HAL_I2C_EV_IRQHandler+0x312>
 8003c1a:	685a      	ldr	r2, [r3, #4]
 8003c1c:	f422 62e0 	bic.w	r2, r2, #1792	; 0x700
 8003c20:	605a      	str	r2, [r3, #4]
 8003c22:	681a      	ldr	r2, [r3, #0]
 8003c24:	f442 7200 	orr.w	r2, r2, #512	; 0x200
 8003c28:	601a      	str	r2, [r3, #0]
 8003c2a:	2300      	movs	r3, #0
 8003c2c:	2220      	movs	r2, #32
 8003c2e:	6323      	str	r3, [r4, #48]	; 0x30
 8003c30:	f884 203d 	strb.w	r2, [r4, #61]	; 0x3d
 8003c34:	f894 203e 	ldrb.w	r2, [r4, #62]	; 0x3e
 8003c38:	f884 303e 	strb.w	r3, [r4, #62]	; 0x3e
 8003c3c:	2a40      	cmp	r2, #64	; 0x40
 8003c3e:	4620      	mov	r0, r4
 8003c40:	d1a7      	bne.n	8003b92 <HAL_I2C_EV_IRQHandler+0x31a>
 8003c42:	f7fd f803 	bl	8000c4c <HAL_I2C_MemTxCpltCallback>
 8003c46:	e633      	b.n	80038b0 <HAL_I2C_EV_IRQHandler+0x38>
 8003c48:	f894 303e 	ldrb.w	r3, [r4, #62]	; 0x3e
 8003c4c:	2b40      	cmp	r3, #64	; 0x40
 8003c4e:	f47f ae2f 	bne.w	80038b0 <HAL_I2C_EV_IRQHandler+0x38>
 8003c52:	e7b4      	b.n	8003bbe <HAL_I2C_EV_IRQHandler+0x346>
 8003c54:	0509      	lsls	r1, r1, #20
 8003c56:	f53f ae2b 	bmi.w	80038b0 <HAL_I2C_EV_IRQHandler+0x38>
 8003c5a:	0645      	lsls	r5, r0, #25
 8003c5c:	f3c0 0180 	ubfx	r1, r0, #2, #1
 8003c60:	d54c      	bpl.n	8003cfc <HAL_I2C_EV_IRQHandler+0x484>
 8003c62:	0550      	lsls	r0, r2, #21
 8003c64:	d54a      	bpl.n	8003cfc <HAL_I2C_EV_IRQHandler+0x484>
 8003c66:	2900      	cmp	r1, #0
 8003c68:	d14b      	bne.n	8003d02 <HAL_I2C_EV_IRQHandler+0x48a>
 8003c6a:	f894 203d 	ldrb.w	r2, [r4, #61]	; 0x3d
 8003c6e:	2a22      	cmp	r2, #34	; 0x22
 8003c70:	f47f ae1e 	bne.w	80038b0 <HAL_I2C_EV_IRQHandler+0x38>
 8003c74:	8d62      	ldrh	r2, [r4, #42]	; 0x2a
 8003c76:	b292      	uxth	r2, r2
 8003c78:	2a03      	cmp	r2, #3
 8003c7a:	d914      	bls.n	8003ca6 <HAL_I2C_EV_IRQHandler+0x42e>
 8003c7c:	691a      	ldr	r2, [r3, #16]
 8003c7e:	6a63      	ldr	r3, [r4, #36]	; 0x24
 8003c80:	701a      	strb	r2, [r3, #0]
 8003c82:	6a63      	ldr	r3, [r4, #36]	; 0x24
 8003c84:	3301      	adds	r3, #1
 8003c86:	6263      	str	r3, [r4, #36]	; 0x24
 8003c88:	8d63      	ldrh	r3, [r4, #42]	; 0x2a
 8003c8a:	3b01      	subs	r3, #1
 8003c8c:	b29b      	uxth	r3, r3
 8003c8e:	8563      	strh	r3, [r4, #42]	; 0x2a
 8003c90:	8d63      	ldrh	r3, [r4, #42]	; 0x2a
 8003c92:	b29b      	uxth	r3, r3
 8003c94:	2b03      	cmp	r3, #3
 8003c96:	f47f ae0b 	bne.w	80038b0 <HAL_I2C_EV_IRQHandler+0x38>
 8003c9a:	6822      	ldr	r2, [r4, #0]
 8003c9c:	6853      	ldr	r3, [r2, #4]
 8003c9e:	f423 6380 	bic.w	r3, r3, #1024	; 0x400
 8003ca2:	6053      	str	r3, [r2, #4]
 8003ca4:	e604      	b.n	80038b0 <HAL_I2C_EV_IRQHandler+0x38>
 8003ca6:	6ae0      	ldr	r0, [r4, #44]	; 0x2c
 8003ca8:	2802      	cmp	r0, #2
 8003caa:	f43f ae01 	beq.w	80038b0 <HAL_I2C_EV_IRQHandler+0x38>
 8003cae:	2a01      	cmp	r2, #1
 8003cb0:	f63f adfe 	bhi.w	80038b0 <HAL_I2C_EV_IRQHandler+0x38>
 8003cb4:	681a      	ldr	r2, [r3, #0]
 8003cb6:	f422 6280 	bic.w	r2, r2, #1024	; 0x400
 8003cba:	601a      	str	r2, [r3, #0]
 8003cbc:	685a      	ldr	r2, [r3, #4]
 8003cbe:	f422 62e0 	bic.w	r2, r2, #1792	; 0x700
 8003cc2:	605a      	str	r2, [r3, #4]
 8003cc4:	691a      	ldr	r2, [r3, #16]
 8003cc6:	6a63      	ldr	r3, [r4, #36]	; 0x24
 8003cc8:	701a      	strb	r2, [r3, #0]
 8003cca:	6a63      	ldr	r3, [r4, #36]	; 0x24
 8003ccc:	3301      	adds	r3, #1
 8003cce:	6263      	str	r3, [r4, #36]	; 0x24
 8003cd0:	8d63      	ldrh	r3, [r4, #42]	; 0x2a
 8003cd2:	3b01      	subs	r3, #1
 8003cd4:	b29b      	uxth	r3, r3
 8003cd6:	8563      	strh	r3, [r4, #42]	; 0x2a
 8003cd8:	2320      	movs	r3, #32
 8003cda:	f884 303d 	strb.w	r3, [r4, #61]	; 0x3d
 8003cde:	f894 303e 	ldrb.w	r3, [r4, #62]	; 0x3e
 8003ce2:	f884 103e 	strb.w	r1, [r4, #62]	; 0x3e
 8003ce6:	2b40      	cmp	r3, #64	; 0x40
 8003ce8:	d16c      	bne.n	8003dc4 <HAL_I2C_EV_IRQHandler+0x54c>
 8003cea:	6321      	str	r1, [r4, #48]	; 0x30
 8003cec:	4620      	mov	r0, r4
 8003cee:	f7fc ffaf 	bl	8000c50 <HAL_I2C_MemRxCpltCallback>
 8003cf2:	e5dd      	b.n	80038b0 <HAL_I2C_EV_IRQHandler+0x38>
 8003cf4:	00010014 	.word	0x00010014
 8003cf8:	80008081 	.word	0x80008081
 8003cfc:	2900      	cmp	r1, #0
 8003cfe:	f43f add7 	beq.w	80038b0 <HAL_I2C_EV_IRQHandler+0x38>
 8003d02:	0592      	lsls	r2, r2, #22
 8003d04:	f57f add4 	bpl.w	80038b0 <HAL_I2C_EV_IRQHandler+0x38>
 8003d08:	6ae2      	ldr	r2, [r4, #44]	; 0x2c
 8003d0a:	8d60      	ldrh	r0, [r4, #42]	; 0x2a
 8003d0c:	6a61      	ldr	r1, [r4, #36]	; 0x24
 8003d0e:	b280      	uxth	r0, r0
 8003d10:	2804      	cmp	r0, #4
 8003d12:	d109      	bne.n	8003d28 <HAL_I2C_EV_IRQHandler+0x4b0>
 8003d14:	685a      	ldr	r2, [r3, #4]
 8003d16:	f422 6280 	bic.w	r2, r2, #1024	; 0x400
 8003d1a:	605a      	str	r2, [r3, #4]
 8003d1c:	691b      	ldr	r3, [r3, #16]
 8003d1e:	700b      	strb	r3, [r1, #0]
 8003d20:	6a63      	ldr	r3, [r4, #36]	; 0x24
 8003d22:	3301      	adds	r3, #1
 8003d24:	6263      	str	r3, [r4, #36]	; 0x24
 8003d26:	e763      	b.n	8003bf0 <HAL_I2C_EV_IRQHandler+0x378>
 8003d28:	8d60      	ldrh	r0, [r4, #42]	; 0x2a
 8003d2a:	b280      	uxth	r0, r0
 8003d2c:	2803      	cmp	r0, #3
 8003d2e:	d10c      	bne.n	8003d4a <HAL_I2C_EV_IRQHandler+0x4d2>
 8003d30:	6858      	ldr	r0, [r3, #4]
 8003d32:	2a04      	cmp	r2, #4
 8003d34:	f420 6080 	bic.w	r0, r0, #1024	; 0x400
 8003d38:	6058      	str	r0, [r3, #4]
 8003d3a:	d0ef      	beq.n	8003d1c <HAL_I2C_EV_IRQHandler+0x4a4>
 8003d3c:	2a02      	cmp	r2, #2
 8003d3e:	d0ed      	beq.n	8003d1c <HAL_I2C_EV_IRQHandler+0x4a4>
 8003d40:	681a      	ldr	r2, [r3, #0]
 8003d42:	f422 6280 	bic.w	r2, r2, #1024	; 0x400
 8003d46:	601a      	str	r2, [r3, #0]
 8003d48:	e7e8      	b.n	8003d1c <HAL_I2C_EV_IRQHandler+0x4a4>
 8003d4a:	8d60      	ldrh	r0, [r4, #42]	; 0x2a
 8003d4c:	b280      	uxth	r0, r0
 8003d4e:	2802      	cmp	r0, #2
 8003d50:	d1e4      	bne.n	8003d1c <HAL_I2C_EV_IRQHandler+0x4a4>
 8003d52:	2a01      	cmp	r2, #1
 8003d54:	d001      	beq.n	8003d5a <HAL_I2C_EV_IRQHandler+0x4e2>
 8003d56:	2a10      	cmp	r2, #16
 8003d58:	d128      	bne.n	8003dac <HAL_I2C_EV_IRQHandler+0x534>
 8003d5a:	681a      	ldr	r2, [r3, #0]
 8003d5c:	f422 6280 	bic.w	r2, r2, #1024	; 0x400
 8003d60:	601a      	str	r2, [r3, #0]
 8003d62:	691b      	ldr	r3, [r3, #16]
 8003d64:	700b      	strb	r3, [r1, #0]
 8003d66:	6a62      	ldr	r2, [r4, #36]	; 0x24
 8003d68:	1c53      	adds	r3, r2, #1
 8003d6a:	6263      	str	r3, [r4, #36]	; 0x24
 8003d6c:	8d63      	ldrh	r3, [r4, #42]	; 0x2a
 8003d6e:	3b01      	subs	r3, #1
 8003d70:	b29b      	uxth	r3, r3
 8003d72:	8563      	strh	r3, [r4, #42]	; 0x2a
 8003d74:	6823      	ldr	r3, [r4, #0]
 8003d76:	691b      	ldr	r3, [r3, #16]
 8003d78:	7053      	strb	r3, [r2, #1]
 8003d7a:	6a63      	ldr	r3, [r4, #36]	; 0x24
 8003d7c:	6822      	ldr	r2, [r4, #0]
 8003d7e:	3301      	adds	r3, #1
 8003d80:	6263      	str	r3, [r4, #36]	; 0x24
 8003d82:	8d63      	ldrh	r3, [r4, #42]	; 0x2a
 8003d84:	3b01      	subs	r3, #1
 8003d86:	b29b      	uxth	r3, r3
 8003d88:	8563      	strh	r3, [r4, #42]	; 0x2a
 8003d8a:	6853      	ldr	r3, [r2, #4]
 8003d8c:	f423 7340 	bic.w	r3, r3, #768	; 0x300
 8003d90:	6053      	str	r3, [r2, #4]
 8003d92:	2320      	movs	r3, #32
 8003d94:	f884 303d 	strb.w	r3, [r4, #61]	; 0x3d
 8003d98:	f894 303e 	ldrb.w	r3, [r4, #62]	; 0x3e
 8003d9c:	2b40      	cmp	r3, #64	; 0x40
 8003d9e:	f04f 0300 	mov.w	r3, #0
 8003da2:	f884 303e 	strb.w	r3, [r4, #62]	; 0x3e
 8003da6:	d10d      	bne.n	8003dc4 <HAL_I2C_EV_IRQHandler+0x54c>
 8003da8:	6323      	str	r3, [r4, #48]	; 0x30
 8003daa:	e79f      	b.n	8003cec <HAL_I2C_EV_IRQHandler+0x474>
 8003dac:	2a04      	cmp	r2, #4
 8003dae:	d001      	beq.n	8003db4 <HAL_I2C_EV_IRQHandler+0x53c>
 8003db0:	2a02      	cmp	r2, #2
 8003db2:	d103      	bne.n	8003dbc <HAL_I2C_EV_IRQHandler+0x544>
 8003db4:	681a      	ldr	r2, [r3, #0]
 8003db6:	f442 6280 	orr.w	r2, r2, #1024	; 0x400
 8003dba:	e7d1      	b.n	8003d60 <HAL_I2C_EV_IRQHandler+0x4e8>
 8003dbc:	681a      	ldr	r2, [r3, #0]
 8003dbe:	f442 7200 	orr.w	r2, r2, #512	; 0x200
 8003dc2:	e7cd      	b.n	8003d60 <HAL_I2C_EV_IRQHandler+0x4e8>
 8003dc4:	2312      	movs	r3, #18
 8003dc6:	6323      	str	r3, [r4, #48]	; 0x30
 8003dc8:	4620      	mov	r0, r4
 8003dca:	f7ff fbc0 	bl	800354e <HAL_I2C_MasterRxCpltCallback>
 8003dce:	e56f      	b.n	80038b0 <HAL_I2C_EV_IRQHandler+0x38>
 8003dd0:	6c21      	ldr	r1, [r4, #64]	; 0x40
 8003dd2:	b321      	cbz	r1, 8003e1e <HAL_I2C_EV_IRQHandler+0x5a6>
 8003dd4:	6959      	ldr	r1, [r3, #20]
 8003dd6:	2500      	movs	r5, #0
 8003dd8:	f011 0f02 	tst.w	r1, #2
 8003ddc:	d029      	beq.n	8003e32 <HAL_I2C_EV_IRQHandler+0x5ba>
 8003dde:	f412 7f00 	tst.w	r2, #512	; 0x200
 8003de2:	d026      	beq.n	8003e32 <HAL_I2C_EV_IRQHandler+0x5ba>
 8003de4:	6c22      	ldr	r2, [r4, #64]	; 0x40
 8003de6:	b102      	cbz	r2, 8003dea <HAL_I2C_EV_IRQHandler+0x572>
 8003de8:	699d      	ldr	r5, [r3, #24]
 8003dea:	f894 203d 	ldrb.w	r2, [r4, #61]	; 0x3d
 8003dee:	f002 0228 	and.w	r2, r2, #40	; 0x28
 8003df2:	2a28      	cmp	r2, #40	; 0x28
 8003df4:	d116      	bne.n	8003e24 <HAL_I2C_EV_IRQHandler+0x5ac>
 8003df6:	685a      	ldr	r2, [r3, #4]
 8003df8:	f422 6280 	bic.w	r2, r2, #1024	; 0x400
 8003dfc:	605a      	str	r2, [r3, #4]
 8003dfe:	ea6f 0195 	mvn.w	r1, r5, lsr #2
 8003e02:	062b      	lsls	r3, r5, #24
 8003e04:	f04f 0300 	mov.w	r3, #0
 8003e08:	f001 0101 	and.w	r1, r1, #1
 8003e0c:	bf54      	ite	pl
 8003e0e:	89a2      	ldrhpl	r2, [r4, #12]
 8003e10:	8b22      	ldrhmi	r2, [r4, #24]
 8003e12:	f884 303c 	strb.w	r3, [r4, #60]	; 0x3c
 8003e16:	4620      	mov	r0, r4
 8003e18:	f7ff fb9c 	bl	8003554 <HAL_I2C_AddrCallback>
 8003e1c:	e548      	b.n	80038b0 <HAL_I2C_EV_IRQHandler+0x38>
 8003e1e:	699d      	ldr	r5, [r3, #24]
 8003e20:	6959      	ldr	r1, [r3, #20]
 8003e22:	e7d9      	b.n	8003dd8 <HAL_I2C_EV_IRQHandler+0x560>
 8003e24:	f06f 0202 	mvn.w	r2, #2
 8003e28:	615a      	str	r2, [r3, #20]
 8003e2a:	2300      	movs	r3, #0
 8003e2c:	f884 303c 	strb.w	r3, [r4, #60]	; 0x3c
 8003e30:	e53e      	b.n	80038b0 <HAL_I2C_EV_IRQHandler+0x38>
 8003e32:	06cd      	lsls	r5, r1, #27
 8003e34:	f140 80b1 	bpl.w	8003f9a <HAL_I2C_EV_IRQHandler+0x722>
 8003e38:	0595      	lsls	r5, r2, #22
 8003e3a:	f140 80ae 	bpl.w	8003f9a <HAL_I2C_EV_IRQHandler+0x722>
 8003e3e:	f894 503d 	ldrb.w	r5, [r4, #61]	; 0x3d
 8003e42:	685a      	ldr	r2, [r3, #4]
 8003e44:	f422 62e0 	bic.w	r2, r2, #1792	; 0x700
 8003e48:	605a      	str	r2, [r3, #4]
 8003e4a:	2200      	movs	r2, #0
 8003e4c:	920b      	str	r2, [sp, #44]	; 0x2c
 8003e4e:	695a      	ldr	r2, [r3, #20]
 8003e50:	920b      	str	r2, [sp, #44]	; 0x2c
 8003e52:	681a      	ldr	r2, [r3, #0]
 8003e54:	f042 0201 	orr.w	r2, r2, #1
 8003e58:	601a      	str	r2, [r3, #0]
 8003e5a:	9a0b      	ldr	r2, [sp, #44]	; 0x2c
 8003e5c:	681a      	ldr	r2, [r3, #0]
 8003e5e:	f422 6280 	bic.w	r2, r2, #1024	; 0x400
 8003e62:	601a      	str	r2, [r3, #0]
 8003e64:	685a      	ldr	r2, [r3, #4]
 8003e66:	0511      	lsls	r1, r2, #20
 8003e68:	b2ed      	uxtb	r5, r5
 8003e6a:	d520      	bpl.n	8003eae <HAL_I2C_EV_IRQHandler+0x636>
 8003e6c:	f005 02f7 	and.w	r2, r5, #247	; 0xf7
 8003e70:	2a22      	cmp	r2, #34	; 0x22
 8003e72:	d14a      	bne.n	8003f0a <HAL_I2C_EV_IRQHandler+0x692>
 8003e74:	6ba0      	ldr	r0, [r4, #56]	; 0x38
 8003e76:	6802      	ldr	r2, [r0, #0]
 8003e78:	6852      	ldr	r2, [r2, #4]
 8003e7a:	b292      	uxth	r2, r2
 8003e7c:	8562      	strh	r2, [r4, #42]	; 0x2a
 8003e7e:	8d62      	ldrh	r2, [r4, #42]	; 0x2a
 8003e80:	b292      	uxth	r2, r2
 8003e82:	b11a      	cbz	r2, 8003e8c <HAL_I2C_EV_IRQHandler+0x614>
 8003e84:	6c22      	ldr	r2, [r4, #64]	; 0x40
 8003e86:	f042 0204 	orr.w	r2, r2, #4
 8003e8a:	6422      	str	r2, [r4, #64]	; 0x40
 8003e8c:	685a      	ldr	r2, [r3, #4]
 8003e8e:	f422 6200 	bic.w	r2, r2, #2048	; 0x800
 8003e92:	605a      	str	r2, [r3, #4]
 8003e94:	f7fe fdd8 	bl	8002a48 <HAL_DMA_GetState>
 8003e98:	2801      	cmp	r0, #1
 8003e9a:	d008      	beq.n	8003eae <HAL_I2C_EV_IRQHandler+0x636>
 8003e9c:	6ba0      	ldr	r0, [r4, #56]	; 0x38
 8003e9e:	4b79      	ldr	r3, [pc, #484]	; (8004084 <HAL_I2C_EV_IRQHandler+0x80c>)
 8003ea0:	6503      	str	r3, [r0, #80]	; 0x50
 8003ea2:	f7fe fd00 	bl	80028a6 <HAL_DMA_Abort_IT>
 8003ea6:	b110      	cbz	r0, 8003eae <HAL_I2C_EV_IRQHandler+0x636>
 8003ea8:	6ba0      	ldr	r0, [r4, #56]	; 0x38
 8003eaa:	6d03      	ldr	r3, [r0, #80]	; 0x50
 8003eac:	4798      	blx	r3
 8003eae:	8d63      	ldrh	r3, [r4, #42]	; 0x2a
 8003eb0:	b29b      	uxth	r3, r3
 8003eb2:	b313      	cbz	r3, 8003efa <HAL_I2C_EV_IRQHandler+0x682>
 8003eb4:	6823      	ldr	r3, [r4, #0]
 8003eb6:	695a      	ldr	r2, [r3, #20]
 8003eb8:	0752      	lsls	r2, r2, #29
 8003eba:	d509      	bpl.n	8003ed0 <HAL_I2C_EV_IRQHandler+0x658>
 8003ebc:	691a      	ldr	r2, [r3, #16]
 8003ebe:	6a63      	ldr	r3, [r4, #36]	; 0x24
 8003ec0:	701a      	strb	r2, [r3, #0]
 8003ec2:	6a63      	ldr	r3, [r4, #36]	; 0x24
 8003ec4:	3301      	adds	r3, #1
 8003ec6:	6263      	str	r3, [r4, #36]	; 0x24
 8003ec8:	8d63      	ldrh	r3, [r4, #42]	; 0x2a
 8003eca:	3b01      	subs	r3, #1
 8003ecc:	b29b      	uxth	r3, r3
 8003ece:	8563      	strh	r3, [r4, #42]	; 0x2a
 8003ed0:	6823      	ldr	r3, [r4, #0]
 8003ed2:	695a      	ldr	r2, [r3, #20]
 8003ed4:	0650      	lsls	r0, r2, #25
 8003ed6:	d509      	bpl.n	8003eec <HAL_I2C_EV_IRQHandler+0x674>
 8003ed8:	691a      	ldr	r2, [r3, #16]
 8003eda:	6a63      	ldr	r3, [r4, #36]	; 0x24
 8003edc:	701a      	strb	r2, [r3, #0]
 8003ede:	6a63      	ldr	r3, [r4, #36]	; 0x24
 8003ee0:	3301      	adds	r3, #1
 8003ee2:	6263      	str	r3, [r4, #36]	; 0x24
 8003ee4:	8d63      	ldrh	r3, [r4, #42]	; 0x2a
 8003ee6:	3b01      	subs	r3, #1
 8003ee8:	b29b      	uxth	r3, r3
 8003eea:	8563      	strh	r3, [r4, #42]	; 0x2a
 8003eec:	8d63      	ldrh	r3, [r4, #42]	; 0x2a
 8003eee:	b29b      	uxth	r3, r3
 8003ef0:	b11b      	cbz	r3, 8003efa <HAL_I2C_EV_IRQHandler+0x682>
 8003ef2:	6c23      	ldr	r3, [r4, #64]	; 0x40
 8003ef4:	f043 0304 	orr.w	r3, r3, #4
 8003ef8:	6423      	str	r3, [r4, #64]	; 0x40
 8003efa:	6c23      	ldr	r3, [r4, #64]	; 0x40
 8003efc:	b313      	cbz	r3, 8003f44 <HAL_I2C_EV_IRQHandler+0x6cc>
 8003efe:	4620      	mov	r0, r4
 8003f00:	b00d      	add	sp, #52	; 0x34
 8003f02:	e8bd 4030 	ldmia.w	sp!, {r4, r5, lr}
 8003f06:	f7ff bc13 	b.w	8003730 <I2C_ITError>
 8003f0a:	6b60      	ldr	r0, [r4, #52]	; 0x34
 8003f0c:	6802      	ldr	r2, [r0, #0]
 8003f0e:	6852      	ldr	r2, [r2, #4]
 8003f10:	b292      	uxth	r2, r2
 8003f12:	8562      	strh	r2, [r4, #42]	; 0x2a
 8003f14:	8d62      	ldrh	r2, [r4, #42]	; 0x2a
 8003f16:	b292      	uxth	r2, r2
 8003f18:	b11a      	cbz	r2, 8003f22 <HAL_I2C_EV_IRQHandler+0x6aa>
 8003f1a:	6c22      	ldr	r2, [r4, #64]	; 0x40
 8003f1c:	f042 0204 	orr.w	r2, r2, #4
 8003f20:	6422      	str	r2, [r4, #64]	; 0x40
 8003f22:	685a      	ldr	r2, [r3, #4]
 8003f24:	f422 6200 	bic.w	r2, r2, #2048	; 0x800
 8003f28:	605a      	str	r2, [r3, #4]
 8003f2a:	f7fe fd8d 	bl	8002a48 <HAL_DMA_GetState>
 8003f2e:	2801      	cmp	r0, #1
 8003f30:	d0bd      	beq.n	8003eae <HAL_I2C_EV_IRQHandler+0x636>
 8003f32:	6b60      	ldr	r0, [r4, #52]	; 0x34
 8003f34:	4b53      	ldr	r3, [pc, #332]	; (8004084 <HAL_I2C_EV_IRQHandler+0x80c>)
 8003f36:	6503      	str	r3, [r0, #80]	; 0x50
 8003f38:	f7fe fcb5 	bl	80028a6 <HAL_DMA_Abort_IT>
 8003f3c:	2800      	cmp	r0, #0
 8003f3e:	d0b6      	beq.n	8003eae <HAL_I2C_EV_IRQHandler+0x636>
 8003f40:	6b60      	ldr	r0, [r4, #52]	; 0x34
 8003f42:	e7b2      	b.n	8003eaa <HAL_I2C_EV_IRQHandler+0x632>
 8003f44:	2d2a      	cmp	r5, #42	; 0x2a
 8003f46:	d106      	bne.n	8003f56 <HAL_I2C_EV_IRQHandler+0x6de>
 8003f48:	6323      	str	r3, [r4, #48]	; 0x30
 8003f4a:	2328      	movs	r3, #40	; 0x28
 8003f4c:	f884 303d 	strb.w	r3, [r4, #61]	; 0x3d
 8003f50:	4620      	mov	r0, r4
 8003f52:	f7ff fafe 	bl	8003552 <HAL_I2C_SlaveRxCpltCallback>
 8003f56:	f894 303d 	ldrb.w	r3, [r4, #61]	; 0x3d
 8003f5a:	2b28      	cmp	r3, #40	; 0x28
 8003f5c:	d10c      	bne.n	8003f78 <HAL_I2C_EV_IRQHandler+0x700>
 8003f5e:	4b4a      	ldr	r3, [pc, #296]	; (8004088 <HAL_I2C_EV_IRQHandler+0x810>)
 8003f60:	62e3      	str	r3, [r4, #44]	; 0x2c
 8003f62:	2220      	movs	r2, #32
 8003f64:	2300      	movs	r3, #0
 8003f66:	6323      	str	r3, [r4, #48]	; 0x30
 8003f68:	4620      	mov	r0, r4
 8003f6a:	f884 203d 	strb.w	r2, [r4, #61]	; 0x3d
 8003f6e:	f884 303e 	strb.w	r3, [r4, #62]	; 0x3e
 8003f72:	f7ff faf0 	bl	8003556 <HAL_I2C_ListenCpltCallback>
 8003f76:	e49b      	b.n	80038b0 <HAL_I2C_EV_IRQHandler+0x38>
 8003f78:	6b23      	ldr	r3, [r4, #48]	; 0x30
 8003f7a:	2b22      	cmp	r3, #34	; 0x22
 8003f7c:	d002      	beq.n	8003f84 <HAL_I2C_EV_IRQHandler+0x70c>
 8003f7e:	2d22      	cmp	r5, #34	; 0x22
 8003f80:	f47f ac96 	bne.w	80038b0 <HAL_I2C_EV_IRQHandler+0x38>
 8003f84:	2300      	movs	r3, #0
 8003f86:	2220      	movs	r2, #32
 8003f88:	6323      	str	r3, [r4, #48]	; 0x30
 8003f8a:	f884 203d 	strb.w	r2, [r4, #61]	; 0x3d
 8003f8e:	f884 303e 	strb.w	r3, [r4, #62]	; 0x3e
 8003f92:	4620      	mov	r0, r4
 8003f94:	f7ff fadd 	bl	8003552 <HAL_I2C_SlaveRxCpltCallback>
 8003f98:	e48a      	b.n	80038b0 <HAL_I2C_EV_IRQHandler+0x38>
 8003f9a:	f000 00f7 	and.w	r0, r0, #247	; 0xf7
 8003f9e:	2821      	cmp	r0, #33	; 0x21
 8003fa0:	f3c1 0580 	ubfx	r5, r1, #2, #1
 8003fa4:	d135      	bne.n	8004012 <HAL_I2C_EV_IRQHandler+0x79a>
 8003fa6:	0609      	lsls	r1, r1, #24
 8003fa8:	d527      	bpl.n	8003ffa <HAL_I2C_EV_IRQHandler+0x782>
 8003faa:	0551      	lsls	r1, r2, #21
 8003fac:	d525      	bpl.n	8003ffa <HAL_I2C_EV_IRQHandler+0x782>
 8003fae:	bb3d      	cbnz	r5, 8004000 <HAL_I2C_EV_IRQHandler+0x788>
 8003fb0:	f894 103d 	ldrb.w	r1, [r4, #61]	; 0x3d
 8003fb4:	8d62      	ldrh	r2, [r4, #42]	; 0x2a
 8003fb6:	b292      	uxth	r2, r2
 8003fb8:	b2c9      	uxtb	r1, r1
 8003fba:	2a00      	cmp	r2, #0
 8003fbc:	f43f ac78 	beq.w	80038b0 <HAL_I2C_EV_IRQHandler+0x38>
 8003fc0:	6a62      	ldr	r2, [r4, #36]	; 0x24
 8003fc2:	f812 5b01 	ldrb.w	r5, [r2], #1
 8003fc6:	611d      	str	r5, [r3, #16]
 8003fc8:	6262      	str	r2, [r4, #36]	; 0x24
 8003fca:	8d62      	ldrh	r2, [r4, #42]	; 0x2a
 8003fcc:	3a01      	subs	r2, #1
 8003fce:	b292      	uxth	r2, r2
 8003fd0:	8562      	strh	r2, [r4, #42]	; 0x2a
 8003fd2:	8d62      	ldrh	r2, [r4, #42]	; 0x2a
 8003fd4:	b292      	uxth	r2, r2
 8003fd6:	2a00      	cmp	r2, #0
 8003fd8:	f47f ac6a 	bne.w	80038b0 <HAL_I2C_EV_IRQHandler+0x38>
 8003fdc:	2929      	cmp	r1, #41	; 0x29
 8003fde:	f47f ac67 	bne.w	80038b0 <HAL_I2C_EV_IRQHandler+0x38>
 8003fe2:	685a      	ldr	r2, [r3, #4]
 8003fe4:	f422 6280 	bic.w	r2, r2, #1024	; 0x400
 8003fe8:	605a      	str	r2, [r3, #4]
 8003fea:	2328      	movs	r3, #40	; 0x28
 8003fec:	6320      	str	r0, [r4, #48]	; 0x30
 8003fee:	f884 303d 	strb.w	r3, [r4, #61]	; 0x3d
 8003ff2:	4620      	mov	r0, r4
 8003ff4:	f7ff faac 	bl	8003550 <HAL_I2C_SlaveTxCpltCallback>
 8003ff8:	e45a      	b.n	80038b0 <HAL_I2C_EV_IRQHandler+0x38>
 8003ffa:	2d00      	cmp	r5, #0
 8003ffc:	f43f ac58 	beq.w	80038b0 <HAL_I2C_EV_IRQHandler+0x38>
 8004000:	0595      	lsls	r5, r2, #22
 8004002:	f57f ac55 	bpl.w	80038b0 <HAL_I2C_EV_IRQHandler+0x38>
 8004006:	8d62      	ldrh	r2, [r4, #42]	; 0x2a
 8004008:	b292      	uxth	r2, r2
 800400a:	2a00      	cmp	r2, #0
 800400c:	f47f adeb 	bne.w	8003be6 <HAL_I2C_EV_IRQHandler+0x36e>
 8004010:	e44e      	b.n	80038b0 <HAL_I2C_EV_IRQHandler+0x38>
 8004012:	0648      	lsls	r0, r1, #25
 8004014:	d527      	bpl.n	8004066 <HAL_I2C_EV_IRQHandler+0x7ee>
 8004016:	0551      	lsls	r1, r2, #21
 8004018:	d525      	bpl.n	8004066 <HAL_I2C_EV_IRQHandler+0x7ee>
 800401a:	bb3d      	cbnz	r5, 800406c <HAL_I2C_EV_IRQHandler+0x7f4>
 800401c:	f894 203d 	ldrb.w	r2, [r4, #61]	; 0x3d
 8004020:	8d61      	ldrh	r1, [r4, #42]	; 0x2a
 8004022:	b289      	uxth	r1, r1
 8004024:	b2d2      	uxtb	r2, r2
 8004026:	2900      	cmp	r1, #0
 8004028:	f43f ac42 	beq.w	80038b0 <HAL_I2C_EV_IRQHandler+0x38>
 800402c:	6919      	ldr	r1, [r3, #16]
 800402e:	6a63      	ldr	r3, [r4, #36]	; 0x24
 8004030:	7019      	strb	r1, [r3, #0]
 8004032:	6a63      	ldr	r3, [r4, #36]	; 0x24
 8004034:	3301      	adds	r3, #1
 8004036:	6263      	str	r3, [r4, #36]	; 0x24
 8004038:	8d63      	ldrh	r3, [r4, #42]	; 0x2a
 800403a:	3b01      	subs	r3, #1
 800403c:	b29b      	uxth	r3, r3
 800403e:	8563      	strh	r3, [r4, #42]	; 0x2a
 8004040:	8d63      	ldrh	r3, [r4, #42]	; 0x2a
 8004042:	b29b      	uxth	r3, r3
 8004044:	2b00      	cmp	r3, #0
 8004046:	f47f ac33 	bne.w	80038b0 <HAL_I2C_EV_IRQHandler+0x38>
 800404a:	2a2a      	cmp	r2, #42	; 0x2a
 800404c:	f47f ac30 	bne.w	80038b0 <HAL_I2C_EV_IRQHandler+0x38>
 8004050:	6822      	ldr	r2, [r4, #0]
 8004052:	6853      	ldr	r3, [r2, #4]
 8004054:	f423 6380 	bic.w	r3, r3, #1024	; 0x400
 8004058:	6053      	str	r3, [r2, #4]
 800405a:	2322      	movs	r3, #34	; 0x22
 800405c:	6323      	str	r3, [r4, #48]	; 0x30
 800405e:	2328      	movs	r3, #40	; 0x28
 8004060:	f884 303d 	strb.w	r3, [r4, #61]	; 0x3d
 8004064:	e795      	b.n	8003f92 <HAL_I2C_EV_IRQHandler+0x71a>
 8004066:	2d00      	cmp	r5, #0
 8004068:	f43f ac22 	beq.w	80038b0 <HAL_I2C_EV_IRQHandler+0x38>
 800406c:	0592      	lsls	r2, r2, #22
 800406e:	f57f ac1f 	bpl.w	80038b0 <HAL_I2C_EV_IRQHandler+0x38>
 8004072:	8d62      	ldrh	r2, [r4, #42]	; 0x2a
 8004074:	b292      	uxth	r2, r2
 8004076:	2a00      	cmp	r2, #0
 8004078:	f43f ac1a 	beq.w	80038b0 <HAL_I2C_EV_IRQHandler+0x38>
 800407c:	691a      	ldr	r2, [r3, #16]
 800407e:	6a63      	ldr	r3, [r4, #36]	; 0x24
 8004080:	701a      	strb	r2, [r3, #0]
 8004082:	e64d      	b.n	8003d20 <HAL_I2C_EV_IRQHandler+0x4a8>
 8004084:	080036a9 	.word	0x080036a9
 8004088:	ffff0000 	.word	0xffff0000

0800408c <HAL_RCC_OscConfig>:
 800408c:	e92d 41f3 	stmdb	sp!, {r0, r1, r4, r5, r6, r7, r8, lr}
 8004090:	4604      	mov	r4, r0
 8004092:	b908      	cbnz	r0, 8004098 <HAL_RCC_OscConfig+0xc>
 8004094:	2001      	movs	r0, #1
 8004096:	e03f      	b.n	8004118 <HAL_RCC_OscConfig+0x8c>
 8004098:	6803      	ldr	r3, [r0, #0]
 800409a:	07dd      	lsls	r5, r3, #31
 800409c:	d410      	bmi.n	80040c0 <HAL_RCC_OscConfig+0x34>
 800409e:	6823      	ldr	r3, [r4, #0]
 80040a0:	0798      	lsls	r0, r3, #30
 80040a2:	d45a      	bmi.n	800415a <HAL_RCC_OscConfig+0xce>
 80040a4:	6823      	ldr	r3, [r4, #0]
 80040a6:	071a      	lsls	r2, r3, #28
 80040a8:	f100 809c 	bmi.w	80041e4 <HAL_RCC_OscConfig+0x158>
 80040ac:	6823      	ldr	r3, [r4, #0]
 80040ae:	075b      	lsls	r3, r3, #29
 80040b0:	f100 80ba 	bmi.w	8004228 <HAL_RCC_OscConfig+0x19c>
 80040b4:	69a0      	ldr	r0, [r4, #24]
 80040b6:	2800      	cmp	r0, #0
 80040b8:	f040 811b 	bne.w	80042f2 <HAL_RCC_OscConfig+0x266>
 80040bc:	2000      	movs	r0, #0
 80040be:	e02b      	b.n	8004118 <HAL_RCC_OscConfig+0x8c>
 80040c0:	4ba7      	ldr	r3, [pc, #668]	; (8004360 <HAL_RCC_OscConfig+0x2d4>)
 80040c2:	689a      	ldr	r2, [r3, #8]
 80040c4:	f002 020c 	and.w	r2, r2, #12
 80040c8:	2a04      	cmp	r2, #4
 80040ca:	d007      	beq.n	80040dc <HAL_RCC_OscConfig+0x50>
 80040cc:	689a      	ldr	r2, [r3, #8]
 80040ce:	f002 020c 	and.w	r2, r2, #12
 80040d2:	2a08      	cmp	r2, #8
 80040d4:	d10a      	bne.n	80040ec <HAL_RCC_OscConfig+0x60>
 80040d6:	685b      	ldr	r3, [r3, #4]
 80040d8:	0259      	lsls	r1, r3, #9
 80040da:	d507      	bpl.n	80040ec <HAL_RCC_OscConfig+0x60>
 80040dc:	4ba0      	ldr	r3, [pc, #640]	; (8004360 <HAL_RCC_OscConfig+0x2d4>)
 80040de:	681b      	ldr	r3, [r3, #0]
 80040e0:	039a      	lsls	r2, r3, #14
 80040e2:	d5dc      	bpl.n	800409e <HAL_RCC_OscConfig+0x12>
 80040e4:	6863      	ldr	r3, [r4, #4]
 80040e6:	2b00      	cmp	r3, #0
 80040e8:	d1d9      	bne.n	800409e <HAL_RCC_OscConfig+0x12>
 80040ea:	e7d3      	b.n	8004094 <HAL_RCC_OscConfig+0x8>
 80040ec:	6863      	ldr	r3, [r4, #4]
 80040ee:	4d9c      	ldr	r5, [pc, #624]	; (8004360 <HAL_RCC_OscConfig+0x2d4>)
 80040f0:	f5b3 3f80 	cmp.w	r3, #65536	; 0x10000
 80040f4:	d113      	bne.n	800411e <HAL_RCC_OscConfig+0x92>
 80040f6:	682b      	ldr	r3, [r5, #0]
 80040f8:	f443 3380 	orr.w	r3, r3, #65536	; 0x10000
 80040fc:	602b      	str	r3, [r5, #0]
 80040fe:	f7fd ff7b 	bl	8001ff8 <HAL_GetTick>
 8004102:	4d97      	ldr	r5, [pc, #604]	; (8004360 <HAL_RCC_OscConfig+0x2d4>)
 8004104:	4606      	mov	r6, r0
 8004106:	682b      	ldr	r3, [r5, #0]
 8004108:	039b      	lsls	r3, r3, #14
 800410a:	d4c8      	bmi.n	800409e <HAL_RCC_OscConfig+0x12>
 800410c:	f7fd ff74 	bl	8001ff8 <HAL_GetTick>
 8004110:	1b80      	subs	r0, r0, r6
 8004112:	2864      	cmp	r0, #100	; 0x64
 8004114:	d9f7      	bls.n	8004106 <HAL_RCC_OscConfig+0x7a>
 8004116:	2003      	movs	r0, #3
 8004118:	b002      	add	sp, #8
 800411a:	e8bd 81f0 	ldmia.w	sp!, {r4, r5, r6, r7, r8, pc}
 800411e:	f5b3 2fa0 	cmp.w	r3, #327680	; 0x50000
 8004122:	d104      	bne.n	800412e <HAL_RCC_OscConfig+0xa2>
 8004124:	682b      	ldr	r3, [r5, #0]
 8004126:	f443 2380 	orr.w	r3, r3, #262144	; 0x40000
 800412a:	602b      	str	r3, [r5, #0]
 800412c:	e7e3      	b.n	80040f6 <HAL_RCC_OscConfig+0x6a>
 800412e:	682a      	ldr	r2, [r5, #0]
 8004130:	f422 3280 	bic.w	r2, r2, #65536	; 0x10000
 8004134:	602a      	str	r2, [r5, #0]
 8004136:	682a      	ldr	r2, [r5, #0]
 8004138:	f422 2280 	bic.w	r2, r2, #262144	; 0x40000
 800413c:	602a      	str	r2, [r5, #0]
 800413e:	2b00      	cmp	r3, #0
 8004140:	d1dd      	bne.n	80040fe <HAL_RCC_OscConfig+0x72>
 8004142:	f7fd ff59 	bl	8001ff8 <HAL_GetTick>
 8004146:	4606      	mov	r6, r0
 8004148:	682b      	ldr	r3, [r5, #0]
 800414a:	039f      	lsls	r7, r3, #14
 800414c:	d5a7      	bpl.n	800409e <HAL_RCC_OscConfig+0x12>
 800414e:	f7fd ff53 	bl	8001ff8 <HAL_GetTick>
 8004152:	1b80      	subs	r0, r0, r6
 8004154:	2864      	cmp	r0, #100	; 0x64
 8004156:	d9f7      	bls.n	8004148 <HAL_RCC_OscConfig+0xbc>
 8004158:	e7dd      	b.n	8004116 <HAL_RCC_OscConfig+0x8a>
 800415a:	4b81      	ldr	r3, [pc, #516]	; (8004360 <HAL_RCC_OscConfig+0x2d4>)
 800415c:	689a      	ldr	r2, [r3, #8]
 800415e:	f012 0f0c 	tst.w	r2, #12
 8004162:	d007      	beq.n	8004174 <HAL_RCC_OscConfig+0xe8>
 8004164:	689a      	ldr	r2, [r3, #8]
 8004166:	f002 020c 	and.w	r2, r2, #12
 800416a:	2a08      	cmp	r2, #8
 800416c:	d111      	bne.n	8004192 <HAL_RCC_OscConfig+0x106>
 800416e:	685b      	ldr	r3, [r3, #4]
 8004170:	025e      	lsls	r6, r3, #9
 8004172:	d40e      	bmi.n	8004192 <HAL_RCC_OscConfig+0x106>
 8004174:	4b7a      	ldr	r3, [pc, #488]	; (8004360 <HAL_RCC_OscConfig+0x2d4>)
 8004176:	681a      	ldr	r2, [r3, #0]
 8004178:	0795      	lsls	r5, r2, #30
 800417a:	d502      	bpl.n	8004182 <HAL_RCC_OscConfig+0xf6>
 800417c:	68e2      	ldr	r2, [r4, #12]
 800417e:	2a01      	cmp	r2, #1
 8004180:	d188      	bne.n	8004094 <HAL_RCC_OscConfig+0x8>
 8004182:	681a      	ldr	r2, [r3, #0]
 8004184:	6921      	ldr	r1, [r4, #16]
 8004186:	f022 02f8 	bic.w	r2, r2, #248	; 0xf8
 800418a:	ea42 02c1 	orr.w	r2, r2, r1, lsl #3
 800418e:	601a      	str	r2, [r3, #0]
 8004190:	e788      	b.n	80040a4 <HAL_RCC_OscConfig+0x18>
 8004192:	68e2      	ldr	r2, [r4, #12]
 8004194:	4b73      	ldr	r3, [pc, #460]	; (8004364 <HAL_RCC_OscConfig+0x2d8>)
 8004196:	b1b2      	cbz	r2, 80041c6 <HAL_RCC_OscConfig+0x13a>
 8004198:	2201      	movs	r2, #1
 800419a:	601a      	str	r2, [r3, #0]
 800419c:	f7fd ff2c 	bl	8001ff8 <HAL_GetTick>
 80041a0:	4d6f      	ldr	r5, [pc, #444]	; (8004360 <HAL_RCC_OscConfig+0x2d4>)
 80041a2:	4606      	mov	r6, r0
 80041a4:	682b      	ldr	r3, [r5, #0]
 80041a6:	0798      	lsls	r0, r3, #30
 80041a8:	d507      	bpl.n	80041ba <HAL_RCC_OscConfig+0x12e>
 80041aa:	682b      	ldr	r3, [r5, #0]
 80041ac:	6922      	ldr	r2, [r4, #16]
 80041ae:	f023 03f8 	bic.w	r3, r3, #248	; 0xf8
 80041b2:	ea43 03c2 	orr.w	r3, r3, r2, lsl #3
 80041b6:	602b      	str	r3, [r5, #0]
 80041b8:	e774      	b.n	80040a4 <HAL_RCC_OscConfig+0x18>
 80041ba:	f7fd ff1d 	bl	8001ff8 <HAL_GetTick>
 80041be:	1b80      	subs	r0, r0, r6
 80041c0:	2802      	cmp	r0, #2
 80041c2:	d9ef      	bls.n	80041a4 <HAL_RCC_OscConfig+0x118>
 80041c4:	e7a7      	b.n	8004116 <HAL_RCC_OscConfig+0x8a>
 80041c6:	601a      	str	r2, [r3, #0]
 80041c8:	f7fd ff16 	bl	8001ff8 <HAL_GetTick>
 80041cc:	4d64      	ldr	r5, [pc, #400]	; (8004360 <HAL_RCC_OscConfig+0x2d4>)
 80041ce:	4606      	mov	r6, r0
 80041d0:	682b      	ldr	r3, [r5, #0]
 80041d2:	0799      	lsls	r1, r3, #30
 80041d4:	f57f af66 	bpl.w	80040a4 <HAL_RCC_OscConfig+0x18>
 80041d8:	f7fd ff0e 	bl	8001ff8 <HAL_GetTick>
 80041dc:	1b80      	subs	r0, r0, r6
 80041de:	2802      	cmp	r0, #2
 80041e0:	d9f6      	bls.n	80041d0 <HAL_RCC_OscConfig+0x144>
 80041e2:	e798      	b.n	8004116 <HAL_RCC_OscConfig+0x8a>
 80041e4:	6962      	ldr	r2, [r4, #20]
 80041e6:	4b60      	ldr	r3, [pc, #384]	; (8004368 <HAL_RCC_OscConfig+0x2dc>)
 80041e8:	b17a      	cbz	r2, 800420a <HAL_RCC_OscConfig+0x17e>
 80041ea:	2201      	movs	r2, #1
 80041ec:	601a      	str	r2, [r3, #0]
 80041ee:	f7fd ff03 	bl	8001ff8 <HAL_GetTick>
 80041f2:	4d5b      	ldr	r5, [pc, #364]	; (8004360 <HAL_RCC_OscConfig+0x2d4>)
 80041f4:	4606      	mov	r6, r0
 80041f6:	6f6b      	ldr	r3, [r5, #116]	; 0x74
 80041f8:	079f      	lsls	r7, r3, #30
 80041fa:	f53f af57 	bmi.w	80040ac <HAL_RCC_OscConfig+0x20>
 80041fe:	f7fd fefb 	bl	8001ff8 <HAL_GetTick>
 8004202:	1b80      	subs	r0, r0, r6
 8004204:	2802      	cmp	r0, #2
 8004206:	d9f6      	bls.n	80041f6 <HAL_RCC_OscConfig+0x16a>
 8004208:	e785      	b.n	8004116 <HAL_RCC_OscConfig+0x8a>
 800420a:	601a      	str	r2, [r3, #0]
 800420c:	f7fd fef4 	bl	8001ff8 <HAL_GetTick>
 8004210:	4d53      	ldr	r5, [pc, #332]	; (8004360 <HAL_RCC_OscConfig+0x2d4>)
 8004212:	4606      	mov	r6, r0
 8004214:	6f6b      	ldr	r3, [r5, #116]	; 0x74
 8004216:	0798      	lsls	r0, r3, #30
 8004218:	f57f af48 	bpl.w	80040ac <HAL_RCC_OscConfig+0x20>
 800421c:	f7fd feec 	bl	8001ff8 <HAL_GetTick>
 8004220:	1b80      	subs	r0, r0, r6
 8004222:	2802      	cmp	r0, #2
 8004224:	d9f6      	bls.n	8004214 <HAL_RCC_OscConfig+0x188>
 8004226:	e776      	b.n	8004116 <HAL_RCC_OscConfig+0x8a>
 8004228:	4b4d      	ldr	r3, [pc, #308]	; (8004360 <HAL_RCC_OscConfig+0x2d4>)
 800422a:	6c1a      	ldr	r2, [r3, #64]	; 0x40
 800422c:	f012 5280 	ands.w	r2, r2, #268435456	; 0x10000000
 8004230:	d128      	bne.n	8004284 <HAL_RCC_OscConfig+0x1f8>
 8004232:	9201      	str	r2, [sp, #4]
 8004234:	6c1a      	ldr	r2, [r3, #64]	; 0x40
 8004236:	f042 5280 	orr.w	r2, r2, #268435456	; 0x10000000
 800423a:	641a      	str	r2, [r3, #64]	; 0x40
 800423c:	6c1b      	ldr	r3, [r3, #64]	; 0x40
 800423e:	f003 5380 	and.w	r3, r3, #268435456	; 0x10000000
 8004242:	9301      	str	r3, [sp, #4]
 8004244:	9b01      	ldr	r3, [sp, #4]
 8004246:	2601      	movs	r6, #1
 8004248:	4d48      	ldr	r5, [pc, #288]	; (800436c <HAL_RCC_OscConfig+0x2e0>)
 800424a:	682b      	ldr	r3, [r5, #0]
 800424c:	05d9      	lsls	r1, r3, #23
 800424e:	d51b      	bpl.n	8004288 <HAL_RCC_OscConfig+0x1fc>
 8004250:	68a3      	ldr	r3, [r4, #8]
 8004252:	4d43      	ldr	r5, [pc, #268]	; (8004360 <HAL_RCC_OscConfig+0x2d4>)
 8004254:	2b01      	cmp	r3, #1
 8004256:	d127      	bne.n	80042a8 <HAL_RCC_OscConfig+0x21c>
 8004258:	6f2b      	ldr	r3, [r5, #112]	; 0x70
 800425a:	f043 0301 	orr.w	r3, r3, #1
 800425e:	672b      	str	r3, [r5, #112]	; 0x70
 8004260:	f7fd feca 	bl	8001ff8 <HAL_GetTick>
 8004264:	4d3e      	ldr	r5, [pc, #248]	; (8004360 <HAL_RCC_OscConfig+0x2d4>)
 8004266:	4607      	mov	r7, r0
 8004268:	f241 3888 	movw	r8, #5000	; 0x1388
 800426c:	6f2b      	ldr	r3, [r5, #112]	; 0x70
 800426e:	079b      	lsls	r3, r3, #30
 8004270:	d539      	bpl.n	80042e6 <HAL_RCC_OscConfig+0x25a>
 8004272:	2e00      	cmp	r6, #0
 8004274:	f43f af1e 	beq.w	80040b4 <HAL_RCC_OscConfig+0x28>
 8004278:	4a39      	ldr	r2, [pc, #228]	; (8004360 <HAL_RCC_OscConfig+0x2d4>)
 800427a:	6c13      	ldr	r3, [r2, #64]	; 0x40
 800427c:	f023 5380 	bic.w	r3, r3, #268435456	; 0x10000000
 8004280:	6413      	str	r3, [r2, #64]	; 0x40
 8004282:	e717      	b.n	80040b4 <HAL_RCC_OscConfig+0x28>
 8004284:	2600      	movs	r6, #0
 8004286:	e7df      	b.n	8004248 <HAL_RCC_OscConfig+0x1bc>
 8004288:	682b      	ldr	r3, [r5, #0]
 800428a:	f443 7380 	orr.w	r3, r3, #256	; 0x100
 800428e:	602b      	str	r3, [r5, #0]
 8004290:	f7fd feb2 	bl	8001ff8 <HAL_GetTick>
 8004294:	4607      	mov	r7, r0
 8004296:	682b      	ldr	r3, [r5, #0]
 8004298:	05da      	lsls	r2, r3, #23
 800429a:	d4d9      	bmi.n	8004250 <HAL_RCC_OscConfig+0x1c4>
 800429c:	f7fd feac 	bl	8001ff8 <HAL_GetTick>
 80042a0:	1bc0      	subs	r0, r0, r7
 80042a2:	2802      	cmp	r0, #2
 80042a4:	d9f7      	bls.n	8004296 <HAL_RCC_OscConfig+0x20a>
 80042a6:	e736      	b.n	8004116 <HAL_RCC_OscConfig+0x8a>
 80042a8:	2b05      	cmp	r3, #5
 80042aa:	d104      	bne.n	80042b6 <HAL_RCC_OscConfig+0x22a>
 80042ac:	6f2b      	ldr	r3, [r5, #112]	; 0x70
 80042ae:	f043 0304 	orr.w	r3, r3, #4
 80042b2:	672b      	str	r3, [r5, #112]	; 0x70
 80042b4:	e7d0      	b.n	8004258 <HAL_RCC_OscConfig+0x1cc>
 80042b6:	6f2a      	ldr	r2, [r5, #112]	; 0x70
 80042b8:	f022 0201 	bic.w	r2, r2, #1
 80042bc:	672a      	str	r2, [r5, #112]	; 0x70
 80042be:	6f2a      	ldr	r2, [r5, #112]	; 0x70
 80042c0:	f022 0204 	bic.w	r2, r2, #4
 80042c4:	672a      	str	r2, [r5, #112]	; 0x70
 80042c6:	2b00      	cmp	r3, #0
 80042c8:	d1ca      	bne.n	8004260 <HAL_RCC_OscConfig+0x1d4>
 80042ca:	f7fd fe95 	bl	8001ff8 <HAL_GetTick>
 80042ce:	f241 3888 	movw	r8, #5000	; 0x1388
 80042d2:	4607      	mov	r7, r0
 80042d4:	6f2b      	ldr	r3, [r5, #112]	; 0x70
 80042d6:	0798      	lsls	r0, r3, #30
 80042d8:	d5cb      	bpl.n	8004272 <HAL_RCC_OscConfig+0x1e6>
 80042da:	f7fd fe8d 	bl	8001ff8 <HAL_GetTick>
 80042de:	1bc0      	subs	r0, r0, r7
 80042e0:	4540      	cmp	r0, r8
 80042e2:	d9f7      	bls.n	80042d4 <HAL_RCC_OscConfig+0x248>
 80042e4:	e717      	b.n	8004116 <HAL_RCC_OscConfig+0x8a>
 80042e6:	f7fd fe87 	bl	8001ff8 <HAL_GetTick>
 80042ea:	1bc0      	subs	r0, r0, r7
 80042ec:	4540      	cmp	r0, r8
 80042ee:	d9bd      	bls.n	800426c <HAL_RCC_OscConfig+0x1e0>
 80042f0:	e711      	b.n	8004116 <HAL_RCC_OscConfig+0x8a>
 80042f2:	4d1b      	ldr	r5, [pc, #108]	; (8004360 <HAL_RCC_OscConfig+0x2d4>)
 80042f4:	68ab      	ldr	r3, [r5, #8]
 80042f6:	f003 030c 	and.w	r3, r3, #12
 80042fa:	2b08      	cmp	r3, #8
 80042fc:	d047      	beq.n	800438e <HAL_RCC_OscConfig+0x302>
 80042fe:	4e1c      	ldr	r6, [pc, #112]	; (8004370 <HAL_RCC_OscConfig+0x2e4>)
 8004300:	2300      	movs	r3, #0
 8004302:	2802      	cmp	r0, #2
 8004304:	6033      	str	r3, [r6, #0]
 8004306:	d135      	bne.n	8004374 <HAL_RCC_OscConfig+0x2e8>
 8004308:	f7fd fe76 	bl	8001ff8 <HAL_GetTick>
 800430c:	4607      	mov	r7, r0
 800430e:	682b      	ldr	r3, [r5, #0]
 8004310:	0199      	lsls	r1, r3, #6
 8004312:	d41e      	bmi.n	8004352 <HAL_RCC_OscConfig+0x2c6>
 8004314:	e9d4 3207 	ldrd	r3, r2, [r4, #28]
 8004318:	4313      	orrs	r3, r2
 800431a:	6a62      	ldr	r2, [r4, #36]	; 0x24
 800431c:	ea43 1382 	orr.w	r3, r3, r2, lsl #6
 8004320:	6ae2      	ldr	r2, [r4, #44]	; 0x2c
 8004322:	ea43 6302 	orr.w	r3, r3, r2, lsl #24
 8004326:	6aa2      	ldr	r2, [r4, #40]	; 0x28
 8004328:	4c0d      	ldr	r4, [pc, #52]	; (8004360 <HAL_RCC_OscConfig+0x2d4>)
 800432a:	0852      	lsrs	r2, r2, #1
 800432c:	3a01      	subs	r2, #1
 800432e:	ea43 4302 	orr.w	r3, r3, r2, lsl #16
 8004332:	606b      	str	r3, [r5, #4]
 8004334:	2301      	movs	r3, #1
 8004336:	6033      	str	r3, [r6, #0]
 8004338:	f7fd fe5e 	bl	8001ff8 <HAL_GetTick>
 800433c:	4605      	mov	r5, r0
 800433e:	6823      	ldr	r3, [r4, #0]
 8004340:	019a      	lsls	r2, r3, #6
 8004342:	f53f aebb 	bmi.w	80040bc <HAL_RCC_OscConfig+0x30>
 8004346:	f7fd fe57 	bl	8001ff8 <HAL_GetTick>
 800434a:	1b40      	subs	r0, r0, r5
 800434c:	2802      	cmp	r0, #2
 800434e:	d9f6      	bls.n	800433e <HAL_RCC_OscConfig+0x2b2>
 8004350:	e6e1      	b.n	8004116 <HAL_RCC_OscConfig+0x8a>
 8004352:	f7fd fe51 	bl	8001ff8 <HAL_GetTick>
 8004356:	1bc0      	subs	r0, r0, r7
 8004358:	2802      	cmp	r0, #2
 800435a:	d9d8      	bls.n	800430e <HAL_RCC_OscConfig+0x282>
 800435c:	e6db      	b.n	8004116 <HAL_RCC_OscConfig+0x8a>
 800435e:	bf00      	nop
 8004360:	40023800 	.word	0x40023800
 8004364:	42470000 	.word	0x42470000
 8004368:	42470e80 	.word	0x42470e80
 800436c:	40007000 	.word	0x40007000
 8004370:	42470060 	.word	0x42470060
 8004374:	f7fd fe40 	bl	8001ff8 <HAL_GetTick>
 8004378:	4604      	mov	r4, r0
 800437a:	682b      	ldr	r3, [r5, #0]
 800437c:	019b      	lsls	r3, r3, #6
 800437e:	f57f ae9d 	bpl.w	80040bc <HAL_RCC_OscConfig+0x30>
 8004382:	f7fd fe39 	bl	8001ff8 <HAL_GetTick>
 8004386:	1b00      	subs	r0, r0, r4
 8004388:	2802      	cmp	r0, #2
 800438a:	d9f6      	bls.n	800437a <HAL_RCC_OscConfig+0x2ee>
 800438c:	e6c3      	b.n	8004116 <HAL_RCC_OscConfig+0x8a>
 800438e:	2801      	cmp	r0, #1
 8004390:	f43f aec2 	beq.w	8004118 <HAL_RCC_OscConfig+0x8c>
 8004394:	6868      	ldr	r0, [r5, #4]
 8004396:	69e3      	ldr	r3, [r4, #28]
 8004398:	f400 0280 	and.w	r2, r0, #4194304	; 0x400000
 800439c:	429a      	cmp	r2, r3
 800439e:	f47f ae79 	bne.w	8004094 <HAL_RCC_OscConfig+0x8>
 80043a2:	6a22      	ldr	r2, [r4, #32]
 80043a4:	f000 033f 	and.w	r3, r0, #63	; 0x3f
 80043a8:	4293      	cmp	r3, r2
 80043aa:	f47f ae73 	bne.w	8004094 <HAL_RCC_OscConfig+0x8>
 80043ae:	6a62      	ldr	r2, [r4, #36]	; 0x24
 80043b0:	f647 73c0 	movw	r3, #32704	; 0x7fc0
 80043b4:	4003      	ands	r3, r0
 80043b6:	4293      	cmp	r3, r2
 80043b8:	f47f ae6c 	bne.w	8004094 <HAL_RCC_OscConfig+0x8>
 80043bc:	6aa2      	ldr	r2, [r4, #40]	; 0x28
 80043be:	f400 3340 	and.w	r3, r0, #196608	; 0x30000
 80043c2:	4293      	cmp	r3, r2
 80043c4:	f47f ae66 	bne.w	8004094 <HAL_RCC_OscConfig+0x8>
 80043c8:	6ae3      	ldr	r3, [r4, #44]	; 0x2c
 80043ca:	f000 6070 	and.w	r0, r0, #251658240	; 0xf000000
 80043ce:	1ac0      	subs	r0, r0, r3
 80043d0:	bf18      	it	ne
 80043d2:	2001      	movne	r0, #1
 80043d4:	e6a0      	b.n	8004118 <HAL_RCC_OscConfig+0x8c>
 80043d6:	bf00      	nop

080043d8 <HAL_RCC_GetSysClockFreq>:
 80043d8:	4913      	ldr	r1, [pc, #76]	; (8004428 <HAL_RCC_GetSysClockFreq+0x50>)
 80043da:	b508      	push	{r3, lr}
 80043dc:	688b      	ldr	r3, [r1, #8]
 80043de:	f003 030c 	and.w	r3, r3, #12
 80043e2:	2b04      	cmp	r3, #4
 80043e4:	d003      	beq.n	80043ee <HAL_RCC_GetSysClockFreq+0x16>
 80043e6:	2b08      	cmp	r3, #8
 80043e8:	d003      	beq.n	80043f2 <HAL_RCC_GetSysClockFreq+0x1a>
 80043ea:	4810      	ldr	r0, [pc, #64]	; (800442c <HAL_RCC_GetSysClockFreq+0x54>)
 80043ec:	e000      	b.n	80043f0 <HAL_RCC_GetSysClockFreq+0x18>
 80043ee:	4810      	ldr	r0, [pc, #64]	; (8004430 <HAL_RCC_GetSysClockFreq+0x58>)
 80043f0:	bd08      	pop	{r3, pc}
 80043f2:	684a      	ldr	r2, [r1, #4]
 80043f4:	684b      	ldr	r3, [r1, #4]
 80043f6:	6849      	ldr	r1, [r1, #4]
 80043f8:	f413 0380 	ands.w	r3, r3, #4194304	; 0x400000
 80043fc:	bf14      	ite	ne
 80043fe:	480c      	ldrne	r0, [pc, #48]	; (8004430 <HAL_RCC_GetSysClockFreq+0x58>)
 8004400:	480a      	ldreq	r0, [pc, #40]	; (800442c <HAL_RCC_GetSysClockFreq+0x54>)
 8004402:	f3c1 1188 	ubfx	r1, r1, #6, #9
 8004406:	bf18      	it	ne
 8004408:	2300      	movne	r3, #0
 800440a:	f002 023f 	and.w	r2, r2, #63	; 0x3f
 800440e:	fba1 0100 	umull	r0, r1, r1, r0
 8004412:	f7fb ff4d 	bl	80002b0 <__aeabi_uldivmod>
 8004416:	4b04      	ldr	r3, [pc, #16]	; (8004428 <HAL_RCC_GetSysClockFreq+0x50>)
 8004418:	685b      	ldr	r3, [r3, #4]
 800441a:	f3c3 4301 	ubfx	r3, r3, #16, #2
 800441e:	3301      	adds	r3, #1
 8004420:	005b      	lsls	r3, r3, #1
 8004422:	fbb0 f0f3 	udiv	r0, r0, r3
 8004426:	e7e3      	b.n	80043f0 <HAL_RCC_GetSysClockFreq+0x18>
 8004428:	40023800 	.word	0x40023800
 800442c:	00f42400 	.word	0x00f42400
 8004430:	017d7840 	.word	0x017d7840

08004434 <HAL_RCC_ClockConfig>:
 8004434:	e92d 41f0 	stmdb	sp!, {r4, r5, r6, r7, r8, lr}
 8004438:	460d      	mov	r5, r1
 800443a:	4604      	mov	r4, r0
 800443c:	b910      	cbnz	r0, 8004444 <HAL_RCC_ClockConfig+0x10>
 800443e:	2001      	movs	r0, #1
 8004440:	e8bd 81f0 	ldmia.w	sp!, {r4, r5, r6, r7, r8, pc}
 8004444:	4b43      	ldr	r3, [pc, #268]	; (8004554 <HAL_RCC_ClockConfig+0x120>)
 8004446:	681a      	ldr	r2, [r3, #0]
 8004448:	f002 020f 	and.w	r2, r2, #15
 800444c:	428a      	cmp	r2, r1
 800444e:	d328      	bcc.n	80044a2 <HAL_RCC_ClockConfig+0x6e>
 8004450:	6821      	ldr	r1, [r4, #0]
 8004452:	078f      	lsls	r7, r1, #30
 8004454:	d42d      	bmi.n	80044b2 <HAL_RCC_ClockConfig+0x7e>
 8004456:	07c8      	lsls	r0, r1, #31
 8004458:	d440      	bmi.n	80044dc <HAL_RCC_ClockConfig+0xa8>
 800445a:	4b3e      	ldr	r3, [pc, #248]	; (8004554 <HAL_RCC_ClockConfig+0x120>)
 800445c:	681a      	ldr	r2, [r3, #0]
 800445e:	f002 020f 	and.w	r2, r2, #15
 8004462:	42aa      	cmp	r2, r5
 8004464:	d865      	bhi.n	8004532 <HAL_RCC_ClockConfig+0xfe>
 8004466:	6822      	ldr	r2, [r4, #0]
 8004468:	0751      	lsls	r1, r2, #29
 800446a:	d46b      	bmi.n	8004544 <HAL_RCC_ClockConfig+0x110>
 800446c:	0713      	lsls	r3, r2, #28
 800446e:	d507      	bpl.n	8004480 <HAL_RCC_ClockConfig+0x4c>
 8004470:	4a39      	ldr	r2, [pc, #228]	; (8004558 <HAL_RCC_ClockConfig+0x124>)
 8004472:	6921      	ldr	r1, [r4, #16]
 8004474:	6893      	ldr	r3, [r2, #8]
 8004476:	f423 4360 	bic.w	r3, r3, #57344	; 0xe000
 800447a:	ea43 03c1 	orr.w	r3, r3, r1, lsl #3
 800447e:	6093      	str	r3, [r2, #8]
 8004480:	f7ff ffaa 	bl	80043d8 <HAL_RCC_GetSysClockFreq>
 8004484:	4b34      	ldr	r3, [pc, #208]	; (8004558 <HAL_RCC_ClockConfig+0x124>)
 8004486:	4a35      	ldr	r2, [pc, #212]	; (800455c <HAL_RCC_ClockConfig+0x128>)
 8004488:	689b      	ldr	r3, [r3, #8]
 800448a:	f3c3 1303 	ubfx	r3, r3, #4, #4
 800448e:	5cd3      	ldrb	r3, [r2, r3]
 8004490:	40d8      	lsrs	r0, r3
 8004492:	4b33      	ldr	r3, [pc, #204]	; (8004560 <HAL_RCC_ClockConfig+0x12c>)
 8004494:	6018      	str	r0, [r3, #0]
 8004496:	4b33      	ldr	r3, [pc, #204]	; (8004564 <HAL_RCC_ClockConfig+0x130>)
 8004498:	6818      	ldr	r0, [r3, #0]
 800449a:	f7fd fd63 	bl	8001f64 <HAL_InitTick>
 800449e:	2000      	movs	r0, #0
 80044a0:	e7ce      	b.n	8004440 <HAL_RCC_ClockConfig+0xc>
 80044a2:	b2ca      	uxtb	r2, r1
 80044a4:	701a      	strb	r2, [r3, #0]
 80044a6:	681b      	ldr	r3, [r3, #0]
 80044a8:	f003 030f 	and.w	r3, r3, #15
 80044ac:	428b      	cmp	r3, r1
 80044ae:	d1c6      	bne.n	800443e <HAL_RCC_ClockConfig+0xa>
 80044b0:	e7ce      	b.n	8004450 <HAL_RCC_ClockConfig+0x1c>
 80044b2:	4b29      	ldr	r3, [pc, #164]	; (8004558 <HAL_RCC_ClockConfig+0x124>)
 80044b4:	f011 0f04 	tst.w	r1, #4
 80044b8:	bf1e      	ittt	ne
 80044ba:	689a      	ldrne	r2, [r3, #8]
 80044bc:	f442 52e0 	orrne.w	r2, r2, #7168	; 0x1c00
 80044c0:	609a      	strne	r2, [r3, #8]
 80044c2:	070e      	lsls	r6, r1, #28
 80044c4:	bf42      	ittt	mi
 80044c6:	689a      	ldrmi	r2, [r3, #8]
 80044c8:	f442 4260 	orrmi.w	r2, r2, #57344	; 0xe000
 80044cc:	609a      	strmi	r2, [r3, #8]
 80044ce:	689a      	ldr	r2, [r3, #8]
 80044d0:	68a0      	ldr	r0, [r4, #8]
 80044d2:	f022 02f0 	bic.w	r2, r2, #240	; 0xf0
 80044d6:	4302      	orrs	r2, r0
 80044d8:	609a      	str	r2, [r3, #8]
 80044da:	e7bc      	b.n	8004456 <HAL_RCC_ClockConfig+0x22>
 80044dc:	6862      	ldr	r2, [r4, #4]
 80044de:	4b1e      	ldr	r3, [pc, #120]	; (8004558 <HAL_RCC_ClockConfig+0x124>)
 80044e0:	2a01      	cmp	r2, #1
 80044e2:	d11c      	bne.n	800451e <HAL_RCC_ClockConfig+0xea>
 80044e4:	681b      	ldr	r3, [r3, #0]
 80044e6:	f413 3f00 	tst.w	r3, #131072	; 0x20000
 80044ea:	d0a8      	beq.n	800443e <HAL_RCC_ClockConfig+0xa>
 80044ec:	4e1a      	ldr	r6, [pc, #104]	; (8004558 <HAL_RCC_ClockConfig+0x124>)
 80044ee:	68b3      	ldr	r3, [r6, #8]
 80044f0:	f023 0303 	bic.w	r3, r3, #3
 80044f4:	4313      	orrs	r3, r2
 80044f6:	60b3      	str	r3, [r6, #8]
 80044f8:	f7fd fd7e 	bl	8001ff8 <HAL_GetTick>
 80044fc:	f241 3888 	movw	r8, #5000	; 0x1388
 8004500:	4607      	mov	r7, r0
 8004502:	68b3      	ldr	r3, [r6, #8]
 8004504:	6862      	ldr	r2, [r4, #4]
 8004506:	f003 030c 	and.w	r3, r3, #12
 800450a:	ebb3 0f82 	cmp.w	r3, r2, lsl #2
 800450e:	d0a4      	beq.n	800445a <HAL_RCC_ClockConfig+0x26>
 8004510:	f7fd fd72 	bl	8001ff8 <HAL_GetTick>
 8004514:	1bc0      	subs	r0, r0, r7
 8004516:	4540      	cmp	r0, r8
 8004518:	d9f3      	bls.n	8004502 <HAL_RCC_ClockConfig+0xce>
 800451a:	2003      	movs	r0, #3
 800451c:	e790      	b.n	8004440 <HAL_RCC_ClockConfig+0xc>
 800451e:	1e91      	subs	r1, r2, #2
 8004520:	2901      	cmp	r1, #1
 8004522:	681b      	ldr	r3, [r3, #0]
 8004524:	d802      	bhi.n	800452c <HAL_RCC_ClockConfig+0xf8>
 8004526:	f013 7f00 	tst.w	r3, #33554432	; 0x2000000
 800452a:	e7de      	b.n	80044ea <HAL_RCC_ClockConfig+0xb6>
 800452c:	f013 0f02 	tst.w	r3, #2
 8004530:	e7db      	b.n	80044ea <HAL_RCC_ClockConfig+0xb6>
 8004532:	b2ea      	uxtb	r2, r5
 8004534:	701a      	strb	r2, [r3, #0]
 8004536:	681b      	ldr	r3, [r3, #0]
 8004538:	f003 030f 	and.w	r3, r3, #15
 800453c:	42ab      	cmp	r3, r5
 800453e:	f47f af7e 	bne.w	800443e <HAL_RCC_ClockConfig+0xa>
 8004542:	e790      	b.n	8004466 <HAL_RCC_ClockConfig+0x32>
 8004544:	4904      	ldr	r1, [pc, #16]	; (8004558 <HAL_RCC_ClockConfig+0x124>)
 8004546:	68e0      	ldr	r0, [r4, #12]
 8004548:	688b      	ldr	r3, [r1, #8]
 800454a:	f423 53e0 	bic.w	r3, r3, #7168	; 0x1c00
 800454e:	4303      	orrs	r3, r0
 8004550:	608b      	str	r3, [r1, #8]
 8004552:	e78b      	b.n	800446c <HAL_RCC_ClockConfig+0x38>
 8004554:	40023c00 	.word	0x40023c00
 8004558:	40023800 	.word	0x40023800
 800455c:	080061a4 	.word	0x080061a4
 8004560:	20000020 	.word	0x20000020
 8004564:	20000028 	.word	0x20000028

08004568 <HAL_RCC_GetPCLK1Freq>:
 8004568:	4b04      	ldr	r3, [pc, #16]	; (800457c <HAL_RCC_GetPCLK1Freq+0x14>)
 800456a:	4a05      	ldr	r2, [pc, #20]	; (8004580 <HAL_RCC_GetPCLK1Freq+0x18>)
 800456c:	689b      	ldr	r3, [r3, #8]
 800456e:	f3c3 2382 	ubfx	r3, r3, #10, #3
 8004572:	5cd3      	ldrb	r3, [r2, r3]
 8004574:	4a03      	ldr	r2, [pc, #12]	; (8004584 <HAL_RCC_GetPCLK1Freq+0x1c>)
 8004576:	6810      	ldr	r0, [r2, #0]
 8004578:	40d8      	lsrs	r0, r3
 800457a:	4770      	bx	lr
 800457c:	40023800 	.word	0x40023800
 8004580:	080061b4 	.word	0x080061b4
 8004584:	20000020 	.word	0x20000020

08004588 <HAL_RCC_GetPCLK2Freq>:
 8004588:	4b04      	ldr	r3, [pc, #16]	; (800459c <HAL_RCC_GetPCLK2Freq+0x14>)
 800458a:	4a05      	ldr	r2, [pc, #20]	; (80045a0 <HAL_RCC_GetPCLK2Freq+0x18>)
 800458c:	689b      	ldr	r3, [r3, #8]
 800458e:	f3c3 3342 	ubfx	r3, r3, #13, #3
 8004592:	5cd3      	ldrb	r3, [r2, r3]
 8004594:	4a03      	ldr	r2, [pc, #12]	; (80045a4 <HAL_RCC_GetPCLK2Freq+0x1c>)
 8004596:	6810      	ldr	r0, [r2, #0]
 8004598:	40d8      	lsrs	r0, r3
 800459a:	4770      	bx	lr
 800459c:	40023800 	.word	0x40023800
 80045a0:	080061b4 	.word	0x080061b4
 80045a4:	20000020 	.word	0x20000020

080045a8 <TIM_OC1_SetConfig>:
 80045a8:	6a03      	ldr	r3, [r0, #32]
 80045aa:	f023 0301 	bic.w	r3, r3, #1
 80045ae:	6203      	str	r3, [r0, #32]
 80045b0:	6a03      	ldr	r3, [r0, #32]
 80045b2:	b570      	push	{r4, r5, r6, lr}
 80045b4:	6844      	ldr	r4, [r0, #4]
 80045b6:	6982      	ldr	r2, [r0, #24]
 80045b8:	680d      	ldr	r5, [r1, #0]
 80045ba:	f022 0273 	bic.w	r2, r2, #115	; 0x73
 80045be:	432a      	orrs	r2, r5
 80045c0:	688d      	ldr	r5, [r1, #8]
 80045c2:	f023 0302 	bic.w	r3, r3, #2
 80045c6:	432b      	orrs	r3, r5
 80045c8:	4d0a      	ldr	r5, [pc, #40]	; (80045f4 <TIM_OC1_SetConfig+0x4c>)
 80045ca:	42a8      	cmp	r0, r5
 80045cc:	d10b      	bne.n	80045e6 <TIM_OC1_SetConfig+0x3e>
 80045ce:	68cd      	ldr	r5, [r1, #12]
 80045d0:	f023 0308 	bic.w	r3, r3, #8
 80045d4:	432b      	orrs	r3, r5
 80045d6:	e9d1 5605 	ldrd	r5, r6, [r1, #20]
 80045da:	f424 7440 	bic.w	r4, r4, #768	; 0x300
 80045de:	4335      	orrs	r5, r6
 80045e0:	f023 0304 	bic.w	r3, r3, #4
 80045e4:	432c      	orrs	r4, r5
 80045e6:	6044      	str	r4, [r0, #4]
 80045e8:	6182      	str	r2, [r0, #24]
 80045ea:	684a      	ldr	r2, [r1, #4]
 80045ec:	6342      	str	r2, [r0, #52]	; 0x34
 80045ee:	6203      	str	r3, [r0, #32]
 80045f0:	bd70      	pop	{r4, r5, r6, pc}
 80045f2:	bf00      	nop
 80045f4:	40010000 	.word	0x40010000

080045f8 <TIM_OC3_SetConfig>:
 80045f8:	6a03      	ldr	r3, [r0, #32]
 80045fa:	f423 7380 	bic.w	r3, r3, #256	; 0x100
 80045fe:	6203      	str	r3, [r0, #32]
 8004600:	6a03      	ldr	r3, [r0, #32]
 8004602:	b570      	push	{r4, r5, r6, lr}
 8004604:	6844      	ldr	r4, [r0, #4]
 8004606:	69c2      	ldr	r2, [r0, #28]
 8004608:	680d      	ldr	r5, [r1, #0]
 800460a:	f022 0273 	bic.w	r2, r2, #115	; 0x73
 800460e:	432a      	orrs	r2, r5
 8004610:	688d      	ldr	r5, [r1, #8]
 8004612:	f423 7300 	bic.w	r3, r3, #512	; 0x200
 8004616:	ea43 2305 	orr.w	r3, r3, r5, lsl #8
 800461a:	4d0b      	ldr	r5, [pc, #44]	; (8004648 <TIM_OC3_SetConfig+0x50>)
 800461c:	42a8      	cmp	r0, r5
 800461e:	d10d      	bne.n	800463c <TIM_OC3_SetConfig+0x44>
 8004620:	68cd      	ldr	r5, [r1, #12]
 8004622:	f423 6300 	bic.w	r3, r3, #2048	; 0x800
 8004626:	ea43 2305 	orr.w	r3, r3, r5, lsl #8
 800462a:	e9d1 5605 	ldrd	r5, r6, [r1, #20]
 800462e:	f424 5440 	bic.w	r4, r4, #12288	; 0x3000
 8004632:	4335      	orrs	r5, r6
 8004634:	f423 6380 	bic.w	r3, r3, #1024	; 0x400
 8004638:	ea44 1405 	orr.w	r4, r4, r5, lsl #4
 800463c:	6044      	str	r4, [r0, #4]
 800463e:	61c2      	str	r2, [r0, #28]
 8004640:	684a      	ldr	r2, [r1, #4]
 8004642:	63c2      	str	r2, [r0, #60]	; 0x3c
 8004644:	6203      	str	r3, [r0, #32]
 8004646:	bd70      	pop	{r4, r5, r6, pc}
 8004648:	40010000 	.word	0x40010000

0800464c <TIM_OC4_SetConfig>:
 800464c:	6a03      	ldr	r3, [r0, #32]
 800464e:	f423 5380 	bic.w	r3, r3, #4096	; 0x1000
 8004652:	6203      	str	r3, [r0, #32]
 8004654:	6a03      	ldr	r3, [r0, #32]
 8004656:	b530      	push	{r4, r5, lr}
 8004658:	6844      	ldr	r4, [r0, #4]
 800465a:	69c2      	ldr	r2, [r0, #28]
 800465c:	680d      	ldr	r5, [r1, #0]
 800465e:	f422 42e6 	bic.w	r2, r2, #29440	; 0x7300
 8004662:	ea42 2205 	orr.w	r2, r2, r5, lsl #8
 8004666:	688d      	ldr	r5, [r1, #8]
 8004668:	f423 5300 	bic.w	r3, r3, #8192	; 0x2000
 800466c:	ea43 3305 	orr.w	r3, r3, r5, lsl #12
 8004670:	4d06      	ldr	r5, [pc, #24]	; (800468c <TIM_OC4_SetConfig+0x40>)
 8004672:	42a8      	cmp	r0, r5
 8004674:	bf02      	ittt	eq
 8004676:	694d      	ldreq	r5, [r1, #20]
 8004678:	f424 4480 	biceq.w	r4, r4, #16384	; 0x4000
 800467c:	ea44 1485 	orreq.w	r4, r4, r5, lsl #6
 8004680:	6044      	str	r4, [r0, #4]
 8004682:	61c2      	str	r2, [r0, #28]
 8004684:	684a      	ldr	r2, [r1, #4]
 8004686:	6402      	str	r2, [r0, #64]	; 0x40
 8004688:	6203      	str	r3, [r0, #32]
 800468a:	bd30      	pop	{r4, r5, pc}
 800468c:	40010000 	.word	0x40010000

08004690 <HAL_TIM_Base_Start_IT>:
 8004690:	6803      	ldr	r3, [r0, #0]
 8004692:	68da      	ldr	r2, [r3, #12]
 8004694:	f042 0201 	orr.w	r2, r2, #1
 8004698:	60da      	str	r2, [r3, #12]
 800469a:	689a      	ldr	r2, [r3, #8]
 800469c:	f002 0207 	and.w	r2, r2, #7
 80046a0:	2a06      	cmp	r2, #6
 80046a2:	bf1e      	ittt	ne
 80046a4:	681a      	ldrne	r2, [r3, #0]
 80046a6:	f042 0201 	orrne.w	r2, r2, #1
 80046aa:	601a      	strne	r2, [r3, #0]
 80046ac:	2000      	movs	r0, #0
 80046ae:	4770      	bx	lr

080046b0 <HAL_TIM_Base_Stop_IT>:
 80046b0:	6803      	ldr	r3, [r0, #0]
 80046b2:	68da      	ldr	r2, [r3, #12]
 80046b4:	f022 0201 	bic.w	r2, r2, #1
 80046b8:	60da      	str	r2, [r3, #12]
 80046ba:	6a19      	ldr	r1, [r3, #32]
 80046bc:	f241 1211 	movw	r2, #4369	; 0x1111
 80046c0:	4211      	tst	r1, r2
 80046c2:	d108      	bne.n	80046d6 <HAL_TIM_Base_Stop_IT+0x26>
 80046c4:	6a19      	ldr	r1, [r3, #32]
 80046c6:	f240 4244 	movw	r2, #1092	; 0x444
 80046ca:	4211      	tst	r1, r2
 80046cc:	bf02      	ittt	eq
 80046ce:	681a      	ldreq	r2, [r3, #0]
 80046d0:	f022 0201 	biceq.w	r2, r2, #1
 80046d4:	601a      	streq	r2, [r3, #0]
 80046d6:	2000      	movs	r0, #0
 80046d8:	4770      	bx	lr

080046da <HAL_TIM_PWM_MspInit>:
 80046da:	4770      	bx	lr

080046dc <HAL_TIM_ReadCapturedValue>:
 80046dc:	290c      	cmp	r1, #12
 80046de:	d814      	bhi.n	800470a <HAL_TIM_ReadCapturedValue+0x2e>
 80046e0:	e8df f001 	tbb	[pc, r1]
 80046e4:	13131307 	.word	0x13131307
 80046e8:	1313130a 	.word	0x1313130a
 80046ec:	1313130d 	.word	0x1313130d
 80046f0:	10          	.byte	0x10
 80046f1:	00          	.byte	0x00
 80046f2:	6803      	ldr	r3, [r0, #0]
 80046f4:	6b58      	ldr	r0, [r3, #52]	; 0x34
 80046f6:	4770      	bx	lr
 80046f8:	6803      	ldr	r3, [r0, #0]
 80046fa:	6b98      	ldr	r0, [r3, #56]	; 0x38
 80046fc:	4770      	bx	lr
 80046fe:	6803      	ldr	r3, [r0, #0]
 8004700:	6bd8      	ldr	r0, [r3, #60]	; 0x3c
 8004702:	4770      	bx	lr
 8004704:	6803      	ldr	r3, [r0, #0]
 8004706:	6c18      	ldr	r0, [r3, #64]	; 0x40
 8004708:	4770      	bx	lr
 800470a:	2000      	movs	r0, #0
 800470c:	4770      	bx	lr

0800470e <HAL_TIM_OC_DelayElapsedCallback>:
 800470e:	4770      	bx	lr

08004710 <HAL_TIM_IC_CaptureCallback>:
 8004710:	4770      	bx	lr

08004712 <HAL_TIM_TriggerCallback>:
 8004712:	4770      	bx	lr

08004714 <HAL_TIM_IRQHandler>:
 8004714:	6803      	ldr	r3, [r0, #0]
 8004716:	691a      	ldr	r2, [r3, #16]
 8004718:	0791      	lsls	r1, r2, #30
 800471a:	b510      	push	{r4, lr}
 800471c:	4604      	mov	r4, r0
 800471e:	d50e      	bpl.n	800473e <HAL_TIM_IRQHandler+0x2a>
 8004720:	68da      	ldr	r2, [r3, #12]
 8004722:	0792      	lsls	r2, r2, #30
 8004724:	d50b      	bpl.n	800473e <HAL_TIM_IRQHandler+0x2a>
 8004726:	f06f 0202 	mvn.w	r2, #2
 800472a:	611a      	str	r2, [r3, #16]
 800472c:	699b      	ldr	r3, [r3, #24]
 800472e:	2201      	movs	r2, #1
 8004730:	079b      	lsls	r3, r3, #30
 8004732:	7702      	strb	r2, [r0, #28]
 8004734:	d077      	beq.n	8004826 <HAL_TIM_IRQHandler+0x112>
 8004736:	f7ff ffeb 	bl	8004710 <HAL_TIM_IC_CaptureCallback>
 800473a:	2300      	movs	r3, #0
 800473c:	7723      	strb	r3, [r4, #28]
 800473e:	6823      	ldr	r3, [r4, #0]
 8004740:	691a      	ldr	r2, [r3, #16]
 8004742:	0750      	lsls	r0, r2, #29
 8004744:	d510      	bpl.n	8004768 <HAL_TIM_IRQHandler+0x54>
 8004746:	68da      	ldr	r2, [r3, #12]
 8004748:	0751      	lsls	r1, r2, #29
 800474a:	d50d      	bpl.n	8004768 <HAL_TIM_IRQHandler+0x54>
 800474c:	f06f 0204 	mvn.w	r2, #4
 8004750:	611a      	str	r2, [r3, #16]
 8004752:	699b      	ldr	r3, [r3, #24]
 8004754:	2202      	movs	r2, #2
 8004756:	f413 7f40 	tst.w	r3, #768	; 0x300
 800475a:	7722      	strb	r2, [r4, #28]
 800475c:	4620      	mov	r0, r4
 800475e:	d068      	beq.n	8004832 <HAL_TIM_IRQHandler+0x11e>
 8004760:	f7ff ffd6 	bl	8004710 <HAL_TIM_IC_CaptureCallback>
 8004764:	2300      	movs	r3, #0
 8004766:	7723      	strb	r3, [r4, #28]
 8004768:	6823      	ldr	r3, [r4, #0]
 800476a:	691a      	ldr	r2, [r3, #16]
 800476c:	0712      	lsls	r2, r2, #28
 800476e:	d50f      	bpl.n	8004790 <HAL_TIM_IRQHandler+0x7c>
 8004770:	68da      	ldr	r2, [r3, #12]
 8004772:	0710      	lsls	r0, r2, #28
 8004774:	d50c      	bpl.n	8004790 <HAL_TIM_IRQHandler+0x7c>
 8004776:	f06f 0208 	mvn.w	r2, #8
 800477a:	611a      	str	r2, [r3, #16]
 800477c:	69db      	ldr	r3, [r3, #28]
 800477e:	2204      	movs	r2, #4
 8004780:	0799      	lsls	r1, r3, #30
 8004782:	7722      	strb	r2, [r4, #28]
 8004784:	4620      	mov	r0, r4
 8004786:	d05a      	beq.n	800483e <HAL_TIM_IRQHandler+0x12a>
 8004788:	f7ff ffc2 	bl	8004710 <HAL_TIM_IC_CaptureCallback>
 800478c:	2300      	movs	r3, #0
 800478e:	7723      	strb	r3, [r4, #28]
 8004790:	6823      	ldr	r3, [r4, #0]
 8004792:	691a      	ldr	r2, [r3, #16]
 8004794:	06d2      	lsls	r2, r2, #27
 8004796:	d510      	bpl.n	80047ba <HAL_TIM_IRQHandler+0xa6>
 8004798:	68da      	ldr	r2, [r3, #12]
 800479a:	06d0      	lsls	r0, r2, #27
 800479c:	d50d      	bpl.n	80047ba <HAL_TIM_IRQHandler+0xa6>
 800479e:	f06f 0210 	mvn.w	r2, #16
 80047a2:	611a      	str	r2, [r3, #16]
 80047a4:	69db      	ldr	r3, [r3, #28]
 80047a6:	2208      	movs	r2, #8
 80047a8:	f413 7f40 	tst.w	r3, #768	; 0x300
 80047ac:	7722      	strb	r2, [r4, #28]
 80047ae:	4620      	mov	r0, r4
 80047b0:	d04b      	beq.n	800484a <HAL_TIM_IRQHandler+0x136>
 80047b2:	f7ff ffad 	bl	8004710 <HAL_TIM_IC_CaptureCallback>
 80047b6:	2300      	movs	r3, #0
 80047b8:	7723      	strb	r3, [r4, #28]
 80047ba:	6823      	ldr	r3, [r4, #0]
 80047bc:	691a      	ldr	r2, [r3, #16]
 80047be:	07d1      	lsls	r1, r2, #31
 80047c0:	d508      	bpl.n	80047d4 <HAL_TIM_IRQHandler+0xc0>
 80047c2:	68da      	ldr	r2, [r3, #12]
 80047c4:	07d2      	lsls	r2, r2, #31
 80047c6:	d505      	bpl.n	80047d4 <HAL_TIM_IRQHandler+0xc0>
 80047c8:	f06f 0201 	mvn.w	r2, #1
 80047cc:	611a      	str	r2, [r3, #16]
 80047ce:	4620      	mov	r0, r4
 80047d0:	f7fd fa4e 	bl	8001c70 <HAL_TIM_PeriodElapsedCallback>
 80047d4:	6823      	ldr	r3, [r4, #0]
 80047d6:	691a      	ldr	r2, [r3, #16]
 80047d8:	0610      	lsls	r0, r2, #24
 80047da:	d508      	bpl.n	80047ee <HAL_TIM_IRQHandler+0xda>
 80047dc:	68da      	ldr	r2, [r3, #12]
 80047de:	0611      	lsls	r1, r2, #24
 80047e0:	d505      	bpl.n	80047ee <HAL_TIM_IRQHandler+0xda>
 80047e2:	f06f 0280 	mvn.w	r2, #128	; 0x80
 80047e6:	611a      	str	r2, [r3, #16]
 80047e8:	4620      	mov	r0, r4
 80047ea:	f000 faac 	bl	8004d46 <HAL_TIMEx_BreakCallback>
 80047ee:	6823      	ldr	r3, [r4, #0]
 80047f0:	691a      	ldr	r2, [r3, #16]
 80047f2:	0652      	lsls	r2, r2, #25
 80047f4:	d508      	bpl.n	8004808 <HAL_TIM_IRQHandler+0xf4>
 80047f6:	68da      	ldr	r2, [r3, #12]
 80047f8:	0650      	lsls	r0, r2, #25
 80047fa:	d505      	bpl.n	8004808 <HAL_TIM_IRQHandler+0xf4>
 80047fc:	f06f 0240 	mvn.w	r2, #64	; 0x40
 8004800:	611a      	str	r2, [r3, #16]
 8004802:	4620      	mov	r0, r4
 8004804:	f7ff ff85 	bl	8004712 <HAL_TIM_TriggerCallback>
 8004808:	6823      	ldr	r3, [r4, #0]
 800480a:	691a      	ldr	r2, [r3, #16]
 800480c:	0691      	lsls	r1, r2, #26
 800480e:	d522      	bpl.n	8004856 <HAL_TIM_IRQHandler+0x142>
 8004810:	68da      	ldr	r2, [r3, #12]
 8004812:	0692      	lsls	r2, r2, #26
 8004814:	d51f      	bpl.n	8004856 <HAL_TIM_IRQHandler+0x142>
 8004816:	f06f 0220 	mvn.w	r2, #32
 800481a:	4620      	mov	r0, r4
 800481c:	611a      	str	r2, [r3, #16]
 800481e:	e8bd 4010 	ldmia.w	sp!, {r4, lr}
 8004822:	f000 ba8f 	b.w	8004d44 <HAL_TIMEx_CommutCallback>
 8004826:	f7ff ff72 	bl	800470e <HAL_TIM_OC_DelayElapsedCallback>
 800482a:	4620      	mov	r0, r4
 800482c:	f7fd fabe 	bl	8001dac <HAL_TIM_PWM_PulseFinishedCallback>
 8004830:	e783      	b.n	800473a <HAL_TIM_IRQHandler+0x26>
 8004832:	f7ff ff6c 	bl	800470e <HAL_TIM_OC_DelayElapsedCallback>
 8004836:	4620      	mov	r0, r4
 8004838:	f7fd fab8 	bl	8001dac <HAL_TIM_PWM_PulseFinishedCallback>
 800483c:	e792      	b.n	8004764 <HAL_TIM_IRQHandler+0x50>
 800483e:	f7ff ff66 	bl	800470e <HAL_TIM_OC_DelayElapsedCallback>
 8004842:	4620      	mov	r0, r4
 8004844:	f7fd fab2 	bl	8001dac <HAL_TIM_PWM_PulseFinishedCallback>
 8004848:	e7a0      	b.n	800478c <HAL_TIM_IRQHandler+0x78>
 800484a:	f7ff ff60 	bl	800470e <HAL_TIM_OC_DelayElapsedCallback>
 800484e:	4620      	mov	r0, r4
 8004850:	f7fd faac 	bl	8001dac <HAL_TIM_PWM_PulseFinishedCallback>
 8004854:	e7af      	b.n	80047b6 <HAL_TIM_IRQHandler+0xa2>
 8004856:	bd10      	pop	{r4, pc}

08004858 <TIM_Base_SetConfig>:
 8004858:	4a24      	ldr	r2, [pc, #144]	; (80048ec <TIM_Base_SetConfig+0x94>)
 800485a:	6803      	ldr	r3, [r0, #0]
 800485c:	4290      	cmp	r0, r2
 800485e:	d00e      	beq.n	800487e <TIM_Base_SetConfig+0x26>
 8004860:	f1b0 4f80 	cmp.w	r0, #1073741824	; 0x40000000
 8004864:	d00b      	beq.n	800487e <TIM_Base_SetConfig+0x26>
 8004866:	f5a2 427c 	sub.w	r2, r2, #64512	; 0xfc00
 800486a:	4290      	cmp	r0, r2
 800486c:	d007      	beq.n	800487e <TIM_Base_SetConfig+0x26>
 800486e:	f502 6280 	add.w	r2, r2, #1024	; 0x400
 8004872:	4290      	cmp	r0, r2
 8004874:	d003      	beq.n	800487e <TIM_Base_SetConfig+0x26>
 8004876:	f502 6280 	add.w	r2, r2, #1024	; 0x400
 800487a:	4290      	cmp	r0, r2
 800487c:	d115      	bne.n	80048aa <TIM_Base_SetConfig+0x52>
 800487e:	684a      	ldr	r2, [r1, #4]
 8004880:	f023 0370 	bic.w	r3, r3, #112	; 0x70
 8004884:	4313      	orrs	r3, r2
 8004886:	4a19      	ldr	r2, [pc, #100]	; (80048ec <TIM_Base_SetConfig+0x94>)
 8004888:	4290      	cmp	r0, r2
 800488a:	d019      	beq.n	80048c0 <TIM_Base_SetConfig+0x68>
 800488c:	f1b0 4f80 	cmp.w	r0, #1073741824	; 0x40000000
 8004890:	d016      	beq.n	80048c0 <TIM_Base_SetConfig+0x68>
 8004892:	f5a2 427c 	sub.w	r2, r2, #64512	; 0xfc00
 8004896:	4290      	cmp	r0, r2
 8004898:	d012      	beq.n	80048c0 <TIM_Base_SetConfig+0x68>
 800489a:	f502 6280 	add.w	r2, r2, #1024	; 0x400
 800489e:	4290      	cmp	r0, r2
 80048a0:	d00e      	beq.n	80048c0 <TIM_Base_SetConfig+0x68>
 80048a2:	f502 6280 	add.w	r2, r2, #1024	; 0x400
 80048a6:	4290      	cmp	r0, r2
 80048a8:	d00a      	beq.n	80048c0 <TIM_Base_SetConfig+0x68>
 80048aa:	4a11      	ldr	r2, [pc, #68]	; (80048f0 <TIM_Base_SetConfig+0x98>)
 80048ac:	4290      	cmp	r0, r2
 80048ae:	d007      	beq.n	80048c0 <TIM_Base_SetConfig+0x68>
 80048b0:	f502 6280 	add.w	r2, r2, #1024	; 0x400
 80048b4:	4290      	cmp	r0, r2
 80048b6:	d003      	beq.n	80048c0 <TIM_Base_SetConfig+0x68>
 80048b8:	f502 6280 	add.w	r2, r2, #1024	; 0x400
 80048bc:	4290      	cmp	r0, r2
 80048be:	d103      	bne.n	80048c8 <TIM_Base_SetConfig+0x70>
 80048c0:	68ca      	ldr	r2, [r1, #12]
 80048c2:	f423 7340 	bic.w	r3, r3, #768	; 0x300
 80048c6:	4313      	orrs	r3, r2
 80048c8:	694a      	ldr	r2, [r1, #20]
 80048ca:	f023 0380 	bic.w	r3, r3, #128	; 0x80
 80048ce:	4313      	orrs	r3, r2
 80048d0:	6003      	str	r3, [r0, #0]
 80048d2:	688b      	ldr	r3, [r1, #8]
 80048d4:	62c3      	str	r3, [r0, #44]	; 0x2c
 80048d6:	680b      	ldr	r3, [r1, #0]
 80048d8:	6283      	str	r3, [r0, #40]	; 0x28
 80048da:	4b04      	ldr	r3, [pc, #16]	; (80048ec <TIM_Base_SetConfig+0x94>)
 80048dc:	4298      	cmp	r0, r3
 80048de:	bf04      	itt	eq
 80048e0:	690b      	ldreq	r3, [r1, #16]
 80048e2:	6303      	streq	r3, [r0, #48]	; 0x30
 80048e4:	2301      	movs	r3, #1
 80048e6:	6143      	str	r3, [r0, #20]
 80048e8:	4770      	bx	lr
 80048ea:	bf00      	nop
 80048ec:	40010000 	.word	0x40010000
 80048f0:	40014000 	.word	0x40014000

080048f4 <HAL_TIM_Base_Init>:
 80048f4:	b510      	push	{r4, lr}
 80048f6:	4604      	mov	r4, r0
 80048f8:	b1a0      	cbz	r0, 8004924 <HAL_TIM_Base_Init+0x30>
 80048fa:	f890 303d 	ldrb.w	r3, [r0, #61]	; 0x3d
 80048fe:	f003 02ff 	and.w	r2, r3, #255	; 0xff
 8004902:	b91b      	cbnz	r3, 800490c <HAL_TIM_Base_Init+0x18>
 8004904:	f880 203c 	strb.w	r2, [r0, #60]	; 0x3c
 8004908:	f7fd f8a4 	bl	8001a54 <HAL_TIM_Base_MspInit>
 800490c:	2302      	movs	r3, #2
 800490e:	f884 303d 	strb.w	r3, [r4, #61]	; 0x3d
 8004912:	6820      	ldr	r0, [r4, #0]
 8004914:	1d21      	adds	r1, r4, #4
 8004916:	f7ff ff9f 	bl	8004858 <TIM_Base_SetConfig>
 800491a:	2301      	movs	r3, #1
 800491c:	f884 303d 	strb.w	r3, [r4, #61]	; 0x3d
 8004920:	2000      	movs	r0, #0
 8004922:	bd10      	pop	{r4, pc}
 8004924:	2001      	movs	r0, #1
 8004926:	e7fc      	b.n	8004922 <HAL_TIM_Base_Init+0x2e>

08004928 <HAL_TIM_PWM_Init>:
 8004928:	b510      	push	{r4, lr}
 800492a:	4604      	mov	r4, r0
 800492c:	b1a0      	cbz	r0, 8004958 <HAL_TIM_PWM_Init+0x30>
 800492e:	f890 303d 	ldrb.w	r3, [r0, #61]	; 0x3d
 8004932:	f003 02ff 	and.w	r2, r3, #255	; 0xff
 8004936:	b91b      	cbnz	r3, 8004940 <HAL_TIM_PWM_Init+0x18>
 8004938:	f880 203c 	strb.w	r2, [r0, #60]	; 0x3c
 800493c:	f7ff fecd 	bl	80046da <HAL_TIM_PWM_MspInit>
 8004940:	2302      	movs	r3, #2
 8004942:	f884 303d 	strb.w	r3, [r4, #61]	; 0x3d
 8004946:	6820      	ldr	r0, [r4, #0]
 8004948:	1d21      	adds	r1, r4, #4
 800494a:	f7ff ff85 	bl	8004858 <TIM_Base_SetConfig>
 800494e:	2301      	movs	r3, #1
 8004950:	f884 303d 	strb.w	r3, [r4, #61]	; 0x3d
 8004954:	2000      	movs	r0, #0
 8004956:	bd10      	pop	{r4, pc}
 8004958:	2001      	movs	r0, #1
 800495a:	e7fc      	b.n	8004956 <HAL_TIM_PWM_Init+0x2e>

0800495c <TIM_OC2_SetConfig>:
 800495c:	6a03      	ldr	r3, [r0, #32]
 800495e:	f023 0310 	bic.w	r3, r3, #16
 8004962:	6203      	str	r3, [r0, #32]
 8004964:	6a03      	ldr	r3, [r0, #32]
 8004966:	b570      	push	{r4, r5, r6, lr}
 8004968:	6844      	ldr	r4, [r0, #4]
 800496a:	6982      	ldr	r2, [r0, #24]
 800496c:	680d      	ldr	r5, [r1, #0]
 800496e:	f422 42e6 	bic.w	r2, r2, #29440	; 0x7300
 8004972:	ea42 2205 	orr.w	r2, r2, r5, lsl #8
 8004976:	688d      	ldr	r5, [r1, #8]
 8004978:	f023 0320 	bic.w	r3, r3, #32
 800497c:	ea43 1305 	orr.w	r3, r3, r5, lsl #4
 8004980:	4d0b      	ldr	r5, [pc, #44]	; (80049b0 <TIM_OC2_SetConfig+0x54>)
 8004982:	42a8      	cmp	r0, r5
 8004984:	d10d      	bne.n	80049a2 <TIM_OC2_SetConfig+0x46>
 8004986:	68cd      	ldr	r5, [r1, #12]
 8004988:	f023 0380 	bic.w	r3, r3, #128	; 0x80
 800498c:	ea43 1305 	orr.w	r3, r3, r5, lsl #4
 8004990:	e9d1 5605 	ldrd	r5, r6, [r1, #20]
 8004994:	f424 6440 	bic.w	r4, r4, #3072	; 0xc00
 8004998:	4335      	orrs	r5, r6
 800499a:	f023 0340 	bic.w	r3, r3, #64	; 0x40
 800499e:	ea44 0485 	orr.w	r4, r4, r5, lsl #2
 80049a2:	6044      	str	r4, [r0, #4]
 80049a4:	6182      	str	r2, [r0, #24]
 80049a6:	684a      	ldr	r2, [r1, #4]
 80049a8:	6382      	str	r2, [r0, #56]	; 0x38
 80049aa:	6203      	str	r3, [r0, #32]
 80049ac:	bd70      	pop	{r4, r5, r6, pc}
 80049ae:	bf00      	nop
 80049b0:	40010000 	.word	0x40010000

080049b4 <HAL_TIM_PWM_ConfigChannel>:
 80049b4:	b538      	push	{r3, r4, r5, lr}
 80049b6:	f890 303c 	ldrb.w	r3, [r0, #60]	; 0x3c
 80049ba:	2b01      	cmp	r3, #1
 80049bc:	4604      	mov	r4, r0
 80049be:	f04f 0002 	mov.w	r0, #2
 80049c2:	d025      	beq.n	8004a10 <HAL_TIM_PWM_ConfigChannel+0x5c>
 80049c4:	2301      	movs	r3, #1
 80049c6:	f884 303c 	strb.w	r3, [r4, #60]	; 0x3c
 80049ca:	f884 003d 	strb.w	r0, [r4, #61]	; 0x3d
 80049ce:	2a0c      	cmp	r2, #12
 80049d0:	d818      	bhi.n	8004a04 <HAL_TIM_PWM_ConfigChannel+0x50>
 80049d2:	e8df f002 	tbb	[pc, r2]
 80049d6:	1707      	.short	0x1707
 80049d8:	171e1717 	.word	0x171e1717
 80049dc:	172f1717 	.word	0x172f1717
 80049e0:	1717      	.short	0x1717
 80049e2:	40          	.byte	0x40
 80049e3:	00          	.byte	0x00
 80049e4:	6820      	ldr	r0, [r4, #0]
 80049e6:	f7ff fddf 	bl	80045a8 <TIM_OC1_SetConfig>
 80049ea:	6823      	ldr	r3, [r4, #0]
 80049ec:	6909      	ldr	r1, [r1, #16]
 80049ee:	699a      	ldr	r2, [r3, #24]
 80049f0:	f042 0208 	orr.w	r2, r2, #8
 80049f4:	619a      	str	r2, [r3, #24]
 80049f6:	699a      	ldr	r2, [r3, #24]
 80049f8:	f022 0204 	bic.w	r2, r2, #4
 80049fc:	619a      	str	r2, [r3, #24]
 80049fe:	699a      	ldr	r2, [r3, #24]
 8004a00:	430a      	orrs	r2, r1
 8004a02:	619a      	str	r2, [r3, #24]
 8004a04:	2301      	movs	r3, #1
 8004a06:	2000      	movs	r0, #0
 8004a08:	f884 303d 	strb.w	r3, [r4, #61]	; 0x3d
 8004a0c:	f884 003c 	strb.w	r0, [r4, #60]	; 0x3c
 8004a10:	bd38      	pop	{r3, r4, r5, pc}
 8004a12:	6820      	ldr	r0, [r4, #0]
 8004a14:	f7ff ffa2 	bl	800495c <TIM_OC2_SetConfig>
 8004a18:	6823      	ldr	r3, [r4, #0]
 8004a1a:	6909      	ldr	r1, [r1, #16]
 8004a1c:	699a      	ldr	r2, [r3, #24]
 8004a1e:	f442 6200 	orr.w	r2, r2, #2048	; 0x800
 8004a22:	619a      	str	r2, [r3, #24]
 8004a24:	699a      	ldr	r2, [r3, #24]
 8004a26:	f422 6280 	bic.w	r2, r2, #1024	; 0x400
 8004a2a:	619a      	str	r2, [r3, #24]
 8004a2c:	699a      	ldr	r2, [r3, #24]
 8004a2e:	ea42 2201 	orr.w	r2, r2, r1, lsl #8
 8004a32:	e7e6      	b.n	8004a02 <HAL_TIM_PWM_ConfigChannel+0x4e>
 8004a34:	6820      	ldr	r0, [r4, #0]
 8004a36:	f7ff fddf 	bl	80045f8 <TIM_OC3_SetConfig>
 8004a3a:	6823      	ldr	r3, [r4, #0]
 8004a3c:	6909      	ldr	r1, [r1, #16]
 8004a3e:	69da      	ldr	r2, [r3, #28]
 8004a40:	f042 0208 	orr.w	r2, r2, #8
 8004a44:	61da      	str	r2, [r3, #28]
 8004a46:	69da      	ldr	r2, [r3, #28]
 8004a48:	f022 0204 	bic.w	r2, r2, #4
 8004a4c:	61da      	str	r2, [r3, #28]
 8004a4e:	69da      	ldr	r2, [r3, #28]
 8004a50:	430a      	orrs	r2, r1
 8004a52:	61da      	str	r2, [r3, #28]
 8004a54:	e7d6      	b.n	8004a04 <HAL_TIM_PWM_ConfigChannel+0x50>
 8004a56:	6820      	ldr	r0, [r4, #0]
 8004a58:	f7ff fdf8 	bl	800464c <TIM_OC4_SetConfig>
 8004a5c:	6823      	ldr	r3, [r4, #0]
 8004a5e:	6909      	ldr	r1, [r1, #16]
 8004a60:	69da      	ldr	r2, [r3, #28]
 8004a62:	f442 6200 	orr.w	r2, r2, #2048	; 0x800
 8004a66:	61da      	str	r2, [r3, #28]
 8004a68:	69da      	ldr	r2, [r3, #28]
 8004a6a:	f422 6280 	bic.w	r2, r2, #1024	; 0x400
 8004a6e:	61da      	str	r2, [r3, #28]
 8004a70:	69da      	ldr	r2, [r3, #28]
 8004a72:	ea42 2201 	orr.w	r2, r2, r1, lsl #8
 8004a76:	e7ec      	b.n	8004a52 <HAL_TIM_PWM_ConfigChannel+0x9e>

08004a78 <TIM_ETR_SetConfig>:
 8004a78:	b510      	push	{r4, lr}
 8004a7a:	6884      	ldr	r4, [r0, #8]
 8004a7c:	430a      	orrs	r2, r1
 8004a7e:	f424 447f 	bic.w	r4, r4, #65280	; 0xff00
 8004a82:	ea42 2303 	orr.w	r3, r2, r3, lsl #8
 8004a86:	4323      	orrs	r3, r4
 8004a88:	6083      	str	r3, [r0, #8]
 8004a8a:	bd10      	pop	{r4, pc}

08004a8c <HAL_TIM_ConfigClockSource>:
 8004a8c:	f890 303c 	ldrb.w	r3, [r0, #60]	; 0x3c
 8004a90:	2b01      	cmp	r3, #1
 8004a92:	b570      	push	{r4, r5, r6, lr}
 8004a94:	4604      	mov	r4, r0
 8004a96:	f04f 0002 	mov.w	r0, #2
 8004a9a:	d019      	beq.n	8004ad0 <HAL_TIM_ConfigClockSource+0x44>
 8004a9c:	f884 003d 	strb.w	r0, [r4, #61]	; 0x3d
 8004aa0:	6820      	ldr	r0, [r4, #0]
 8004aa2:	2301      	movs	r3, #1
 8004aa4:	f884 303c 	strb.w	r3, [r4, #60]	; 0x3c
 8004aa8:	6883      	ldr	r3, [r0, #8]
 8004aaa:	f423 437f 	bic.w	r3, r3, #65280	; 0xff00
 8004aae:	f023 0377 	bic.w	r3, r3, #119	; 0x77
 8004ab2:	6083      	str	r3, [r0, #8]
 8004ab4:	680b      	ldr	r3, [r1, #0]
 8004ab6:	2b40      	cmp	r3, #64	; 0x40
 8004ab8:	d065      	beq.n	8004b86 <HAL_TIM_ConfigClockSource+0xfa>
 8004aba:	d815      	bhi.n	8004ae8 <HAL_TIM_ConfigClockSource+0x5c>
 8004abc:	2b10      	cmp	r3, #16
 8004abe:	d00c      	beq.n	8004ada <HAL_TIM_ConfigClockSource+0x4e>
 8004ac0:	d807      	bhi.n	8004ad2 <HAL_TIM_ConfigClockSource+0x46>
 8004ac2:	b153      	cbz	r3, 8004ada <HAL_TIM_ConfigClockSource+0x4e>
 8004ac4:	2301      	movs	r3, #1
 8004ac6:	2000      	movs	r0, #0
 8004ac8:	f884 303d 	strb.w	r3, [r4, #61]	; 0x3d
 8004acc:	f884 003c 	strb.w	r0, [r4, #60]	; 0x3c
 8004ad0:	bd70      	pop	{r4, r5, r6, pc}
 8004ad2:	2b20      	cmp	r3, #32
 8004ad4:	d001      	beq.n	8004ada <HAL_TIM_ConfigClockSource+0x4e>
 8004ad6:	2b30      	cmp	r3, #48	; 0x30
 8004ad8:	d1f4      	bne.n	8004ac4 <HAL_TIM_ConfigClockSource+0x38>
 8004ada:	6882      	ldr	r2, [r0, #8]
 8004adc:	f043 0307 	orr.w	r3, r3, #7
 8004ae0:	f022 0270 	bic.w	r2, r2, #112	; 0x70
 8004ae4:	4313      	orrs	r3, r2
 8004ae6:	e01a      	b.n	8004b1e <HAL_TIM_ConfigClockSource+0x92>
 8004ae8:	2b60      	cmp	r3, #96	; 0x60
 8004aea:	d034      	beq.n	8004b56 <HAL_TIM_ConfigClockSource+0xca>
 8004aec:	d819      	bhi.n	8004b22 <HAL_TIM_ConfigClockSource+0x96>
 8004aee:	2b50      	cmp	r3, #80	; 0x50
 8004af0:	d1e8      	bne.n	8004ac4 <HAL_TIM_ConfigClockSource+0x38>
 8004af2:	684a      	ldr	r2, [r1, #4]
 8004af4:	68ce      	ldr	r6, [r1, #12]
 8004af6:	6a01      	ldr	r1, [r0, #32]
 8004af8:	6a05      	ldr	r5, [r0, #32]
 8004afa:	f025 0501 	bic.w	r5, r5, #1
 8004afe:	6205      	str	r5, [r0, #32]
 8004b00:	6983      	ldr	r3, [r0, #24]
 8004b02:	f021 010a 	bic.w	r1, r1, #10
 8004b06:	f023 03f0 	bic.w	r3, r3, #240	; 0xf0
 8004b0a:	ea43 1306 	orr.w	r3, r3, r6, lsl #4
 8004b0e:	430a      	orrs	r2, r1
 8004b10:	6183      	str	r3, [r0, #24]
 8004b12:	6202      	str	r2, [r0, #32]
 8004b14:	6883      	ldr	r3, [r0, #8]
 8004b16:	f023 0370 	bic.w	r3, r3, #112	; 0x70
 8004b1a:	f043 0357 	orr.w	r3, r3, #87	; 0x57
 8004b1e:	6083      	str	r3, [r0, #8]
 8004b20:	e7d0      	b.n	8004ac4 <HAL_TIM_ConfigClockSource+0x38>
 8004b22:	2b70      	cmp	r3, #112	; 0x70
 8004b24:	d00c      	beq.n	8004b40 <HAL_TIM_ConfigClockSource+0xb4>
 8004b26:	f5b3 5f00 	cmp.w	r3, #8192	; 0x2000
 8004b2a:	d1cb      	bne.n	8004ac4 <HAL_TIM_ConfigClockSource+0x38>
 8004b2c:	68cb      	ldr	r3, [r1, #12]
 8004b2e:	e9d1 2101 	ldrd	r2, r1, [r1, #4]
 8004b32:	f7ff ffa1 	bl	8004a78 <TIM_ETR_SetConfig>
 8004b36:	6822      	ldr	r2, [r4, #0]
 8004b38:	6893      	ldr	r3, [r2, #8]
 8004b3a:	f443 4380 	orr.w	r3, r3, #16384	; 0x4000
 8004b3e:	e008      	b.n	8004b52 <HAL_TIM_ConfigClockSource+0xc6>
 8004b40:	68cb      	ldr	r3, [r1, #12]
 8004b42:	e9d1 2101 	ldrd	r2, r1, [r1, #4]
 8004b46:	f7ff ff97 	bl	8004a78 <TIM_ETR_SetConfig>
 8004b4a:	6822      	ldr	r2, [r4, #0]
 8004b4c:	6893      	ldr	r3, [r2, #8]
 8004b4e:	f043 0377 	orr.w	r3, r3, #119	; 0x77
 8004b52:	6093      	str	r3, [r2, #8]
 8004b54:	e7b6      	b.n	8004ac4 <HAL_TIM_ConfigClockSource+0x38>
 8004b56:	684d      	ldr	r5, [r1, #4]
 8004b58:	68ce      	ldr	r6, [r1, #12]
 8004b5a:	6a01      	ldr	r1, [r0, #32]
 8004b5c:	f021 0110 	bic.w	r1, r1, #16
 8004b60:	6201      	str	r1, [r0, #32]
 8004b62:	6982      	ldr	r2, [r0, #24]
 8004b64:	6a03      	ldr	r3, [r0, #32]
 8004b66:	f422 4270 	bic.w	r2, r2, #61440	; 0xf000
 8004b6a:	f023 03a0 	bic.w	r3, r3, #160	; 0xa0
 8004b6e:	ea43 1305 	orr.w	r3, r3, r5, lsl #4
 8004b72:	ea42 3206 	orr.w	r2, r2, r6, lsl #12
 8004b76:	6182      	str	r2, [r0, #24]
 8004b78:	6203      	str	r3, [r0, #32]
 8004b7a:	6883      	ldr	r3, [r0, #8]
 8004b7c:	f023 0370 	bic.w	r3, r3, #112	; 0x70
 8004b80:	f043 0367 	orr.w	r3, r3, #103	; 0x67
 8004b84:	e7cb      	b.n	8004b1e <HAL_TIM_ConfigClockSource+0x92>
 8004b86:	684a      	ldr	r2, [r1, #4]
 8004b88:	68ce      	ldr	r6, [r1, #12]
 8004b8a:	6a01      	ldr	r1, [r0, #32]
 8004b8c:	6a05      	ldr	r5, [r0, #32]
 8004b8e:	f025 0501 	bic.w	r5, r5, #1
 8004b92:	6205      	str	r5, [r0, #32]
 8004b94:	6983      	ldr	r3, [r0, #24]
 8004b96:	f021 010a 	bic.w	r1, r1, #10
 8004b9a:	f023 03f0 	bic.w	r3, r3, #240	; 0xf0
 8004b9e:	ea43 1306 	orr.w	r3, r3, r6, lsl #4
 8004ba2:	430a      	orrs	r2, r1
 8004ba4:	6183      	str	r3, [r0, #24]
 8004ba6:	6202      	str	r2, [r0, #32]
 8004ba8:	6883      	ldr	r3, [r0, #8]
 8004baa:	f023 0370 	bic.w	r3, r3, #112	; 0x70
 8004bae:	f043 0347 	orr.w	r3, r3, #71	; 0x47
 8004bb2:	e7b4      	b.n	8004b1e <HAL_TIM_ConfigClockSource+0x92>

08004bb4 <TIM_CCxChannelCmd>:
 8004bb4:	6a03      	ldr	r3, [r0, #32]
 8004bb6:	f001 011f 	and.w	r1, r1, #31
 8004bba:	b510      	push	{r4, lr}
 8004bbc:	2401      	movs	r4, #1
 8004bbe:	408c      	lsls	r4, r1
 8004bc0:	ea23 0304 	bic.w	r3, r3, r4
 8004bc4:	6203      	str	r3, [r0, #32]
 8004bc6:	6a03      	ldr	r3, [r0, #32]
 8004bc8:	408a      	lsls	r2, r1
 8004bca:	431a      	orrs	r2, r3
 8004bcc:	6202      	str	r2, [r0, #32]
 8004bce:	bd10      	pop	{r4, pc}

08004bd0 <HAL_TIM_OC_Start_IT>:
 8004bd0:	b510      	push	{r4, lr}
 8004bd2:	4604      	mov	r4, r0
 8004bd4:	6800      	ldr	r0, [r0, #0]
 8004bd6:	290c      	cmp	r1, #12
 8004bd8:	d80c      	bhi.n	8004bf4 <HAL_TIM_OC_Start_IT+0x24>
 8004bda:	e8df f001 	tbb	[pc, r1]
 8004bde:	0b07      	.short	0x0b07
 8004be0:	0b210b0b 	.word	0x0b210b0b
 8004be4:	0b250b0b 	.word	0x0b250b0b
 8004be8:	0b0b      	.short	0x0b0b
 8004bea:	29          	.byte	0x29
 8004beb:	00          	.byte	0x00
 8004bec:	68c3      	ldr	r3, [r0, #12]
 8004bee:	f043 0302 	orr.w	r3, r3, #2
 8004bf2:	60c3      	str	r3, [r0, #12]
 8004bf4:	2201      	movs	r2, #1
 8004bf6:	f7ff ffdd 	bl	8004bb4 <TIM_CCxChannelCmd>
 8004bfa:	6823      	ldr	r3, [r4, #0]
 8004bfc:	4a0e      	ldr	r2, [pc, #56]	; (8004c38 <HAL_TIM_OC_Start_IT+0x68>)
 8004bfe:	4293      	cmp	r3, r2
 8004c00:	bf02      	ittt	eq
 8004c02:	6c5a      	ldreq	r2, [r3, #68]	; 0x44
 8004c04:	f442 4200 	orreq.w	r2, r2, #32768	; 0x8000
 8004c08:	645a      	streq	r2, [r3, #68]	; 0x44
 8004c0a:	689a      	ldr	r2, [r3, #8]
 8004c0c:	f002 0207 	and.w	r2, r2, #7
 8004c10:	2a06      	cmp	r2, #6
 8004c12:	bf1e      	ittt	ne
 8004c14:	681a      	ldrne	r2, [r3, #0]
 8004c16:	f042 0201 	orrne.w	r2, r2, #1
 8004c1a:	601a      	strne	r2, [r3, #0]
 8004c1c:	2000      	movs	r0, #0
 8004c1e:	bd10      	pop	{r4, pc}
 8004c20:	68c3      	ldr	r3, [r0, #12]
 8004c22:	f043 0304 	orr.w	r3, r3, #4
 8004c26:	e7e4      	b.n	8004bf2 <HAL_TIM_OC_Start_IT+0x22>
 8004c28:	68c3      	ldr	r3, [r0, #12]
 8004c2a:	f043 0308 	orr.w	r3, r3, #8
 8004c2e:	e7e0      	b.n	8004bf2 <HAL_TIM_OC_Start_IT+0x22>
 8004c30:	68c3      	ldr	r3, [r0, #12]
 8004c32:	f043 0310 	orr.w	r3, r3, #16
 8004c36:	e7dc      	b.n	8004bf2 <HAL_TIM_OC_Start_IT+0x22>
 8004c38:	40010000 	.word	0x40010000

08004c3c <HAL_TIM_PWM_Start_IT>:
 8004c3c:	f7ff bfc8 	b.w	8004bd0 <HAL_TIM_OC_Start_IT>

08004c40 <HAL_TIM_OC_Stop_IT>:
 8004c40:	b510      	push	{r4, lr}
 8004c42:	4604      	mov	r4, r0
 8004c44:	6800      	ldr	r0, [r0, #0]
 8004c46:	290c      	cmp	r1, #12
 8004c48:	d80c      	bhi.n	8004c64 <HAL_TIM_OC_Stop_IT+0x24>
 8004c4a:	e8df f001 	tbb	[pc, r1]
 8004c4e:	0b07      	.short	0x0b07
 8004c50:	0b300b0b 	.word	0x0b300b0b
 8004c54:	0b340b0b 	.word	0x0b340b0b
 8004c58:	0b0b      	.short	0x0b0b
 8004c5a:	38          	.byte	0x38
 8004c5b:	00          	.byte	0x00
 8004c5c:	68c3      	ldr	r3, [r0, #12]
 8004c5e:	f023 0302 	bic.w	r3, r3, #2
 8004c62:	60c3      	str	r3, [r0, #12]
 8004c64:	2200      	movs	r2, #0
 8004c66:	f7ff ffa5 	bl	8004bb4 <TIM_CCxChannelCmd>
 8004c6a:	6823      	ldr	r3, [r4, #0]
 8004c6c:	4a16      	ldr	r2, [pc, #88]	; (8004cc8 <HAL_TIM_OC_Stop_IT+0x88>)
 8004c6e:	4293      	cmp	r3, r2
 8004c70:	d10d      	bne.n	8004c8e <HAL_TIM_OC_Stop_IT+0x4e>
 8004c72:	6a19      	ldr	r1, [r3, #32]
 8004c74:	f241 1211 	movw	r2, #4369	; 0x1111
 8004c78:	4211      	tst	r1, r2
 8004c7a:	d108      	bne.n	8004c8e <HAL_TIM_OC_Stop_IT+0x4e>
 8004c7c:	6a19      	ldr	r1, [r3, #32]
 8004c7e:	f240 4244 	movw	r2, #1092	; 0x444
 8004c82:	4211      	tst	r1, r2
 8004c84:	bf02      	ittt	eq
 8004c86:	6c5a      	ldreq	r2, [r3, #68]	; 0x44
 8004c88:	f422 4200 	biceq.w	r2, r2, #32768	; 0x8000
 8004c8c:	645a      	streq	r2, [r3, #68]	; 0x44
 8004c8e:	6a19      	ldr	r1, [r3, #32]
 8004c90:	f241 1211 	movw	r2, #4369	; 0x1111
 8004c94:	4211      	tst	r1, r2
 8004c96:	d108      	bne.n	8004caa <HAL_TIM_OC_Stop_IT+0x6a>
 8004c98:	6a19      	ldr	r1, [r3, #32]
 8004c9a:	f240 4244 	movw	r2, #1092	; 0x444
 8004c9e:	4211      	tst	r1, r2
 8004ca0:	bf02      	ittt	eq
 8004ca2:	681a      	ldreq	r2, [r3, #0]
 8004ca4:	f022 0201 	biceq.w	r2, r2, #1
 8004ca8:	601a      	streq	r2, [r3, #0]
 8004caa:	2000      	movs	r0, #0
 8004cac:	bd10      	pop	{r4, pc}
 8004cae:	68c3      	ldr	r3, [r0, #12]
 8004cb0:	f023 0304 	bic.w	r3, r3, #4
 8004cb4:	e7d5      	b.n	8004c62 <HAL_TIM_OC_Stop_IT+0x22>
 8004cb6:	68c3      	ldr	r3, [r0, #12]
 8004cb8:	f023 0308 	bic.w	r3, r3, #8
 8004cbc:	e7d1      	b.n	8004c62 <HAL_TIM_OC_Stop_IT+0x22>
 8004cbe:	68c3      	ldr	r3, [r0, #12]
 8004cc0:	f023 0310 	bic.w	r3, r3, #16
 8004cc4:	e7cd      	b.n	8004c62 <HAL_TIM_OC_Stop_IT+0x22>
 8004cc6:	bf00      	nop
 8004cc8:	40010000 	.word	0x40010000

08004ccc <HAL_TIM_PWM_Stop_IT>:
 8004ccc:	f7ff bfb8 	b.w	8004c40 <HAL_TIM_OC_Stop_IT>

08004cd0 <HAL_TIMEx_MasterConfigSynchronization>:
 8004cd0:	f890 303c 	ldrb.w	r3, [r0, #60]	; 0x3c
 8004cd4:	2b01      	cmp	r3, #1
 8004cd6:	b530      	push	{r4, r5, lr}
 8004cd8:	f04f 0302 	mov.w	r3, #2
 8004cdc:	d02d      	beq.n	8004d3a <HAL_TIMEx_MasterConfigSynchronization+0x6a>
 8004cde:	f880 303d 	strb.w	r3, [r0, #61]	; 0x3d
 8004ce2:	6803      	ldr	r3, [r0, #0]
 8004ce4:	680d      	ldr	r5, [r1, #0]
 8004ce6:	685c      	ldr	r4, [r3, #4]
 8004ce8:	f024 0470 	bic.w	r4, r4, #112	; 0x70
 8004cec:	2201      	movs	r2, #1
 8004cee:	432c      	orrs	r4, r5
 8004cf0:	f880 203c 	strb.w	r2, [r0, #60]	; 0x3c
 8004cf4:	689a      	ldr	r2, [r3, #8]
 8004cf6:	605c      	str	r4, [r3, #4]
 8004cf8:	4c11      	ldr	r4, [pc, #68]	; (8004d40 <HAL_TIMEx_MasterConfigSynchronization+0x70>)
 8004cfa:	42a3      	cmp	r3, r4
 8004cfc:	d012      	beq.n	8004d24 <HAL_TIMEx_MasterConfigSynchronization+0x54>
 8004cfe:	f1b3 4f80 	cmp.w	r3, #1073741824	; 0x40000000
 8004d02:	d00f      	beq.n	8004d24 <HAL_TIMEx_MasterConfigSynchronization+0x54>
 8004d04:	f5a4 447c 	sub.w	r4, r4, #64512	; 0xfc00
 8004d08:	42a3      	cmp	r3, r4
 8004d0a:	d00b      	beq.n	8004d24 <HAL_TIMEx_MasterConfigSynchronization+0x54>
 8004d0c:	f504 6480 	add.w	r4, r4, #1024	; 0x400
 8004d10:	42a3      	cmp	r3, r4
 8004d12:	d007      	beq.n	8004d24 <HAL_TIMEx_MasterConfigSynchronization+0x54>
 8004d14:	f504 6480 	add.w	r4, r4, #1024	; 0x400
 8004d18:	42a3      	cmp	r3, r4
 8004d1a:	d003      	beq.n	8004d24 <HAL_TIMEx_MasterConfigSynchronization+0x54>
 8004d1c:	f504 349a 	add.w	r4, r4, #78848	; 0x13400
 8004d20:	42a3      	cmp	r3, r4
 8004d22:	d104      	bne.n	8004d2e <HAL_TIMEx_MasterConfigSynchronization+0x5e>
 8004d24:	6849      	ldr	r1, [r1, #4]
 8004d26:	f022 0280 	bic.w	r2, r2, #128	; 0x80
 8004d2a:	430a      	orrs	r2, r1
 8004d2c:	609a      	str	r2, [r3, #8]
 8004d2e:	2301      	movs	r3, #1
 8004d30:	f880 303d 	strb.w	r3, [r0, #61]	; 0x3d
 8004d34:	2300      	movs	r3, #0
 8004d36:	f880 303c 	strb.w	r3, [r0, #60]	; 0x3c
 8004d3a:	4618      	mov	r0, r3
 8004d3c:	bd30      	pop	{r4, r5, pc}
 8004d3e:	bf00      	nop
 8004d40:	40010000 	.word	0x40010000

08004d44 <HAL_TIMEx_CommutCallback>:
 8004d44:	4770      	bx	lr

08004d46 <HAL_TIMEx_BreakCallback>:
 8004d46:	4770      	bx	lr

08004d48 <UART_EndRxTransfer>:
 8004d48:	6803      	ldr	r3, [r0, #0]
 8004d4a:	68da      	ldr	r2, [r3, #12]
 8004d4c:	f422 7290 	bic.w	r2, r2, #288	; 0x120
 8004d50:	60da      	str	r2, [r3, #12]
 8004d52:	695a      	ldr	r2, [r3, #20]
 8004d54:	f022 0201 	bic.w	r2, r2, #1
 8004d58:	615a      	str	r2, [r3, #20]
 8004d5a:	2320      	movs	r3, #32
 8004d5c:	f880 303a 	strb.w	r3, [r0, #58]	; 0x3a
 8004d60:	4770      	bx	lr
	...

08004d64 <UART_SetConfig>:
 8004d64:	6803      	ldr	r3, [r0, #0]
 8004d66:	68c1      	ldr	r1, [r0, #12]
 8004d68:	691a      	ldr	r2, [r3, #16]
 8004d6a:	b570      	push	{r4, r5, r6, lr}
 8004d6c:	f422 5240 	bic.w	r2, r2, #12288	; 0x3000
 8004d70:	4604      	mov	r4, r0
 8004d72:	430a      	orrs	r2, r1
 8004d74:	611a      	str	r2, [r3, #16]
 8004d76:	6925      	ldr	r5, [r4, #16]
 8004d78:	68a2      	ldr	r2, [r4, #8]
 8004d7a:	68d9      	ldr	r1, [r3, #12]
 8004d7c:	69c0      	ldr	r0, [r0, #28]
 8004d7e:	432a      	orrs	r2, r5
 8004d80:	6965      	ldr	r5, [r4, #20]
 8004d82:	f421 4116 	bic.w	r1, r1, #38400	; 0x9600
 8004d86:	432a      	orrs	r2, r5
 8004d88:	f021 010c 	bic.w	r1, r1, #12
 8004d8c:	4302      	orrs	r2, r0
 8004d8e:	430a      	orrs	r2, r1
 8004d90:	60da      	str	r2, [r3, #12]
 8004d92:	695a      	ldr	r2, [r3, #20]
 8004d94:	69a1      	ldr	r1, [r4, #24]
 8004d96:	f422 7240 	bic.w	r2, r2, #768	; 0x300
 8004d9a:	430a      	orrs	r2, r1
 8004d9c:	f5b0 4f00 	cmp.w	r0, #32768	; 0x8000
 8004da0:	615a      	str	r2, [r3, #20]
 8004da2:	4a26      	ldr	r2, [pc, #152]	; (8004e3c <UART_SetConfig+0xd8>)
 8004da4:	d129      	bne.n	8004dfa <UART_SetConfig+0x96>
 8004da6:	4293      	cmp	r3, r2
 8004da8:	d003      	beq.n	8004db2 <UART_SetConfig+0x4e>
 8004daa:	f502 6280 	add.w	r2, r2, #1024	; 0x400
 8004dae:	4293      	cmp	r3, r2
 8004db0:	d120      	bne.n	8004df4 <UART_SetConfig+0x90>
 8004db2:	f7ff fbe9 	bl	8004588 <HAL_RCC_GetPCLK2Freq>
 8004db6:	6862      	ldr	r2, [r4, #4]
 8004db8:	2600      	movs	r6, #0
 8004dba:	1892      	adds	r2, r2, r2
 8004dbc:	f04f 0119 	mov.w	r1, #25
 8004dc0:	eb46 0306 	adc.w	r3, r6, r6
 8004dc4:	fba0 0101 	umull	r0, r1, r0, r1
 8004dc8:	f7fb fa72 	bl	80002b0 <__aeabi_uldivmod>
 8004dcc:	2164      	movs	r1, #100	; 0x64
 8004dce:	fbb0 f5f1 	udiv	r5, r0, r1
 8004dd2:	fb01 0315 	mls	r3, r1, r5, r0
 8004dd6:	00db      	lsls	r3, r3, #3
 8004dd8:	3332      	adds	r3, #50	; 0x32
 8004dda:	fbb3 f3f1 	udiv	r3, r3, r1
 8004dde:	f003 0207 	and.w	r2, r3, #7
 8004de2:	005b      	lsls	r3, r3, #1
 8004de4:	6821      	ldr	r1, [r4, #0]
 8004de6:	eb02 1205 	add.w	r2, r2, r5, lsl #4
 8004dea:	f403 73f8 	and.w	r3, r3, #496	; 0x1f0
 8004dee:	4413      	add	r3, r2
 8004df0:	608b      	str	r3, [r1, #8]
 8004df2:	bd70      	pop	{r4, r5, r6, pc}
 8004df4:	f7ff fbb8 	bl	8004568 <HAL_RCC_GetPCLK1Freq>
 8004df8:	e7dd      	b.n	8004db6 <UART_SetConfig+0x52>
 8004dfa:	4293      	cmp	r3, r2
 8004dfc:	d002      	beq.n	8004e04 <UART_SetConfig+0xa0>
 8004dfe:	4a10      	ldr	r2, [pc, #64]	; (8004e40 <UART_SetConfig+0xdc>)
 8004e00:	4293      	cmp	r3, r2
 8004e02:	d117      	bne.n	8004e34 <UART_SetConfig+0xd0>
 8004e04:	f7ff fbc0 	bl	8004588 <HAL_RCC_GetPCLK2Freq>
 8004e08:	6863      	ldr	r3, [r4, #4]
 8004e0a:	2119      	movs	r1, #25
 8004e0c:	009a      	lsls	r2, r3, #2
 8004e0e:	fba0 0101 	umull	r0, r1, r0, r1
 8004e12:	0f9b      	lsrs	r3, r3, #30
 8004e14:	f7fb fa4c 	bl	80002b0 <__aeabi_uldivmod>
 8004e18:	2264      	movs	r2, #100	; 0x64
 8004e1a:	fbb0 f1f2 	udiv	r1, r0, r2
 8004e1e:	fb02 0311 	mls	r3, r2, r1, r0
 8004e22:	6824      	ldr	r4, [r4, #0]
 8004e24:	011b      	lsls	r3, r3, #4
 8004e26:	3332      	adds	r3, #50	; 0x32
 8004e28:	fbb3 f3f2 	udiv	r3, r3, r2
 8004e2c:	eb03 1301 	add.w	r3, r3, r1, lsl #4
 8004e30:	60a3      	str	r3, [r4, #8]
 8004e32:	e7de      	b.n	8004df2 <UART_SetConfig+0x8e>
 8004e34:	f7ff fb98 	bl	8004568 <HAL_RCC_GetPCLK1Freq>
 8004e38:	e7e6      	b.n	8004e08 <UART_SetConfig+0xa4>
 8004e3a:	bf00      	nop
 8004e3c:	40011000 	.word	0x40011000
 8004e40:	40011400 	.word	0x40011400

08004e44 <HAL_UART_Init>:
 8004e44:	b510      	push	{r4, lr}
 8004e46:	4604      	mov	r4, r0
 8004e48:	b340      	cbz	r0, 8004e9c <HAL_UART_Init+0x58>
 8004e4a:	f890 3039 	ldrb.w	r3, [r0, #57]	; 0x39
 8004e4e:	f003 02ff 	and.w	r2, r3, #255	; 0xff
 8004e52:	b91b      	cbnz	r3, 8004e5c <HAL_UART_Init+0x18>
 8004e54:	f880 2038 	strb.w	r2, [r0, #56]	; 0x38
 8004e58:	f7fd f800 	bl	8001e5c <HAL_UART_MspInit>
 8004e5c:	6822      	ldr	r2, [r4, #0]
 8004e5e:	2324      	movs	r3, #36	; 0x24
 8004e60:	f884 3039 	strb.w	r3, [r4, #57]	; 0x39
 8004e64:	68d3      	ldr	r3, [r2, #12]
 8004e66:	f423 5300 	bic.w	r3, r3, #8192	; 0x2000
 8004e6a:	60d3      	str	r3, [r2, #12]
 8004e6c:	4620      	mov	r0, r4
 8004e6e:	f7ff ff79 	bl	8004d64 <UART_SetConfig>
 8004e72:	6823      	ldr	r3, [r4, #0]
 8004e74:	691a      	ldr	r2, [r3, #16]
 8004e76:	f422 4290 	bic.w	r2, r2, #18432	; 0x4800
 8004e7a:	611a      	str	r2, [r3, #16]
 8004e7c:	695a      	ldr	r2, [r3, #20]
 8004e7e:	f022 022a 	bic.w	r2, r2, #42	; 0x2a
 8004e82:	615a      	str	r2, [r3, #20]
 8004e84:	68da      	ldr	r2, [r3, #12]
 8004e86:	f442 5200 	orr.w	r2, r2, #8192	; 0x2000
 8004e8a:	60da      	str	r2, [r3, #12]
 8004e8c:	2000      	movs	r0, #0
 8004e8e:	2320      	movs	r3, #32
 8004e90:	63e0      	str	r0, [r4, #60]	; 0x3c
 8004e92:	f884 3039 	strb.w	r3, [r4, #57]	; 0x39
 8004e96:	f884 303a 	strb.w	r3, [r4, #58]	; 0x3a
 8004e9a:	bd10      	pop	{r4, pc}
 8004e9c:	2001      	movs	r0, #1
 8004e9e:	e7fc      	b.n	8004e9a <HAL_UART_Init+0x56>

08004ea0 <HAL_UART_Receive_IT>:
 8004ea0:	f890 303a 	ldrb.w	r3, [r0, #58]	; 0x3a
 8004ea4:	2b20      	cmp	r3, #32
 8004ea6:	d120      	bne.n	8004eea <HAL_UART_Receive_IT+0x4a>
 8004ea8:	b1e9      	cbz	r1, 8004ee6 <HAL_UART_Receive_IT+0x46>
 8004eaa:	b1e2      	cbz	r2, 8004ee6 <HAL_UART_Receive_IT+0x46>
 8004eac:	f890 3038 	ldrb.w	r3, [r0, #56]	; 0x38
 8004eb0:	2b01      	cmp	r3, #1
 8004eb2:	d01a      	beq.n	8004eea <HAL_UART_Receive_IT+0x4a>
 8004eb4:	85c2      	strh	r2, [r0, #46]	; 0x2e
 8004eb6:	8582      	strh	r2, [r0, #44]	; 0x2c
 8004eb8:	2300      	movs	r3, #0
 8004eba:	2222      	movs	r2, #34	; 0x22
 8004ebc:	63c3      	str	r3, [r0, #60]	; 0x3c
 8004ebe:	f880 203a 	strb.w	r2, [r0, #58]	; 0x3a
 8004ec2:	6802      	ldr	r2, [r0, #0]
 8004ec4:	6281      	str	r1, [r0, #40]	; 0x28
 8004ec6:	68d1      	ldr	r1, [r2, #12]
 8004ec8:	f880 3038 	strb.w	r3, [r0, #56]	; 0x38
 8004ecc:	f441 7180 	orr.w	r1, r1, #256	; 0x100
 8004ed0:	60d1      	str	r1, [r2, #12]
 8004ed2:	6951      	ldr	r1, [r2, #20]
 8004ed4:	f041 0101 	orr.w	r1, r1, #1
 8004ed8:	6151      	str	r1, [r2, #20]
 8004eda:	68d1      	ldr	r1, [r2, #12]
 8004edc:	f041 0120 	orr.w	r1, r1, #32
 8004ee0:	60d1      	str	r1, [r2, #12]
 8004ee2:	4618      	mov	r0, r3
 8004ee4:	4770      	bx	lr
 8004ee6:	2001      	movs	r0, #1
 8004ee8:	4770      	bx	lr
 8004eea:	2002      	movs	r0, #2
 8004eec:	4770      	bx	lr
	...

08004ef0 <HAL_UART_Transmit_DMA>:
 8004ef0:	b538      	push	{r3, r4, r5, lr}
 8004ef2:	4604      	mov	r4, r0
 8004ef4:	4613      	mov	r3, r2
 8004ef6:	f894 2039 	ldrb.w	r2, [r4, #57]	; 0x39
 8004efa:	2a20      	cmp	r2, #32
 8004efc:	d12a      	bne.n	8004f54 <HAL_UART_Transmit_DMA+0x64>
 8004efe:	b339      	cbz	r1, 8004f50 <HAL_UART_Transmit_DMA+0x60>
 8004f00:	b333      	cbz	r3, 8004f50 <HAL_UART_Transmit_DMA+0x60>
 8004f02:	f894 2038 	ldrb.w	r2, [r4, #56]	; 0x38
 8004f06:	2a01      	cmp	r2, #1
 8004f08:	d024      	beq.n	8004f54 <HAL_UART_Transmit_DMA+0x64>
 8004f0a:	2201      	movs	r2, #1
 8004f0c:	f884 2038 	strb.w	r2, [r4, #56]	; 0x38
 8004f10:	2500      	movs	r5, #0
 8004f12:	6b20      	ldr	r0, [r4, #48]	; 0x30
 8004f14:	84e3      	strh	r3, [r4, #38]	; 0x26
 8004f16:	2221      	movs	r2, #33	; 0x21
 8004f18:	63e5      	str	r5, [r4, #60]	; 0x3c
 8004f1a:	f884 2039 	strb.w	r2, [r4, #57]	; 0x39
 8004f1e:	4a0e      	ldr	r2, [pc, #56]	; (8004f58 <HAL_UART_Transmit_DMA+0x68>)
 8004f20:	84a3      	strh	r3, [r4, #36]	; 0x24
 8004f22:	6221      	str	r1, [r4, #32]
 8004f24:	63c2      	str	r2, [r0, #60]	; 0x3c
 8004f26:	4a0d      	ldr	r2, [pc, #52]	; (8004f5c <HAL_UART_Transmit_DMA+0x6c>)
 8004f28:	6402      	str	r2, [r0, #64]	; 0x40
 8004f2a:	4a0d      	ldr	r2, [pc, #52]	; (8004f60 <HAL_UART_Transmit_DMA+0x70>)
 8004f2c:	e9c0 2513 	strd	r2, r5, [r0, #76]	; 0x4c
 8004f30:	6822      	ldr	r2, [r4, #0]
 8004f32:	3204      	adds	r2, #4
 8004f34:	f7fd fc3a 	bl	80027ac <HAL_DMA_Start_IT>
 8004f38:	6823      	ldr	r3, [r4, #0]
 8004f3a:	f06f 0240 	mvn.w	r2, #64	; 0x40
 8004f3e:	601a      	str	r2, [r3, #0]
 8004f40:	695a      	ldr	r2, [r3, #20]
 8004f42:	f884 5038 	strb.w	r5, [r4, #56]	; 0x38
 8004f46:	f042 0280 	orr.w	r2, r2, #128	; 0x80
 8004f4a:	615a      	str	r2, [r3, #20]
 8004f4c:	4628      	mov	r0, r5
 8004f4e:	bd38      	pop	{r3, r4, r5, pc}
 8004f50:	2001      	movs	r0, #1
 8004f52:	e7fc      	b.n	8004f4e <HAL_UART_Transmit_DMA+0x5e>
 8004f54:	2002      	movs	r0, #2
 8004f56:	e7fa      	b.n	8004f4e <HAL_UART_Transmit_DMA+0x5e>
 8004f58:	08004f65 	.word	0x08004f65
 8004f5c:	08004f93 	.word	0x08004f93
 8004f60:	08005015 	.word	0x08005015

08004f64 <UART_DMATransmitCplt>:
 8004f64:	b508      	push	{r3, lr}
 8004f66:	6803      	ldr	r3, [r0, #0]
 8004f68:	6b82      	ldr	r2, [r0, #56]	; 0x38
 8004f6a:	681b      	ldr	r3, [r3, #0]
 8004f6c:	f413 7380 	ands.w	r3, r3, #256	; 0x100
 8004f70:	d10a      	bne.n	8004f88 <UART_DMATransmitCplt+0x24>
 8004f72:	84d3      	strh	r3, [r2, #38]	; 0x26
 8004f74:	6813      	ldr	r3, [r2, #0]
 8004f76:	695a      	ldr	r2, [r3, #20]
 8004f78:	f022 0280 	bic.w	r2, r2, #128	; 0x80
 8004f7c:	615a      	str	r2, [r3, #20]
 8004f7e:	68da      	ldr	r2, [r3, #12]
 8004f80:	f042 0240 	orr.w	r2, r2, #64	; 0x40
 8004f84:	60da      	str	r2, [r3, #12]
 8004f86:	bd08      	pop	{r3, pc}
 8004f88:	4610      	mov	r0, r2
 8004f8a:	f7fb fd69 	bl	8000a60 <HAL_UART_TxCpltCallback>
 8004f8e:	e7fa      	b.n	8004f86 <UART_DMATransmitCplt+0x22>

08004f90 <HAL_UART_TxHalfCpltCallback>:
 8004f90:	4770      	bx	lr

08004f92 <UART_DMATxHalfCplt>:
 8004f92:	b508      	push	{r3, lr}
 8004f94:	6b80      	ldr	r0, [r0, #56]	; 0x38
 8004f96:	f7ff fffb 	bl	8004f90 <HAL_UART_TxHalfCpltCallback>
 8004f9a:	bd08      	pop	{r3, pc}

08004f9c <UART_Receive_IT>:
 8004f9c:	f890 303a 	ldrb.w	r3, [r0, #58]	; 0x3a
 8004fa0:	2b22      	cmp	r3, #34	; 0x22
 8004fa2:	b510      	push	{r4, lr}
 8004fa4:	d133      	bne.n	800500e <UART_Receive_IT+0x72>
 8004fa6:	6881      	ldr	r1, [r0, #8]
 8004fa8:	6904      	ldr	r4, [r0, #16]
 8004faa:	6a83      	ldr	r3, [r0, #40]	; 0x28
 8004fac:	6802      	ldr	r2, [r0, #0]
 8004fae:	f5b1 5f80 	cmp.w	r1, #4096	; 0x1000
 8004fb2:	d123      	bne.n	8004ffc <UART_Receive_IT+0x60>
 8004fb4:	6852      	ldr	r2, [r2, #4]
 8004fb6:	b9ec      	cbnz	r4, 8004ff4 <UART_Receive_IT+0x58>
 8004fb8:	f3c2 0208 	ubfx	r2, r2, #0, #9
 8004fbc:	f823 2b02 	strh.w	r2, [r3], #2
 8004fc0:	6283      	str	r3, [r0, #40]	; 0x28
 8004fc2:	8dc4      	ldrh	r4, [r0, #46]	; 0x2e
 8004fc4:	3c01      	subs	r4, #1
 8004fc6:	b2a4      	uxth	r4, r4
 8004fc8:	85c4      	strh	r4, [r0, #46]	; 0x2e
 8004fca:	b98c      	cbnz	r4, 8004ff0 <UART_Receive_IT+0x54>
 8004fcc:	6803      	ldr	r3, [r0, #0]
 8004fce:	68da      	ldr	r2, [r3, #12]
 8004fd0:	f022 0220 	bic.w	r2, r2, #32
 8004fd4:	60da      	str	r2, [r3, #12]
 8004fd6:	68da      	ldr	r2, [r3, #12]
 8004fd8:	f422 7280 	bic.w	r2, r2, #256	; 0x100
 8004fdc:	60da      	str	r2, [r3, #12]
 8004fde:	695a      	ldr	r2, [r3, #20]
 8004fe0:	f022 0201 	bic.w	r2, r2, #1
 8004fe4:	615a      	str	r2, [r3, #20]
 8004fe6:	2320      	movs	r3, #32
 8004fe8:	f880 303a 	strb.w	r3, [r0, #58]	; 0x3a
 8004fec:	f7fb fc40 	bl	8000870 <HAL_UART_RxCpltCallback>
 8004ff0:	2000      	movs	r0, #0
 8004ff2:	e00d      	b.n	8005010 <UART_Receive_IT+0x74>
 8004ff4:	b2d2      	uxtb	r2, r2
 8004ff6:	f823 2b01 	strh.w	r2, [r3], #1
 8004ffa:	e7e1      	b.n	8004fc0 <UART_Receive_IT+0x24>
 8004ffc:	1c59      	adds	r1, r3, #1
 8004ffe:	6852      	ldr	r2, [r2, #4]
 8005000:	6281      	str	r1, [r0, #40]	; 0x28
 8005002:	b90c      	cbnz	r4, 8005008 <UART_Receive_IT+0x6c>
 8005004:	701a      	strb	r2, [r3, #0]
 8005006:	e7dc      	b.n	8004fc2 <UART_Receive_IT+0x26>
 8005008:	f002 027f 	and.w	r2, r2, #127	; 0x7f
 800500c:	e7fa      	b.n	8005004 <UART_Receive_IT+0x68>
 800500e:	2002      	movs	r0, #2
 8005010:	bd10      	pop	{r4, pc}

08005012 <HAL_UART_ErrorCallback>:
 8005012:	4770      	bx	lr

08005014 <UART_DMAError>:
 8005014:	6b81      	ldr	r1, [r0, #56]	; 0x38
 8005016:	b508      	push	{r3, lr}
 8005018:	680b      	ldr	r3, [r1, #0]
 800501a:	695a      	ldr	r2, [r3, #20]
 800501c:	f891 0039 	ldrb.w	r0, [r1, #57]	; 0x39
 8005020:	2821      	cmp	r0, #33	; 0x21
 8005022:	d10a      	bne.n	800503a <UART_DMAError+0x26>
 8005024:	0612      	lsls	r2, r2, #24
 8005026:	d508      	bpl.n	800503a <UART_DMAError+0x26>
 8005028:	2200      	movs	r2, #0
 800502a:	84ca      	strh	r2, [r1, #38]	; 0x26
 800502c:	68da      	ldr	r2, [r3, #12]
 800502e:	f022 02c0 	bic.w	r2, r2, #192	; 0xc0
 8005032:	60da      	str	r2, [r3, #12]
 8005034:	2220      	movs	r2, #32
 8005036:	f881 2039 	strb.w	r2, [r1, #57]	; 0x39
 800503a:	695b      	ldr	r3, [r3, #20]
 800503c:	f891 203a 	ldrb.w	r2, [r1, #58]	; 0x3a
 8005040:	2a22      	cmp	r2, #34	; 0x22
 8005042:	d106      	bne.n	8005052 <UART_DMAError+0x3e>
 8005044:	065b      	lsls	r3, r3, #25
 8005046:	d504      	bpl.n	8005052 <UART_DMAError+0x3e>
 8005048:	2300      	movs	r3, #0
 800504a:	85cb      	strh	r3, [r1, #46]	; 0x2e
 800504c:	4608      	mov	r0, r1
 800504e:	f7ff fe7b 	bl	8004d48 <UART_EndRxTransfer>
 8005052:	6bcb      	ldr	r3, [r1, #60]	; 0x3c
 8005054:	f043 0310 	orr.w	r3, r3, #16
 8005058:	63cb      	str	r3, [r1, #60]	; 0x3c
 800505a:	4608      	mov	r0, r1
 800505c:	f7ff ffd9 	bl	8005012 <HAL_UART_ErrorCallback>
 8005060:	bd08      	pop	{r3, pc}
	...

08005064 <HAL_UART_IRQHandler>:
 8005064:	6803      	ldr	r3, [r0, #0]
 8005066:	681a      	ldr	r2, [r3, #0]
 8005068:	68d9      	ldr	r1, [r3, #12]
 800506a:	b570      	push	{r4, r5, r6, lr}
 800506c:	0716      	lsls	r6, r2, #28
 800506e:	4604      	mov	r4, r0
 8005070:	695d      	ldr	r5, [r3, #20]
 8005072:	d107      	bne.n	8005084 <HAL_UART_IRQHandler+0x20>
 8005074:	0696      	lsls	r6, r2, #26
 8005076:	d55a      	bpl.n	800512e <HAL_UART_IRQHandler+0xca>
 8005078:	068d      	lsls	r5, r1, #26
 800507a:	d558      	bpl.n	800512e <HAL_UART_IRQHandler+0xca>
 800507c:	e8bd 4070 	ldmia.w	sp!, {r4, r5, r6, lr}
 8005080:	f7ff bf8c 	b.w	8004f9c <UART_Receive_IT>
 8005084:	f015 0501 	ands.w	r5, r5, #1
 8005088:	d102      	bne.n	8005090 <HAL_UART_IRQHandler+0x2c>
 800508a:	f411 7f90 	tst.w	r1, #288	; 0x120
 800508e:	d04e      	beq.n	800512e <HAL_UART_IRQHandler+0xca>
 8005090:	07d0      	lsls	r0, r2, #31
 8005092:	d505      	bpl.n	80050a0 <HAL_UART_IRQHandler+0x3c>
 8005094:	05cb      	lsls	r3, r1, #23
 8005096:	bf42      	ittt	mi
 8005098:	6be3      	ldrmi	r3, [r4, #60]	; 0x3c
 800509a:	f043 0301 	orrmi.w	r3, r3, #1
 800509e:	63e3      	strmi	r3, [r4, #60]	; 0x3c
 80050a0:	0756      	lsls	r6, r2, #29
 80050a2:	d504      	bpl.n	80050ae <HAL_UART_IRQHandler+0x4a>
 80050a4:	b11d      	cbz	r5, 80050ae <HAL_UART_IRQHandler+0x4a>
 80050a6:	6be3      	ldr	r3, [r4, #60]	; 0x3c
 80050a8:	f043 0302 	orr.w	r3, r3, #2
 80050ac:	63e3      	str	r3, [r4, #60]	; 0x3c
 80050ae:	0790      	lsls	r0, r2, #30
 80050b0:	d504      	bpl.n	80050bc <HAL_UART_IRQHandler+0x58>
 80050b2:	b11d      	cbz	r5, 80050bc <HAL_UART_IRQHandler+0x58>
 80050b4:	6be3      	ldr	r3, [r4, #60]	; 0x3c
 80050b6:	f043 0304 	orr.w	r3, r3, #4
 80050ba:	63e3      	str	r3, [r4, #60]	; 0x3c
 80050bc:	0713      	lsls	r3, r2, #28
 80050be:	d506      	bpl.n	80050ce <HAL_UART_IRQHandler+0x6a>
 80050c0:	068e      	lsls	r6, r1, #26
 80050c2:	d400      	bmi.n	80050c6 <HAL_UART_IRQHandler+0x62>
 80050c4:	b11d      	cbz	r5, 80050ce <HAL_UART_IRQHandler+0x6a>
 80050c6:	6be3      	ldr	r3, [r4, #60]	; 0x3c
 80050c8:	f043 0308 	orr.w	r3, r3, #8
 80050cc:	63e3      	str	r3, [r4, #60]	; 0x3c
 80050ce:	6be3      	ldr	r3, [r4, #60]	; 0x3c
 80050d0:	b343      	cbz	r3, 8005124 <HAL_UART_IRQHandler+0xc0>
 80050d2:	0695      	lsls	r5, r2, #26
 80050d4:	d504      	bpl.n	80050e0 <HAL_UART_IRQHandler+0x7c>
 80050d6:	0688      	lsls	r0, r1, #26
 80050d8:	d502      	bpl.n	80050e0 <HAL_UART_IRQHandler+0x7c>
 80050da:	4620      	mov	r0, r4
 80050dc:	f7ff ff5e 	bl	8004f9c <UART_Receive_IT>
 80050e0:	6823      	ldr	r3, [r4, #0]
 80050e2:	695d      	ldr	r5, [r3, #20]
 80050e4:	6be2      	ldr	r2, [r4, #60]	; 0x3c
 80050e6:	0711      	lsls	r1, r2, #28
 80050e8:	4620      	mov	r0, r4
 80050ea:	d402      	bmi.n	80050f2 <HAL_UART_IRQHandler+0x8e>
 80050ec:	f015 0540 	ands.w	r5, r5, #64	; 0x40
 80050f0:	d019      	beq.n	8005126 <HAL_UART_IRQHandler+0xc2>
 80050f2:	f7ff fe29 	bl	8004d48 <UART_EndRxTransfer>
 80050f6:	6823      	ldr	r3, [r4, #0]
 80050f8:	695a      	ldr	r2, [r3, #20]
 80050fa:	0652      	lsls	r2, r2, #25
 80050fc:	d50f      	bpl.n	800511e <HAL_UART_IRQHandler+0xba>
 80050fe:	695a      	ldr	r2, [r3, #20]
 8005100:	6b60      	ldr	r0, [r4, #52]	; 0x34
 8005102:	f022 0240 	bic.w	r2, r2, #64	; 0x40
 8005106:	615a      	str	r2, [r3, #20]
 8005108:	b148      	cbz	r0, 800511e <HAL_UART_IRQHandler+0xba>
 800510a:	4b26      	ldr	r3, [pc, #152]	; (80051a4 <HAL_UART_IRQHandler+0x140>)
 800510c:	6503      	str	r3, [r0, #80]	; 0x50
 800510e:	f7fd fbca 	bl	80028a6 <HAL_DMA_Abort_IT>
 8005112:	b138      	cbz	r0, 8005124 <HAL_UART_IRQHandler+0xc0>
 8005114:	6b60      	ldr	r0, [r4, #52]	; 0x34
 8005116:	e8bd 4070 	ldmia.w	sp!, {r4, r5, r6, lr}
 800511a:	6d03      	ldr	r3, [r0, #80]	; 0x50
 800511c:	4718      	bx	r3
 800511e:	4620      	mov	r0, r4
 8005120:	f7ff ff77 	bl	8005012 <HAL_UART_ErrorCallback>
 8005124:	bd70      	pop	{r4, r5, r6, pc}
 8005126:	f7ff ff74 	bl	8005012 <HAL_UART_ErrorCallback>
 800512a:	63e5      	str	r5, [r4, #60]	; 0x3c
 800512c:	e7fa      	b.n	8005124 <HAL_UART_IRQHandler+0xc0>
 800512e:	0616      	lsls	r6, r2, #24
 8005130:	d528      	bpl.n	8005184 <HAL_UART_IRQHandler+0x120>
 8005132:	060d      	lsls	r5, r1, #24
 8005134:	d526      	bpl.n	8005184 <HAL_UART_IRQHandler+0x120>
 8005136:	f894 2039 	ldrb.w	r2, [r4, #57]	; 0x39
 800513a:	2a21      	cmp	r2, #33	; 0x21
 800513c:	d1f2      	bne.n	8005124 <HAL_UART_IRQHandler+0xc0>
 800513e:	68a1      	ldr	r1, [r4, #8]
 8005140:	6a22      	ldr	r2, [r4, #32]
 8005142:	f5b1 5f80 	cmp.w	r1, #4096	; 0x1000
 8005146:	d118      	bne.n	800517a <HAL_UART_IRQHandler+0x116>
 8005148:	8811      	ldrh	r1, [r2, #0]
 800514a:	f3c1 0108 	ubfx	r1, r1, #0, #9
 800514e:	6059      	str	r1, [r3, #4]
 8005150:	6921      	ldr	r1, [r4, #16]
 8005152:	b981      	cbnz	r1, 8005176 <HAL_UART_IRQHandler+0x112>
 8005154:	3202      	adds	r2, #2
 8005156:	6222      	str	r2, [r4, #32]
 8005158:	8ce2      	ldrh	r2, [r4, #38]	; 0x26
 800515a:	3a01      	subs	r2, #1
 800515c:	b292      	uxth	r2, r2
 800515e:	84e2      	strh	r2, [r4, #38]	; 0x26
 8005160:	2a00      	cmp	r2, #0
 8005162:	d1df      	bne.n	8005124 <HAL_UART_IRQHandler+0xc0>
 8005164:	68da      	ldr	r2, [r3, #12]
 8005166:	f022 0280 	bic.w	r2, r2, #128	; 0x80
 800516a:	60da      	str	r2, [r3, #12]
 800516c:	68da      	ldr	r2, [r3, #12]
 800516e:	f042 0240 	orr.w	r2, r2, #64	; 0x40
 8005172:	60da      	str	r2, [r3, #12]
 8005174:	e7d6      	b.n	8005124 <HAL_UART_IRQHandler+0xc0>
 8005176:	3201      	adds	r2, #1
 8005178:	e7ed      	b.n	8005156 <HAL_UART_IRQHandler+0xf2>
 800517a:	1c51      	adds	r1, r2, #1
 800517c:	6221      	str	r1, [r4, #32]
 800517e:	7812      	ldrb	r2, [r2, #0]
 8005180:	605a      	str	r2, [r3, #4]
 8005182:	e7e9      	b.n	8005158 <HAL_UART_IRQHandler+0xf4>
 8005184:	0650      	lsls	r0, r2, #25
 8005186:	d5cd      	bpl.n	8005124 <HAL_UART_IRQHandler+0xc0>
 8005188:	064a      	lsls	r2, r1, #25
 800518a:	d5cb      	bpl.n	8005124 <HAL_UART_IRQHandler+0xc0>
 800518c:	68da      	ldr	r2, [r3, #12]
 800518e:	f022 0240 	bic.w	r2, r2, #64	; 0x40
 8005192:	60da      	str	r2, [r3, #12]
 8005194:	2320      	movs	r3, #32
 8005196:	f884 3039 	strb.w	r3, [r4, #57]	; 0x39
 800519a:	4620      	mov	r0, r4
 800519c:	f7fb fc60 	bl	8000a60 <HAL_UART_TxCpltCallback>
 80051a0:	e7c0      	b.n	8005124 <HAL_UART_IRQHandler+0xc0>
 80051a2:	bf00      	nop
 80051a4:	080051a9 	.word	0x080051a9

080051a8 <UART_DMAAbortOnError>:
 80051a8:	b508      	push	{r3, lr}
 80051aa:	6b80      	ldr	r0, [r0, #56]	; 0x38
 80051ac:	2300      	movs	r3, #0
 80051ae:	85c3      	strh	r3, [r0, #46]	; 0x2e
 80051b0:	84c3      	strh	r3, [r0, #38]	; 0x26
 80051b2:	f7ff ff2e 	bl	8005012 <HAL_UART_ErrorCallback>
 80051b6:	bd08      	pop	{r3, pc}

080051b8 <HAL_UART_AbortReceiveCpltCallback>:
 80051b8:	4770      	bx	lr
	...

080051bc <HAL_UART_AbortReceive_IT>:
 80051bc:	6803      	ldr	r3, [r0, #0]
 80051be:	68da      	ldr	r2, [r3, #12]
 80051c0:	f422 7290 	bic.w	r2, r2, #288	; 0x120
 80051c4:	b510      	push	{r4, lr}
 80051c6:	60da      	str	r2, [r3, #12]
 80051c8:	695a      	ldr	r2, [r3, #20]
 80051ca:	f022 0201 	bic.w	r2, r2, #1
 80051ce:	615a      	str	r2, [r3, #20]
 80051d0:	695a      	ldr	r2, [r3, #20]
 80051d2:	f012 0240 	ands.w	r2, r2, #64	; 0x40
 80051d6:	4604      	mov	r4, r0
 80051d8:	d017      	beq.n	800520a <HAL_UART_AbortReceive_IT+0x4e>
 80051da:	695a      	ldr	r2, [r3, #20]
 80051dc:	f022 0240 	bic.w	r2, r2, #64	; 0x40
 80051e0:	615a      	str	r2, [r3, #20]
 80051e2:	6b43      	ldr	r3, [r0, #52]	; 0x34
 80051e4:	b153      	cbz	r3, 80051fc <HAL_UART_AbortReceive_IT+0x40>
 80051e6:	4a0a      	ldr	r2, [pc, #40]	; (8005210 <HAL_UART_AbortReceive_IT+0x54>)
 80051e8:	651a      	str	r2, [r3, #80]	; 0x50
 80051ea:	4618      	mov	r0, r3
 80051ec:	f7fd fb5b 	bl	80028a6 <HAL_DMA_Abort_IT>
 80051f0:	b110      	cbz	r0, 80051f8 <HAL_UART_AbortReceive_IT+0x3c>
 80051f2:	6b60      	ldr	r0, [r4, #52]	; 0x34
 80051f4:	6d03      	ldr	r3, [r0, #80]	; 0x50
 80051f6:	4798      	blx	r3
 80051f8:	2000      	movs	r0, #0
 80051fa:	bd10      	pop	{r4, pc}
 80051fc:	85c3      	strh	r3, [r0, #46]	; 0x2e
 80051fe:	2320      	movs	r3, #32
 8005200:	f884 303a 	strb.w	r3, [r4, #58]	; 0x3a
 8005204:	f7ff ffd8 	bl	80051b8 <HAL_UART_AbortReceiveCpltCallback>
 8005208:	e7f6      	b.n	80051f8 <HAL_UART_AbortReceive_IT+0x3c>
 800520a:	85c2      	strh	r2, [r0, #46]	; 0x2e
 800520c:	e7f7      	b.n	80051fe <HAL_UART_AbortReceive_IT+0x42>
 800520e:	bf00      	nop
 8005210:	08005215 	.word	0x08005215

08005214 <UART_DMARxOnlyAbortCallback>:
 8005214:	b508      	push	{r3, lr}
 8005216:	6b80      	ldr	r0, [r0, #56]	; 0x38
 8005218:	2300      	movs	r3, #0
 800521a:	85c3      	strh	r3, [r0, #46]	; 0x2e
 800521c:	2320      	movs	r3, #32
 800521e:	f880 303a 	strb.w	r3, [r0, #58]	; 0x3a
 8005222:	f7ff ffc9 	bl	80051b8 <HAL_UART_AbortReceiveCpltCallback>
 8005226:	bd08      	pop	{r3, pc}

08005228 <atoi>:
 8005228:	220a      	movs	r2, #10
 800522a:	2100      	movs	r1, #0
 800522c:	f000 b9c8 	b.w	80055c0 <strtol>

08005230 <__errno>:
 8005230:	4b01      	ldr	r3, [pc, #4]	; (8005238 <__errno+0x8>)
 8005232:	6818      	ldr	r0, [r3, #0]
 8005234:	4770      	bx	lr
 8005236:	bf00      	nop
 8005238:	2000002c 	.word	0x2000002c

0800523c <__libc_init_array>:
 800523c:	b570      	push	{r4, r5, r6, lr}
 800523e:	4e0d      	ldr	r6, [pc, #52]	; (8005274 <__libc_init_array+0x38>)
 8005240:	4c0d      	ldr	r4, [pc, #52]	; (8005278 <__libc_init_array+0x3c>)
 8005242:	1ba4      	subs	r4, r4, r6
 8005244:	10a4      	asrs	r4, r4, #2
 8005246:	2500      	movs	r5, #0
 8005248:	42a5      	cmp	r5, r4
 800524a:	d109      	bne.n	8005260 <__libc_init_array+0x24>
 800524c:	4e0b      	ldr	r6, [pc, #44]	; (800527c <__libc_init_array+0x40>)
 800524e:	4c0c      	ldr	r4, [pc, #48]	; (8005280 <__libc_init_array+0x44>)
 8005250:	f000 fd08 	bl	8005c64 <_init>
 8005254:	1ba4      	subs	r4, r4, r6
 8005256:	10a4      	asrs	r4, r4, #2
 8005258:	2500      	movs	r5, #0
 800525a:	42a5      	cmp	r5, r4
 800525c:	d105      	bne.n	800526a <__libc_init_array+0x2e>
 800525e:	bd70      	pop	{r4, r5, r6, pc}
 8005260:	f856 3025 	ldr.w	r3, [r6, r5, lsl #2]
 8005264:	4798      	blx	r3
 8005266:	3501      	adds	r5, #1
 8005268:	e7ee      	b.n	8005248 <__libc_init_array+0xc>
 800526a:	f856 3025 	ldr.w	r3, [r6, r5, lsl #2]
 800526e:	4798      	blx	r3
 8005270:	3501      	adds	r5, #1
 8005272:	e7f2      	b.n	800525a <__libc_init_array+0x1e>
 8005274:	0800630c 	.word	0x0800630c
 8005278:	0800630c 	.word	0x0800630c
 800527c:	0800630c 	.word	0x0800630c
 8005280:	08006310 	.word	0x08006310

08005284 <__locale_ctype_ptr_l>:
 8005284:	f8d0 00ec 	ldr.w	r0, [r0, #236]	; 0xec
 8005288:	4770      	bx	lr
	...

0800528c <__locale_ctype_ptr>:
 800528c:	4b04      	ldr	r3, [pc, #16]	; (80052a0 <__locale_ctype_ptr+0x14>)
 800528e:	4a05      	ldr	r2, [pc, #20]	; (80052a4 <__locale_ctype_ptr+0x18>)
 8005290:	681b      	ldr	r3, [r3, #0]
 8005292:	6a1b      	ldr	r3, [r3, #32]
 8005294:	2b00      	cmp	r3, #0
 8005296:	bf08      	it	eq
 8005298:	4613      	moveq	r3, r2
 800529a:	f8d3 00ec 	ldr.w	r0, [r3, #236]	; 0xec
 800529e:	4770      	bx	lr
 80052a0:	2000002c 	.word	0x2000002c
 80052a4:	20000090 	.word	0x20000090

080052a8 <malloc>:
 80052a8:	4b02      	ldr	r3, [pc, #8]	; (80052b4 <malloc+0xc>)
 80052aa:	4601      	mov	r1, r0
 80052ac:	6818      	ldr	r0, [r3, #0]
 80052ae:	f000 b86b 	b.w	8005388 <_malloc_r>
 80052b2:	bf00      	nop
 80052b4:	2000002c 	.word	0x2000002c

080052b8 <__ascii_mbtowc>:
 80052b8:	b082      	sub	sp, #8
 80052ba:	b901      	cbnz	r1, 80052be <__ascii_mbtowc+0x6>
 80052bc:	a901      	add	r1, sp, #4
 80052be:	b142      	cbz	r2, 80052d2 <__ascii_mbtowc+0x1a>
 80052c0:	b14b      	cbz	r3, 80052d6 <__ascii_mbtowc+0x1e>
 80052c2:	7813      	ldrb	r3, [r2, #0]
 80052c4:	600b      	str	r3, [r1, #0]
 80052c6:	7812      	ldrb	r2, [r2, #0]
 80052c8:	1c10      	adds	r0, r2, #0
 80052ca:	bf18      	it	ne
 80052cc:	2001      	movne	r0, #1
 80052ce:	b002      	add	sp, #8
 80052d0:	4770      	bx	lr
 80052d2:	4610      	mov	r0, r2
 80052d4:	e7fb      	b.n	80052ce <__ascii_mbtowc+0x16>
 80052d6:	f06f 0001 	mvn.w	r0, #1
 80052da:	e7f8      	b.n	80052ce <__ascii_mbtowc+0x16>

080052dc <memset>:
 80052dc:	4402      	add	r2, r0
 80052de:	4603      	mov	r3, r0
 80052e0:	4293      	cmp	r3, r2
 80052e2:	d100      	bne.n	80052e6 <memset+0xa>
 80052e4:	4770      	bx	lr
 80052e6:	f803 1b01 	strb.w	r1, [r3], #1
 80052ea:	e7f9      	b.n	80052e0 <memset+0x4>

080052ec <_free_r>:
 80052ec:	b538      	push	{r3, r4, r5, lr}
 80052ee:	4605      	mov	r5, r0
 80052f0:	2900      	cmp	r1, #0
 80052f2:	d045      	beq.n	8005380 <_free_r+0x94>
 80052f4:	f851 3c04 	ldr.w	r3, [r1, #-4]
 80052f8:	1f0c      	subs	r4, r1, #4
 80052fa:	2b00      	cmp	r3, #0
 80052fc:	bfb8      	it	lt
 80052fe:	18e4      	addlt	r4, r4, r3
 8005300:	f000 f981 	bl	8005606 <__malloc_lock>
 8005304:	4a1f      	ldr	r2, [pc, #124]	; (8005384 <_free_r+0x98>)
 8005306:	6813      	ldr	r3, [r2, #0]
 8005308:	4610      	mov	r0, r2
 800530a:	b933      	cbnz	r3, 800531a <_free_r+0x2e>
 800530c:	6063      	str	r3, [r4, #4]
 800530e:	6014      	str	r4, [r2, #0]
 8005310:	4628      	mov	r0, r5
 8005312:	e8bd 4038 	ldmia.w	sp!, {r3, r4, r5, lr}
 8005316:	f000 b977 	b.w	8005608 <__malloc_unlock>
 800531a:	42a3      	cmp	r3, r4
 800531c:	d90c      	bls.n	8005338 <_free_r+0x4c>
 800531e:	6821      	ldr	r1, [r4, #0]
 8005320:	1862      	adds	r2, r4, r1
 8005322:	4293      	cmp	r3, r2
 8005324:	bf04      	itt	eq
 8005326:	681a      	ldreq	r2, [r3, #0]
 8005328:	685b      	ldreq	r3, [r3, #4]
 800532a:	6063      	str	r3, [r4, #4]
 800532c:	bf04      	itt	eq
 800532e:	1852      	addeq	r2, r2, r1
 8005330:	6022      	streq	r2, [r4, #0]
 8005332:	6004      	str	r4, [r0, #0]
 8005334:	e7ec      	b.n	8005310 <_free_r+0x24>
 8005336:	4613      	mov	r3, r2
 8005338:	685a      	ldr	r2, [r3, #4]
 800533a:	b10a      	cbz	r2, 8005340 <_free_r+0x54>
 800533c:	42a2      	cmp	r2, r4
 800533e:	d9fa      	bls.n	8005336 <_free_r+0x4a>
 8005340:	6819      	ldr	r1, [r3, #0]
 8005342:	1858      	adds	r0, r3, r1
 8005344:	42a0      	cmp	r0, r4
 8005346:	d10b      	bne.n	8005360 <_free_r+0x74>
 8005348:	6820      	ldr	r0, [r4, #0]
 800534a:	4401      	add	r1, r0
 800534c:	1858      	adds	r0, r3, r1
 800534e:	4282      	cmp	r2, r0
 8005350:	6019      	str	r1, [r3, #0]
 8005352:	d1dd      	bne.n	8005310 <_free_r+0x24>
 8005354:	6810      	ldr	r0, [r2, #0]
 8005356:	6852      	ldr	r2, [r2, #4]
 8005358:	605a      	str	r2, [r3, #4]
 800535a:	4401      	add	r1, r0
 800535c:	6019      	str	r1, [r3, #0]
 800535e:	e7d7      	b.n	8005310 <_free_r+0x24>
 8005360:	d902      	bls.n	8005368 <_free_r+0x7c>
 8005362:	230c      	movs	r3, #12
 8005364:	602b      	str	r3, [r5, #0]
 8005366:	e7d3      	b.n	8005310 <_free_r+0x24>
 8005368:	6820      	ldr	r0, [r4, #0]
 800536a:	1821      	adds	r1, r4, r0
 800536c:	428a      	cmp	r2, r1
 800536e:	bf04      	itt	eq
 8005370:	6811      	ldreq	r1, [r2, #0]
 8005372:	6852      	ldreq	r2, [r2, #4]
 8005374:	6062      	str	r2, [r4, #4]
 8005376:	bf04      	itt	eq
 8005378:	1809      	addeq	r1, r1, r0
 800537a:	6021      	streq	r1, [r4, #0]
 800537c:	605c      	str	r4, [r3, #4]
 800537e:	e7c7      	b.n	8005310 <_free_r+0x24>
 8005380:	bd38      	pop	{r3, r4, r5, pc}
 8005382:	bf00      	nop
 8005384:	20000230 	.word	0x20000230

08005388 <_malloc_r>:
 8005388:	b570      	push	{r4, r5, r6, lr}
 800538a:	1ccd      	adds	r5, r1, #3
 800538c:	f025 0503 	bic.w	r5, r5, #3
 8005390:	3508      	adds	r5, #8
 8005392:	2d0c      	cmp	r5, #12
 8005394:	bf38      	it	cc
 8005396:	250c      	movcc	r5, #12
 8005398:	2d00      	cmp	r5, #0
 800539a:	4606      	mov	r6, r0
 800539c:	db01      	blt.n	80053a2 <_malloc_r+0x1a>
 800539e:	42a9      	cmp	r1, r5
 80053a0:	d903      	bls.n	80053aa <_malloc_r+0x22>
 80053a2:	230c      	movs	r3, #12
 80053a4:	6033      	str	r3, [r6, #0]
 80053a6:	2000      	movs	r0, #0
 80053a8:	bd70      	pop	{r4, r5, r6, pc}
 80053aa:	f000 f92c 	bl	8005606 <__malloc_lock>
 80053ae:	4a21      	ldr	r2, [pc, #132]	; (8005434 <_malloc_r+0xac>)
 80053b0:	6814      	ldr	r4, [r2, #0]
 80053b2:	4621      	mov	r1, r4
 80053b4:	b991      	cbnz	r1, 80053dc <_malloc_r+0x54>
 80053b6:	4c20      	ldr	r4, [pc, #128]	; (8005438 <_malloc_r+0xb0>)
 80053b8:	6823      	ldr	r3, [r4, #0]
 80053ba:	b91b      	cbnz	r3, 80053c4 <_malloc_r+0x3c>
 80053bc:	4630      	mov	r0, r6
 80053be:	f000 f83d 	bl	800543c <_sbrk_r>
 80053c2:	6020      	str	r0, [r4, #0]
 80053c4:	4629      	mov	r1, r5
 80053c6:	4630      	mov	r0, r6
 80053c8:	f000 f838 	bl	800543c <_sbrk_r>
 80053cc:	1c43      	adds	r3, r0, #1
 80053ce:	d124      	bne.n	800541a <_malloc_r+0x92>
 80053d0:	230c      	movs	r3, #12
 80053d2:	6033      	str	r3, [r6, #0]
 80053d4:	4630      	mov	r0, r6
 80053d6:	f000 f917 	bl	8005608 <__malloc_unlock>
 80053da:	e7e4      	b.n	80053a6 <_malloc_r+0x1e>
 80053dc:	680b      	ldr	r3, [r1, #0]
 80053de:	1b5b      	subs	r3, r3, r5
 80053e0:	d418      	bmi.n	8005414 <_malloc_r+0x8c>
 80053e2:	2b0b      	cmp	r3, #11
 80053e4:	d90f      	bls.n	8005406 <_malloc_r+0x7e>
 80053e6:	600b      	str	r3, [r1, #0]
 80053e8:	50cd      	str	r5, [r1, r3]
 80053ea:	18cc      	adds	r4, r1, r3
 80053ec:	4630      	mov	r0, r6
 80053ee:	f000 f90b 	bl	8005608 <__malloc_unlock>
 80053f2:	f104 000b 	add.w	r0, r4, #11
 80053f6:	1d23      	adds	r3, r4, #4
 80053f8:	f020 0007 	bic.w	r0, r0, #7
 80053fc:	1ac3      	subs	r3, r0, r3
 80053fe:	d0d3      	beq.n	80053a8 <_malloc_r+0x20>
 8005400:	425a      	negs	r2, r3
 8005402:	50e2      	str	r2, [r4, r3]
 8005404:	e7d0      	b.n	80053a8 <_malloc_r+0x20>
 8005406:	428c      	cmp	r4, r1
 8005408:	684b      	ldr	r3, [r1, #4]
 800540a:	bf16      	itet	ne
 800540c:	6063      	strne	r3, [r4, #4]
 800540e:	6013      	streq	r3, [r2, #0]
 8005410:	460c      	movne	r4, r1
 8005412:	e7eb      	b.n	80053ec <_malloc_r+0x64>
 8005414:	460c      	mov	r4, r1
 8005416:	6849      	ldr	r1, [r1, #4]
 8005418:	e7cc      	b.n	80053b4 <_malloc_r+0x2c>
 800541a:	1cc4      	adds	r4, r0, #3
 800541c:	f024 0403 	bic.w	r4, r4, #3
 8005420:	42a0      	cmp	r0, r4
 8005422:	d005      	beq.n	8005430 <_malloc_r+0xa8>
 8005424:	1a21      	subs	r1, r4, r0
 8005426:	4630      	mov	r0, r6
 8005428:	f000 f808 	bl	800543c <_sbrk_r>
 800542c:	3001      	adds	r0, #1
 800542e:	d0cf      	beq.n	80053d0 <_malloc_r+0x48>
 8005430:	6025      	str	r5, [r4, #0]
 8005432:	e7db      	b.n	80053ec <_malloc_r+0x64>
 8005434:	20000230 	.word	0x20000230
 8005438:	20000234 	.word	0x20000234

0800543c <_sbrk_r>:
 800543c:	b538      	push	{r3, r4, r5, lr}
 800543e:	4c06      	ldr	r4, [pc, #24]	; (8005458 <_sbrk_r+0x1c>)
 8005440:	2300      	movs	r3, #0
 8005442:	4605      	mov	r5, r0
 8005444:	4608      	mov	r0, r1
 8005446:	6023      	str	r3, [r4, #0]
 8005448:	f7fc f988 	bl	800175c <_sbrk>
 800544c:	1c43      	adds	r3, r0, #1
 800544e:	d102      	bne.n	8005456 <_sbrk_r+0x1a>
 8005450:	6823      	ldr	r3, [r4, #0]
 8005452:	b103      	cbz	r3, 8005456 <_sbrk_r+0x1a>
 8005454:	602b      	str	r3, [r5, #0]
 8005456:	bd38      	pop	{r3, r4, r5, pc}
 8005458:	2000066c 	.word	0x2000066c

0800545c <siprintf>:
 800545c:	b40e      	push	{r1, r2, r3}
 800545e:	b500      	push	{lr}
 8005460:	b09c      	sub	sp, #112	; 0x70
 8005462:	ab1d      	add	r3, sp, #116	; 0x74
 8005464:	9002      	str	r0, [sp, #8]
 8005466:	9006      	str	r0, [sp, #24]
 8005468:	f06f 4100 	mvn.w	r1, #2147483648	; 0x80000000
 800546c:	4809      	ldr	r0, [pc, #36]	; (8005494 <siprintf+0x38>)
 800546e:	9107      	str	r1, [sp, #28]
 8005470:	9104      	str	r1, [sp, #16]
 8005472:	4909      	ldr	r1, [pc, #36]	; (8005498 <siprintf+0x3c>)
 8005474:	f853 2b04 	ldr.w	r2, [r3], #4
 8005478:	9105      	str	r1, [sp, #20]
 800547a:	6800      	ldr	r0, [r0, #0]
 800547c:	9301      	str	r3, [sp, #4]
 800547e:	a902      	add	r1, sp, #8
 8005480:	f000 f91e 	bl	80056c0 <_svfiprintf_r>
 8005484:	9b02      	ldr	r3, [sp, #8]
 8005486:	2200      	movs	r2, #0
 8005488:	701a      	strb	r2, [r3, #0]
 800548a:	b01c      	add	sp, #112	; 0x70
 800548c:	f85d eb04 	ldr.w	lr, [sp], #4
 8005490:	b003      	add	sp, #12
 8005492:	4770      	bx	lr
 8005494:	2000002c 	.word	0x2000002c
 8005498:	ffff0208 	.word	0xffff0208

0800549c <strcat>:
 800549c:	b510      	push	{r4, lr}
 800549e:	4603      	mov	r3, r0
 80054a0:	781a      	ldrb	r2, [r3, #0]
 80054a2:	1c5c      	adds	r4, r3, #1
 80054a4:	b93a      	cbnz	r2, 80054b6 <strcat+0x1a>
 80054a6:	3b01      	subs	r3, #1
 80054a8:	f811 2b01 	ldrb.w	r2, [r1], #1
 80054ac:	f803 2f01 	strb.w	r2, [r3, #1]!
 80054b0:	2a00      	cmp	r2, #0
 80054b2:	d1f9      	bne.n	80054a8 <strcat+0xc>
 80054b4:	bd10      	pop	{r4, pc}
 80054b6:	4623      	mov	r3, r4
 80054b8:	e7f2      	b.n	80054a0 <strcat+0x4>

080054ba <strcpy>:
 80054ba:	4603      	mov	r3, r0
 80054bc:	f811 2b01 	ldrb.w	r2, [r1], #1
 80054c0:	f803 2b01 	strb.w	r2, [r3], #1
 80054c4:	2a00      	cmp	r2, #0
 80054c6:	d1f9      	bne.n	80054bc <strcpy+0x2>
 80054c8:	4770      	bx	lr

080054ca <_strtol_l.isra.0>:
 80054ca:	e92d 47f0 	stmdb	sp!, {r4, r5, r6, r7, r8, r9, sl, lr}
 80054ce:	4680      	mov	r8, r0
 80054d0:	4689      	mov	r9, r1
 80054d2:	4692      	mov	sl, r2
 80054d4:	461e      	mov	r6, r3
 80054d6:	460f      	mov	r7, r1
 80054d8:	463d      	mov	r5, r7
 80054da:	9808      	ldr	r0, [sp, #32]
 80054dc:	f815 4b01 	ldrb.w	r4, [r5], #1
 80054e0:	f7ff fed0 	bl	8005284 <__locale_ctype_ptr_l>
 80054e4:	4420      	add	r0, r4
 80054e6:	7843      	ldrb	r3, [r0, #1]
 80054e8:	f013 0308 	ands.w	r3, r3, #8
 80054ec:	d132      	bne.n	8005554 <_strtol_l.isra.0+0x8a>
 80054ee:	2c2d      	cmp	r4, #45	; 0x2d
 80054f0:	d132      	bne.n	8005558 <_strtol_l.isra.0+0x8e>
 80054f2:	787c      	ldrb	r4, [r7, #1]
 80054f4:	1cbd      	adds	r5, r7, #2
 80054f6:	2201      	movs	r2, #1
 80054f8:	2e00      	cmp	r6, #0
 80054fa:	d05d      	beq.n	80055b8 <_strtol_l.isra.0+0xee>
 80054fc:	2e10      	cmp	r6, #16
 80054fe:	d109      	bne.n	8005514 <_strtol_l.isra.0+0x4a>
 8005500:	2c30      	cmp	r4, #48	; 0x30
 8005502:	d107      	bne.n	8005514 <_strtol_l.isra.0+0x4a>
 8005504:	782b      	ldrb	r3, [r5, #0]
 8005506:	f003 03df 	and.w	r3, r3, #223	; 0xdf
 800550a:	2b58      	cmp	r3, #88	; 0x58
 800550c:	d14f      	bne.n	80055ae <_strtol_l.isra.0+0xe4>
 800550e:	786c      	ldrb	r4, [r5, #1]
 8005510:	2610      	movs	r6, #16
 8005512:	3502      	adds	r5, #2
 8005514:	2a00      	cmp	r2, #0
 8005516:	bf14      	ite	ne
 8005518:	f04f 4100 	movne.w	r1, #2147483648	; 0x80000000
 800551c:	f06f 4100 	mvneq.w	r1, #2147483648	; 0x80000000
 8005520:	2700      	movs	r7, #0
 8005522:	fbb1 fcf6 	udiv	ip, r1, r6
 8005526:	4638      	mov	r0, r7
 8005528:	fb06 1e1c 	mls	lr, r6, ip, r1
 800552c:	f1a4 0330 	sub.w	r3, r4, #48	; 0x30
 8005530:	2b09      	cmp	r3, #9
 8005532:	d817      	bhi.n	8005564 <_strtol_l.isra.0+0x9a>
 8005534:	461c      	mov	r4, r3
 8005536:	42a6      	cmp	r6, r4
 8005538:	dd23      	ble.n	8005582 <_strtol_l.isra.0+0xb8>
 800553a:	1c7b      	adds	r3, r7, #1
 800553c:	d007      	beq.n	800554e <_strtol_l.isra.0+0x84>
 800553e:	4584      	cmp	ip, r0
 8005540:	d31c      	bcc.n	800557c <_strtol_l.isra.0+0xb2>
 8005542:	d101      	bne.n	8005548 <_strtol_l.isra.0+0x7e>
 8005544:	45a6      	cmp	lr, r4
 8005546:	db19      	blt.n	800557c <_strtol_l.isra.0+0xb2>
 8005548:	fb00 4006 	mla	r0, r0, r6, r4
 800554c:	2701      	movs	r7, #1
 800554e:	f815 4b01 	ldrb.w	r4, [r5], #1
 8005552:	e7eb      	b.n	800552c <_strtol_l.isra.0+0x62>
 8005554:	462f      	mov	r7, r5
 8005556:	e7bf      	b.n	80054d8 <_strtol_l.isra.0+0xe>
 8005558:	2c2b      	cmp	r4, #43	; 0x2b
 800555a:	bf04      	itt	eq
 800555c:	1cbd      	addeq	r5, r7, #2
 800555e:	787c      	ldrbeq	r4, [r7, #1]
 8005560:	461a      	mov	r2, r3
 8005562:	e7c9      	b.n	80054f8 <_strtol_l.isra.0+0x2e>
 8005564:	f1a4 0341 	sub.w	r3, r4, #65	; 0x41
 8005568:	2b19      	cmp	r3, #25
 800556a:	d801      	bhi.n	8005570 <_strtol_l.isra.0+0xa6>
 800556c:	3c37      	subs	r4, #55	; 0x37
 800556e:	e7e2      	b.n	8005536 <_strtol_l.isra.0+0x6c>
 8005570:	f1a4 0361 	sub.w	r3, r4, #97	; 0x61
 8005574:	2b19      	cmp	r3, #25
 8005576:	d804      	bhi.n	8005582 <_strtol_l.isra.0+0xb8>
 8005578:	3c57      	subs	r4, #87	; 0x57
 800557a:	e7dc      	b.n	8005536 <_strtol_l.isra.0+0x6c>
 800557c:	f04f 37ff 	mov.w	r7, #4294967295
 8005580:	e7e5      	b.n	800554e <_strtol_l.isra.0+0x84>
 8005582:	1c7b      	adds	r3, r7, #1
 8005584:	d108      	bne.n	8005598 <_strtol_l.isra.0+0xce>
 8005586:	2322      	movs	r3, #34	; 0x22
 8005588:	f8c8 3000 	str.w	r3, [r8]
 800558c:	4608      	mov	r0, r1
 800558e:	f1ba 0f00 	cmp.w	sl, #0
 8005592:	d107      	bne.n	80055a4 <_strtol_l.isra.0+0xda>
 8005594:	e8bd 87f0 	ldmia.w	sp!, {r4, r5, r6, r7, r8, r9, sl, pc}
 8005598:	b102      	cbz	r2, 800559c <_strtol_l.isra.0+0xd2>
 800559a:	4240      	negs	r0, r0
 800559c:	f1ba 0f00 	cmp.w	sl, #0
 80055a0:	d0f8      	beq.n	8005594 <_strtol_l.isra.0+0xca>
 80055a2:	b10f      	cbz	r7, 80055a8 <_strtol_l.isra.0+0xde>
 80055a4:	f105 39ff 	add.w	r9, r5, #4294967295
 80055a8:	f8ca 9000 	str.w	r9, [sl]
 80055ac:	e7f2      	b.n	8005594 <_strtol_l.isra.0+0xca>
 80055ae:	2430      	movs	r4, #48	; 0x30
 80055b0:	2e00      	cmp	r6, #0
 80055b2:	d1af      	bne.n	8005514 <_strtol_l.isra.0+0x4a>
 80055b4:	2608      	movs	r6, #8
 80055b6:	e7ad      	b.n	8005514 <_strtol_l.isra.0+0x4a>
 80055b8:	2c30      	cmp	r4, #48	; 0x30
 80055ba:	d0a3      	beq.n	8005504 <_strtol_l.isra.0+0x3a>
 80055bc:	260a      	movs	r6, #10
 80055be:	e7a9      	b.n	8005514 <_strtol_l.isra.0+0x4a>

080055c0 <strtol>:
 80055c0:	4b08      	ldr	r3, [pc, #32]	; (80055e4 <strtol+0x24>)
 80055c2:	b537      	push	{r0, r1, r2, r4, r5, lr}
 80055c4:	681c      	ldr	r4, [r3, #0]
 80055c6:	4d08      	ldr	r5, [pc, #32]	; (80055e8 <strtol+0x28>)
 80055c8:	6a23      	ldr	r3, [r4, #32]
 80055ca:	2b00      	cmp	r3, #0
 80055cc:	bf08      	it	eq
 80055ce:	462b      	moveq	r3, r5
 80055d0:	9300      	str	r3, [sp, #0]
 80055d2:	4613      	mov	r3, r2
 80055d4:	460a      	mov	r2, r1
 80055d6:	4601      	mov	r1, r0
 80055d8:	4620      	mov	r0, r4
 80055da:	f7ff ff76 	bl	80054ca <_strtol_l.isra.0>
 80055de:	b003      	add	sp, #12
 80055e0:	bd30      	pop	{r4, r5, pc}
 80055e2:	bf00      	nop
 80055e4:	2000002c 	.word	0x2000002c
 80055e8:	20000090 	.word	0x20000090

080055ec <__ascii_wctomb>:
 80055ec:	b149      	cbz	r1, 8005602 <__ascii_wctomb+0x16>
 80055ee:	2aff      	cmp	r2, #255	; 0xff
 80055f0:	bf85      	ittet	hi
 80055f2:	238a      	movhi	r3, #138	; 0x8a
 80055f4:	6003      	strhi	r3, [r0, #0]
 80055f6:	700a      	strbls	r2, [r1, #0]
 80055f8:	f04f 30ff 	movhi.w	r0, #4294967295
 80055fc:	bf98      	it	ls
 80055fe:	2001      	movls	r0, #1
 8005600:	4770      	bx	lr
 8005602:	4608      	mov	r0, r1
 8005604:	4770      	bx	lr

08005606 <__malloc_lock>:
 8005606:	4770      	bx	lr

08005608 <__malloc_unlock>:
 8005608:	4770      	bx	lr

0800560a <__ssputs_r>:
 800560a:	e92d 47f0 	stmdb	sp!, {r4, r5, r6, r7, r8, r9, sl, lr}
 800560e:	688e      	ldr	r6, [r1, #8]
 8005610:	429e      	cmp	r6, r3
 8005612:	4682      	mov	sl, r0
 8005614:	460c      	mov	r4, r1
 8005616:	4690      	mov	r8, r2
 8005618:	4699      	mov	r9, r3
 800561a:	d837      	bhi.n	800568c <__ssputs_r+0x82>
 800561c:	898a      	ldrh	r2, [r1, #12]
 800561e:	f412 6f90 	tst.w	r2, #1152	; 0x480
 8005622:	d031      	beq.n	8005688 <__ssputs_r+0x7e>
 8005624:	6825      	ldr	r5, [r4, #0]
 8005626:	6909      	ldr	r1, [r1, #16]
 8005628:	1a6f      	subs	r7, r5, r1
 800562a:	6965      	ldr	r5, [r4, #20]
 800562c:	2302      	movs	r3, #2
 800562e:	eb05 0545 	add.w	r5, r5, r5, lsl #1
 8005632:	fb95 f5f3 	sdiv	r5, r5, r3
 8005636:	f109 0301 	add.w	r3, r9, #1
 800563a:	443b      	add	r3, r7
 800563c:	429d      	cmp	r5, r3
 800563e:	bf38      	it	cc
 8005640:	461d      	movcc	r5, r3
 8005642:	0553      	lsls	r3, r2, #21
 8005644:	d530      	bpl.n	80056a8 <__ssputs_r+0x9e>
 8005646:	4629      	mov	r1, r5
 8005648:	f7ff fe9e 	bl	8005388 <_malloc_r>
 800564c:	4606      	mov	r6, r0
 800564e:	b950      	cbnz	r0, 8005666 <__ssputs_r+0x5c>
 8005650:	230c      	movs	r3, #12
 8005652:	f8ca 3000 	str.w	r3, [sl]
 8005656:	89a3      	ldrh	r3, [r4, #12]
 8005658:	f043 0340 	orr.w	r3, r3, #64	; 0x40
 800565c:	81a3      	strh	r3, [r4, #12]
 800565e:	f04f 30ff 	mov.w	r0, #4294967295
 8005662:	e8bd 87f0 	ldmia.w	sp!, {r4, r5, r6, r7, r8, r9, sl, pc}
 8005666:	463a      	mov	r2, r7
 8005668:	6921      	ldr	r1, [r4, #16]
 800566a:	f000 faa9 	bl	8005bc0 <memcpy>
 800566e:	89a3      	ldrh	r3, [r4, #12]
 8005670:	f423 6390 	bic.w	r3, r3, #1152	; 0x480
 8005674:	f043 0380 	orr.w	r3, r3, #128	; 0x80
 8005678:	81a3      	strh	r3, [r4, #12]
 800567a:	6126      	str	r6, [r4, #16]
 800567c:	6165      	str	r5, [r4, #20]
 800567e:	443e      	add	r6, r7
 8005680:	1bed      	subs	r5, r5, r7
 8005682:	6026      	str	r6, [r4, #0]
 8005684:	60a5      	str	r5, [r4, #8]
 8005686:	464e      	mov	r6, r9
 8005688:	454e      	cmp	r6, r9
 800568a:	d900      	bls.n	800568e <__ssputs_r+0x84>
 800568c:	464e      	mov	r6, r9
 800568e:	4632      	mov	r2, r6
 8005690:	4641      	mov	r1, r8
 8005692:	6820      	ldr	r0, [r4, #0]
 8005694:	f000 fa9f 	bl	8005bd6 <memmove>
 8005698:	68a3      	ldr	r3, [r4, #8]
 800569a:	1b9b      	subs	r3, r3, r6
 800569c:	60a3      	str	r3, [r4, #8]
 800569e:	6823      	ldr	r3, [r4, #0]
 80056a0:	441e      	add	r6, r3
 80056a2:	6026      	str	r6, [r4, #0]
 80056a4:	2000      	movs	r0, #0
 80056a6:	e7dc      	b.n	8005662 <__ssputs_r+0x58>
 80056a8:	462a      	mov	r2, r5
 80056aa:	f000 faad 	bl	8005c08 <_realloc_r>
 80056ae:	4606      	mov	r6, r0
 80056b0:	2800      	cmp	r0, #0
 80056b2:	d1e2      	bne.n	800567a <__ssputs_r+0x70>
 80056b4:	6921      	ldr	r1, [r4, #16]
 80056b6:	4650      	mov	r0, sl
 80056b8:	f7ff fe18 	bl	80052ec <_free_r>
 80056bc:	e7c8      	b.n	8005650 <__ssputs_r+0x46>
	...

080056c0 <_svfiprintf_r>:
 80056c0:	e92d 4ff0 	stmdb	sp!, {r4, r5, r6, r7, r8, r9, sl, fp, lr}
 80056c4:	461d      	mov	r5, r3
 80056c6:	898b      	ldrh	r3, [r1, #12]
 80056c8:	061f      	lsls	r7, r3, #24
 80056ca:	b09d      	sub	sp, #116	; 0x74
 80056cc:	4680      	mov	r8, r0
 80056ce:	460c      	mov	r4, r1
 80056d0:	4616      	mov	r6, r2
 80056d2:	d50f      	bpl.n	80056f4 <_svfiprintf_r+0x34>
 80056d4:	690b      	ldr	r3, [r1, #16]
 80056d6:	b96b      	cbnz	r3, 80056f4 <_svfiprintf_r+0x34>
 80056d8:	2140      	movs	r1, #64	; 0x40
 80056da:	f7ff fe55 	bl	8005388 <_malloc_r>
 80056de:	6020      	str	r0, [r4, #0]
 80056e0:	6120      	str	r0, [r4, #16]
 80056e2:	b928      	cbnz	r0, 80056f0 <_svfiprintf_r+0x30>
 80056e4:	230c      	movs	r3, #12
 80056e6:	f8c8 3000 	str.w	r3, [r8]
 80056ea:	f04f 30ff 	mov.w	r0, #4294967295
 80056ee:	e0c8      	b.n	8005882 <_svfiprintf_r+0x1c2>
 80056f0:	2340      	movs	r3, #64	; 0x40
 80056f2:	6163      	str	r3, [r4, #20]
 80056f4:	2300      	movs	r3, #0
 80056f6:	9309      	str	r3, [sp, #36]	; 0x24
 80056f8:	2320      	movs	r3, #32
 80056fa:	f88d 3029 	strb.w	r3, [sp, #41]	; 0x29
 80056fe:	2330      	movs	r3, #48	; 0x30
 8005700:	f88d 302a 	strb.w	r3, [sp, #42]	; 0x2a
 8005704:	9503      	str	r5, [sp, #12]
 8005706:	f04f 0b01 	mov.w	fp, #1
 800570a:	4637      	mov	r7, r6
 800570c:	463d      	mov	r5, r7
 800570e:	f815 3b01 	ldrb.w	r3, [r5], #1
 8005712:	b10b      	cbz	r3, 8005718 <_svfiprintf_r+0x58>
 8005714:	2b25      	cmp	r3, #37	; 0x25
 8005716:	d13e      	bne.n	8005796 <_svfiprintf_r+0xd6>
 8005718:	ebb7 0a06 	subs.w	sl, r7, r6
 800571c:	d00b      	beq.n	8005736 <_svfiprintf_r+0x76>
 800571e:	4653      	mov	r3, sl
 8005720:	4632      	mov	r2, r6
 8005722:	4621      	mov	r1, r4
 8005724:	4640      	mov	r0, r8
 8005726:	f7ff ff70 	bl	800560a <__ssputs_r>
 800572a:	3001      	adds	r0, #1
 800572c:	f000 80a4 	beq.w	8005878 <_svfiprintf_r+0x1b8>
 8005730:	9b09      	ldr	r3, [sp, #36]	; 0x24
 8005732:	4453      	add	r3, sl
 8005734:	9309      	str	r3, [sp, #36]	; 0x24
 8005736:	783b      	ldrb	r3, [r7, #0]
 8005738:	2b00      	cmp	r3, #0
 800573a:	f000 809d 	beq.w	8005878 <_svfiprintf_r+0x1b8>
 800573e:	2300      	movs	r3, #0
 8005740:	f04f 32ff 	mov.w	r2, #4294967295
 8005744:	e9cd 2305 	strd	r2, r3, [sp, #20]
 8005748:	9304      	str	r3, [sp, #16]
 800574a:	9307      	str	r3, [sp, #28]
 800574c:	f88d 3053 	strb.w	r3, [sp, #83]	; 0x53
 8005750:	931a      	str	r3, [sp, #104]	; 0x68
 8005752:	462f      	mov	r7, r5
 8005754:	2205      	movs	r2, #5
 8005756:	f817 1b01 	ldrb.w	r1, [r7], #1
 800575a:	4850      	ldr	r0, [pc, #320]	; (800589c <_svfiprintf_r+0x1dc>)
 800575c:	f7fa fd58 	bl	8000210 <memchr>
 8005760:	9b04      	ldr	r3, [sp, #16]
 8005762:	b9d0      	cbnz	r0, 800579a <_svfiprintf_r+0xda>
 8005764:	06d9      	lsls	r1, r3, #27
 8005766:	bf44      	itt	mi
 8005768:	2220      	movmi	r2, #32
 800576a:	f88d 2053 	strbmi.w	r2, [sp, #83]	; 0x53
 800576e:	071a      	lsls	r2, r3, #28
 8005770:	bf44      	itt	mi
 8005772:	222b      	movmi	r2, #43	; 0x2b
 8005774:	f88d 2053 	strbmi.w	r2, [sp, #83]	; 0x53
 8005778:	782a      	ldrb	r2, [r5, #0]
 800577a:	2a2a      	cmp	r2, #42	; 0x2a
 800577c:	d015      	beq.n	80057aa <_svfiprintf_r+0xea>
 800577e:	9a07      	ldr	r2, [sp, #28]
 8005780:	462f      	mov	r7, r5
 8005782:	2000      	movs	r0, #0
 8005784:	250a      	movs	r5, #10
 8005786:	4639      	mov	r1, r7
 8005788:	f811 3b01 	ldrb.w	r3, [r1], #1
 800578c:	3b30      	subs	r3, #48	; 0x30
 800578e:	2b09      	cmp	r3, #9
 8005790:	d94d      	bls.n	800582e <_svfiprintf_r+0x16e>
 8005792:	b1b8      	cbz	r0, 80057c4 <_svfiprintf_r+0x104>
 8005794:	e00f      	b.n	80057b6 <_svfiprintf_r+0xf6>
 8005796:	462f      	mov	r7, r5
 8005798:	e7b8      	b.n	800570c <_svfiprintf_r+0x4c>
 800579a:	4a40      	ldr	r2, [pc, #256]	; (800589c <_svfiprintf_r+0x1dc>)
 800579c:	1a80      	subs	r0, r0, r2
 800579e:	fa0b f000 	lsl.w	r0, fp, r0
 80057a2:	4318      	orrs	r0, r3
 80057a4:	9004      	str	r0, [sp, #16]
 80057a6:	463d      	mov	r5, r7
 80057a8:	e7d3      	b.n	8005752 <_svfiprintf_r+0x92>
 80057aa:	9a03      	ldr	r2, [sp, #12]
 80057ac:	1d11      	adds	r1, r2, #4
 80057ae:	6812      	ldr	r2, [r2, #0]
 80057b0:	9103      	str	r1, [sp, #12]
 80057b2:	2a00      	cmp	r2, #0
 80057b4:	db01      	blt.n	80057ba <_svfiprintf_r+0xfa>
 80057b6:	9207      	str	r2, [sp, #28]
 80057b8:	e004      	b.n	80057c4 <_svfiprintf_r+0x104>
 80057ba:	4252      	negs	r2, r2
 80057bc:	f043 0302 	orr.w	r3, r3, #2
 80057c0:	9207      	str	r2, [sp, #28]
 80057c2:	9304      	str	r3, [sp, #16]
 80057c4:	783b      	ldrb	r3, [r7, #0]
 80057c6:	2b2e      	cmp	r3, #46	; 0x2e
 80057c8:	d10c      	bne.n	80057e4 <_svfiprintf_r+0x124>
 80057ca:	787b      	ldrb	r3, [r7, #1]
 80057cc:	2b2a      	cmp	r3, #42	; 0x2a
 80057ce:	d133      	bne.n	8005838 <_svfiprintf_r+0x178>
 80057d0:	9b03      	ldr	r3, [sp, #12]
 80057d2:	1d1a      	adds	r2, r3, #4
 80057d4:	681b      	ldr	r3, [r3, #0]
 80057d6:	9203      	str	r2, [sp, #12]
 80057d8:	2b00      	cmp	r3, #0
 80057da:	bfb8      	it	lt
 80057dc:	f04f 33ff 	movlt.w	r3, #4294967295
 80057e0:	3702      	adds	r7, #2
 80057e2:	9305      	str	r3, [sp, #20]
 80057e4:	4d2e      	ldr	r5, [pc, #184]	; (80058a0 <_svfiprintf_r+0x1e0>)
 80057e6:	7839      	ldrb	r1, [r7, #0]
 80057e8:	2203      	movs	r2, #3
 80057ea:	4628      	mov	r0, r5
 80057ec:	f7fa fd10 	bl	8000210 <memchr>
 80057f0:	b138      	cbz	r0, 8005802 <_svfiprintf_r+0x142>
 80057f2:	2340      	movs	r3, #64	; 0x40
 80057f4:	1b40      	subs	r0, r0, r5
 80057f6:	fa03 f000 	lsl.w	r0, r3, r0
 80057fa:	9b04      	ldr	r3, [sp, #16]
 80057fc:	4303      	orrs	r3, r0
 80057fe:	3701      	adds	r7, #1
 8005800:	9304      	str	r3, [sp, #16]
 8005802:	7839      	ldrb	r1, [r7, #0]
 8005804:	4827      	ldr	r0, [pc, #156]	; (80058a4 <_svfiprintf_r+0x1e4>)
 8005806:	f88d 1028 	strb.w	r1, [sp, #40]	; 0x28
 800580a:	2206      	movs	r2, #6
 800580c:	1c7e      	adds	r6, r7, #1
 800580e:	f7fa fcff 	bl	8000210 <memchr>
 8005812:	2800      	cmp	r0, #0
 8005814:	d038      	beq.n	8005888 <_svfiprintf_r+0x1c8>
 8005816:	4b24      	ldr	r3, [pc, #144]	; (80058a8 <_svfiprintf_r+0x1e8>)
 8005818:	bb13      	cbnz	r3, 8005860 <_svfiprintf_r+0x1a0>
 800581a:	9b03      	ldr	r3, [sp, #12]
 800581c:	3307      	adds	r3, #7
 800581e:	f023 0307 	bic.w	r3, r3, #7
 8005822:	3308      	adds	r3, #8
 8005824:	9303      	str	r3, [sp, #12]
 8005826:	9b09      	ldr	r3, [sp, #36]	; 0x24
 8005828:	444b      	add	r3, r9
 800582a:	9309      	str	r3, [sp, #36]	; 0x24
 800582c:	e76d      	b.n	800570a <_svfiprintf_r+0x4a>
 800582e:	fb05 3202 	mla	r2, r5, r2, r3
 8005832:	2001      	movs	r0, #1
 8005834:	460f      	mov	r7, r1
 8005836:	e7a6      	b.n	8005786 <_svfiprintf_r+0xc6>
 8005838:	2300      	movs	r3, #0
 800583a:	3701      	adds	r7, #1
 800583c:	9305      	str	r3, [sp, #20]
 800583e:	4619      	mov	r1, r3
 8005840:	250a      	movs	r5, #10
 8005842:	4638      	mov	r0, r7
 8005844:	f810 2b01 	ldrb.w	r2, [r0], #1
 8005848:	3a30      	subs	r2, #48	; 0x30
 800584a:	2a09      	cmp	r2, #9
 800584c:	d903      	bls.n	8005856 <_svfiprintf_r+0x196>
 800584e:	2b00      	cmp	r3, #0
 8005850:	d0c8      	beq.n	80057e4 <_svfiprintf_r+0x124>
 8005852:	9105      	str	r1, [sp, #20]
 8005854:	e7c6      	b.n	80057e4 <_svfiprintf_r+0x124>
 8005856:	fb05 2101 	mla	r1, r5, r1, r2
 800585a:	2301      	movs	r3, #1
 800585c:	4607      	mov	r7, r0
 800585e:	e7f0      	b.n	8005842 <_svfiprintf_r+0x182>
 8005860:	ab03      	add	r3, sp, #12
 8005862:	9300      	str	r3, [sp, #0]
 8005864:	4622      	mov	r2, r4
 8005866:	4b11      	ldr	r3, [pc, #68]	; (80058ac <_svfiprintf_r+0x1ec>)
 8005868:	a904      	add	r1, sp, #16
 800586a:	4640      	mov	r0, r8
 800586c:	f3af 8000 	nop.w
 8005870:	f1b0 3fff 	cmp.w	r0, #4294967295
 8005874:	4681      	mov	r9, r0
 8005876:	d1d6      	bne.n	8005826 <_svfiprintf_r+0x166>
 8005878:	89a3      	ldrh	r3, [r4, #12]
 800587a:	065b      	lsls	r3, r3, #25
 800587c:	f53f af35 	bmi.w	80056ea <_svfiprintf_r+0x2a>
 8005880:	9809      	ldr	r0, [sp, #36]	; 0x24
 8005882:	b01d      	add	sp, #116	; 0x74
 8005884:	e8bd 8ff0 	ldmia.w	sp!, {r4, r5, r6, r7, r8, r9, sl, fp, pc}
 8005888:	ab03      	add	r3, sp, #12
 800588a:	9300      	str	r3, [sp, #0]
 800588c:	4622      	mov	r2, r4
 800588e:	4b07      	ldr	r3, [pc, #28]	; (80058ac <_svfiprintf_r+0x1ec>)
 8005890:	a904      	add	r1, sp, #16
 8005892:	4640      	mov	r0, r8
 8005894:	f000 f882 	bl	800599c <_printf_i>
 8005898:	e7ea      	b.n	8005870 <_svfiprintf_r+0x1b0>
 800589a:	bf00      	nop
 800589c:	080062cf 	.word	0x080062cf
 80058a0:	080062d5 	.word	0x080062d5
 80058a4:	080062d9 	.word	0x080062d9
 80058a8:	00000000 	.word	0x00000000
 80058ac:	0800560b 	.word	0x0800560b

080058b0 <_printf_common>:
 80058b0:	e92d 47f0 	stmdb	sp!, {r4, r5, r6, r7, r8, r9, sl, lr}
 80058b4:	4691      	mov	r9, r2
 80058b6:	461f      	mov	r7, r3
 80058b8:	688a      	ldr	r2, [r1, #8]
 80058ba:	690b      	ldr	r3, [r1, #16]
 80058bc:	f8dd 8020 	ldr.w	r8, [sp, #32]
 80058c0:	4293      	cmp	r3, r2
 80058c2:	bfb8      	it	lt
 80058c4:	4613      	movlt	r3, r2
 80058c6:	f8c9 3000 	str.w	r3, [r9]
 80058ca:	f891 2043 	ldrb.w	r2, [r1, #67]	; 0x43
 80058ce:	4606      	mov	r6, r0
 80058d0:	460c      	mov	r4, r1
 80058d2:	b112      	cbz	r2, 80058da <_printf_common+0x2a>
 80058d4:	3301      	adds	r3, #1
 80058d6:	f8c9 3000 	str.w	r3, [r9]
 80058da:	6823      	ldr	r3, [r4, #0]
 80058dc:	0699      	lsls	r1, r3, #26
 80058de:	bf42      	ittt	mi
 80058e0:	f8d9 3000 	ldrmi.w	r3, [r9]
 80058e4:	3302      	addmi	r3, #2
 80058e6:	f8c9 3000 	strmi.w	r3, [r9]
 80058ea:	6825      	ldr	r5, [r4, #0]
 80058ec:	f015 0506 	ands.w	r5, r5, #6
 80058f0:	d107      	bne.n	8005902 <_printf_common+0x52>
 80058f2:	f104 0a19 	add.w	sl, r4, #25
 80058f6:	68e3      	ldr	r3, [r4, #12]
 80058f8:	f8d9 2000 	ldr.w	r2, [r9]
 80058fc:	1a9b      	subs	r3, r3, r2
 80058fe:	42ab      	cmp	r3, r5
 8005900:	dc28      	bgt.n	8005954 <_printf_common+0xa4>
 8005902:	f894 3043 	ldrb.w	r3, [r4, #67]	; 0x43
 8005906:	6822      	ldr	r2, [r4, #0]
 8005908:	3300      	adds	r3, #0
 800590a:	bf18      	it	ne
 800590c:	2301      	movne	r3, #1
 800590e:	0692      	lsls	r2, r2, #26
 8005910:	d42d      	bmi.n	800596e <_printf_common+0xbe>
 8005912:	f104 0243 	add.w	r2, r4, #67	; 0x43
 8005916:	4639      	mov	r1, r7
 8005918:	4630      	mov	r0, r6
 800591a:	47c0      	blx	r8
 800591c:	3001      	adds	r0, #1
 800591e:	d020      	beq.n	8005962 <_printf_common+0xb2>
 8005920:	6823      	ldr	r3, [r4, #0]
 8005922:	68e5      	ldr	r5, [r4, #12]
 8005924:	f8d9 2000 	ldr.w	r2, [r9]
 8005928:	f003 0306 	and.w	r3, r3, #6
 800592c:	2b04      	cmp	r3, #4
 800592e:	bf08      	it	eq
 8005930:	1aad      	subeq	r5, r5, r2
 8005932:	68a3      	ldr	r3, [r4, #8]
 8005934:	6922      	ldr	r2, [r4, #16]
 8005936:	bf0c      	ite	eq
 8005938:	ea25 75e5 	biceq.w	r5, r5, r5, asr #31
 800593c:	2500      	movne	r5, #0
 800593e:	4293      	cmp	r3, r2
 8005940:	bfc4      	itt	gt
 8005942:	1a9b      	subgt	r3, r3, r2
 8005944:	18ed      	addgt	r5, r5, r3
 8005946:	f04f 0900 	mov.w	r9, #0
 800594a:	341a      	adds	r4, #26
 800594c:	454d      	cmp	r5, r9
 800594e:	d11a      	bne.n	8005986 <_printf_common+0xd6>
 8005950:	2000      	movs	r0, #0
 8005952:	e008      	b.n	8005966 <_printf_common+0xb6>
 8005954:	2301      	movs	r3, #1
 8005956:	4652      	mov	r2, sl
 8005958:	4639      	mov	r1, r7
 800595a:	4630      	mov	r0, r6
 800595c:	47c0      	blx	r8
 800595e:	3001      	adds	r0, #1
 8005960:	d103      	bne.n	800596a <_printf_common+0xba>
 8005962:	f04f 30ff 	mov.w	r0, #4294967295
 8005966:	e8bd 87f0 	ldmia.w	sp!, {r4, r5, r6, r7, r8, r9, sl, pc}
 800596a:	3501      	adds	r5, #1
 800596c:	e7c3      	b.n	80058f6 <_printf_common+0x46>
 800596e:	18e1      	adds	r1, r4, r3
 8005970:	1c5a      	adds	r2, r3, #1
 8005972:	2030      	movs	r0, #48	; 0x30
 8005974:	f881 0043 	strb.w	r0, [r1, #67]	; 0x43
 8005978:	4422      	add	r2, r4
 800597a:	f894 1045 	ldrb.w	r1, [r4, #69]	; 0x45
 800597e:	f882 1043 	strb.w	r1, [r2, #67]	; 0x43
 8005982:	3302      	adds	r3, #2
 8005984:	e7c5      	b.n	8005912 <_printf_common+0x62>
 8005986:	2301      	movs	r3, #1
 8005988:	4622      	mov	r2, r4
 800598a:	4639      	mov	r1, r7
 800598c:	4630      	mov	r0, r6
 800598e:	47c0      	blx	r8
 8005990:	3001      	adds	r0, #1
 8005992:	d0e6      	beq.n	8005962 <_printf_common+0xb2>
 8005994:	f109 0901 	add.w	r9, r9, #1
 8005998:	e7d8      	b.n	800594c <_printf_common+0x9c>
	...

0800599c <_printf_i>:
 800599c:	e92d 43f0 	stmdb	sp!, {r4, r5, r6, r7, r8, r9, lr}
 80059a0:	f101 0c43 	add.w	ip, r1, #67	; 0x43
 80059a4:	460c      	mov	r4, r1
 80059a6:	7e09      	ldrb	r1, [r1, #24]
 80059a8:	b085      	sub	sp, #20
 80059aa:	296e      	cmp	r1, #110	; 0x6e
 80059ac:	4617      	mov	r7, r2
 80059ae:	4606      	mov	r6, r0
 80059b0:	4698      	mov	r8, r3
 80059b2:	9a0c      	ldr	r2, [sp, #48]	; 0x30
 80059b4:	f000 80b3 	beq.w	8005b1e <_printf_i+0x182>
 80059b8:	d822      	bhi.n	8005a00 <_printf_i+0x64>
 80059ba:	2963      	cmp	r1, #99	; 0x63
 80059bc:	d036      	beq.n	8005a2c <_printf_i+0x90>
 80059be:	d80a      	bhi.n	80059d6 <_printf_i+0x3a>
 80059c0:	2900      	cmp	r1, #0
 80059c2:	f000 80b9 	beq.w	8005b38 <_printf_i+0x19c>
 80059c6:	2958      	cmp	r1, #88	; 0x58
 80059c8:	f000 8083 	beq.w	8005ad2 <_printf_i+0x136>
 80059cc:	f104 0542 	add.w	r5, r4, #66	; 0x42
 80059d0:	f884 1042 	strb.w	r1, [r4, #66]	; 0x42
 80059d4:	e032      	b.n	8005a3c <_printf_i+0xa0>
 80059d6:	2964      	cmp	r1, #100	; 0x64
 80059d8:	d001      	beq.n	80059de <_printf_i+0x42>
 80059da:	2969      	cmp	r1, #105	; 0x69
 80059dc:	d1f6      	bne.n	80059cc <_printf_i+0x30>
 80059de:	6820      	ldr	r0, [r4, #0]
 80059e0:	6813      	ldr	r3, [r2, #0]
 80059e2:	0605      	lsls	r5, r0, #24
 80059e4:	f103 0104 	add.w	r1, r3, #4
 80059e8:	d52a      	bpl.n	8005a40 <_printf_i+0xa4>
 80059ea:	681b      	ldr	r3, [r3, #0]
 80059ec:	6011      	str	r1, [r2, #0]
 80059ee:	2b00      	cmp	r3, #0
 80059f0:	da03      	bge.n	80059fa <_printf_i+0x5e>
 80059f2:	222d      	movs	r2, #45	; 0x2d
 80059f4:	425b      	negs	r3, r3
 80059f6:	f884 2043 	strb.w	r2, [r4, #67]	; 0x43
 80059fa:	486f      	ldr	r0, [pc, #444]	; (8005bb8 <_printf_i+0x21c>)
 80059fc:	220a      	movs	r2, #10
 80059fe:	e039      	b.n	8005a74 <_printf_i+0xd8>
 8005a00:	2973      	cmp	r1, #115	; 0x73
 8005a02:	f000 809d 	beq.w	8005b40 <_printf_i+0x1a4>
 8005a06:	d808      	bhi.n	8005a1a <_printf_i+0x7e>
 8005a08:	296f      	cmp	r1, #111	; 0x6f
 8005a0a:	d020      	beq.n	8005a4e <_printf_i+0xb2>
 8005a0c:	2970      	cmp	r1, #112	; 0x70
 8005a0e:	d1dd      	bne.n	80059cc <_printf_i+0x30>
 8005a10:	6823      	ldr	r3, [r4, #0]
 8005a12:	f043 0320 	orr.w	r3, r3, #32
 8005a16:	6023      	str	r3, [r4, #0]
 8005a18:	e003      	b.n	8005a22 <_printf_i+0x86>
 8005a1a:	2975      	cmp	r1, #117	; 0x75
 8005a1c:	d017      	beq.n	8005a4e <_printf_i+0xb2>
 8005a1e:	2978      	cmp	r1, #120	; 0x78
 8005a20:	d1d4      	bne.n	80059cc <_printf_i+0x30>
 8005a22:	2378      	movs	r3, #120	; 0x78
 8005a24:	f884 3045 	strb.w	r3, [r4, #69]	; 0x45
 8005a28:	4864      	ldr	r0, [pc, #400]	; (8005bbc <_printf_i+0x220>)
 8005a2a:	e055      	b.n	8005ad8 <_printf_i+0x13c>
 8005a2c:	6813      	ldr	r3, [r2, #0]
 8005a2e:	1d19      	adds	r1, r3, #4
 8005a30:	681b      	ldr	r3, [r3, #0]
 8005a32:	6011      	str	r1, [r2, #0]
 8005a34:	f104 0542 	add.w	r5, r4, #66	; 0x42
 8005a38:	f884 3042 	strb.w	r3, [r4, #66]	; 0x42
 8005a3c:	2301      	movs	r3, #1
 8005a3e:	e08c      	b.n	8005b5a <_printf_i+0x1be>
 8005a40:	681b      	ldr	r3, [r3, #0]
 8005a42:	6011      	str	r1, [r2, #0]
 8005a44:	f010 0f40 	tst.w	r0, #64	; 0x40
 8005a48:	bf18      	it	ne
 8005a4a:	b21b      	sxthne	r3, r3
 8005a4c:	e7cf      	b.n	80059ee <_printf_i+0x52>
 8005a4e:	6813      	ldr	r3, [r2, #0]
 8005a50:	6825      	ldr	r5, [r4, #0]
 8005a52:	1d18      	adds	r0, r3, #4
 8005a54:	6010      	str	r0, [r2, #0]
 8005a56:	0628      	lsls	r0, r5, #24
 8005a58:	d501      	bpl.n	8005a5e <_printf_i+0xc2>
 8005a5a:	681b      	ldr	r3, [r3, #0]
 8005a5c:	e002      	b.n	8005a64 <_printf_i+0xc8>
 8005a5e:	0668      	lsls	r0, r5, #25
 8005a60:	d5fb      	bpl.n	8005a5a <_printf_i+0xbe>
 8005a62:	881b      	ldrh	r3, [r3, #0]
 8005a64:	4854      	ldr	r0, [pc, #336]	; (8005bb8 <_printf_i+0x21c>)
 8005a66:	296f      	cmp	r1, #111	; 0x6f
 8005a68:	bf14      	ite	ne
 8005a6a:	220a      	movne	r2, #10
 8005a6c:	2208      	moveq	r2, #8
 8005a6e:	2100      	movs	r1, #0
 8005a70:	f884 1043 	strb.w	r1, [r4, #67]	; 0x43
 8005a74:	6865      	ldr	r5, [r4, #4]
 8005a76:	60a5      	str	r5, [r4, #8]
 8005a78:	2d00      	cmp	r5, #0
 8005a7a:	f2c0 8095 	blt.w	8005ba8 <_printf_i+0x20c>
 8005a7e:	6821      	ldr	r1, [r4, #0]
 8005a80:	f021 0104 	bic.w	r1, r1, #4
 8005a84:	6021      	str	r1, [r4, #0]
 8005a86:	2b00      	cmp	r3, #0
 8005a88:	d13d      	bne.n	8005b06 <_printf_i+0x16a>
 8005a8a:	2d00      	cmp	r5, #0
 8005a8c:	f040 808e 	bne.w	8005bac <_printf_i+0x210>
 8005a90:	4665      	mov	r5, ip
 8005a92:	2a08      	cmp	r2, #8
 8005a94:	d10b      	bne.n	8005aae <_printf_i+0x112>
 8005a96:	6823      	ldr	r3, [r4, #0]
 8005a98:	07db      	lsls	r3, r3, #31
 8005a9a:	d508      	bpl.n	8005aae <_printf_i+0x112>
 8005a9c:	6923      	ldr	r3, [r4, #16]
 8005a9e:	6862      	ldr	r2, [r4, #4]
 8005aa0:	429a      	cmp	r2, r3
 8005aa2:	bfde      	ittt	le
 8005aa4:	2330      	movle	r3, #48	; 0x30
 8005aa6:	f805 3c01 	strble.w	r3, [r5, #-1]
 8005aaa:	f105 35ff 	addle.w	r5, r5, #4294967295
 8005aae:	ebac 0305 	sub.w	r3, ip, r5
 8005ab2:	6123      	str	r3, [r4, #16]
 8005ab4:	f8cd 8000 	str.w	r8, [sp]
 8005ab8:	463b      	mov	r3, r7
 8005aba:	aa03      	add	r2, sp, #12
 8005abc:	4621      	mov	r1, r4
 8005abe:	4630      	mov	r0, r6
 8005ac0:	f7ff fef6 	bl	80058b0 <_printf_common>
 8005ac4:	3001      	adds	r0, #1
 8005ac6:	d14d      	bne.n	8005b64 <_printf_i+0x1c8>
 8005ac8:	f04f 30ff 	mov.w	r0, #4294967295
 8005acc:	b005      	add	sp, #20
 8005ace:	e8bd 83f0 	ldmia.w	sp!, {r4, r5, r6, r7, r8, r9, pc}
 8005ad2:	4839      	ldr	r0, [pc, #228]	; (8005bb8 <_printf_i+0x21c>)
 8005ad4:	f884 1045 	strb.w	r1, [r4, #69]	; 0x45
 8005ad8:	6813      	ldr	r3, [r2, #0]
 8005ada:	6821      	ldr	r1, [r4, #0]
 8005adc:	1d1d      	adds	r5, r3, #4
 8005ade:	681b      	ldr	r3, [r3, #0]
 8005ae0:	6015      	str	r5, [r2, #0]
 8005ae2:	060a      	lsls	r2, r1, #24
 8005ae4:	d50b      	bpl.n	8005afe <_printf_i+0x162>
 8005ae6:	07ca      	lsls	r2, r1, #31
 8005ae8:	bf44      	itt	mi
 8005aea:	f041 0120 	orrmi.w	r1, r1, #32
 8005aee:	6021      	strmi	r1, [r4, #0]
 8005af0:	b91b      	cbnz	r3, 8005afa <_printf_i+0x15e>
 8005af2:	6822      	ldr	r2, [r4, #0]
 8005af4:	f022 0220 	bic.w	r2, r2, #32
 8005af8:	6022      	str	r2, [r4, #0]
 8005afa:	2210      	movs	r2, #16
 8005afc:	e7b7      	b.n	8005a6e <_printf_i+0xd2>
 8005afe:	064d      	lsls	r5, r1, #25
 8005b00:	bf48      	it	mi
 8005b02:	b29b      	uxthmi	r3, r3
 8005b04:	e7ef      	b.n	8005ae6 <_printf_i+0x14a>
 8005b06:	4665      	mov	r5, ip
 8005b08:	fbb3 f1f2 	udiv	r1, r3, r2
 8005b0c:	fb02 3311 	mls	r3, r2, r1, r3
 8005b10:	5cc3      	ldrb	r3, [r0, r3]
 8005b12:	f805 3d01 	strb.w	r3, [r5, #-1]!
 8005b16:	460b      	mov	r3, r1
 8005b18:	2900      	cmp	r1, #0
 8005b1a:	d1f5      	bne.n	8005b08 <_printf_i+0x16c>
 8005b1c:	e7b9      	b.n	8005a92 <_printf_i+0xf6>
 8005b1e:	6813      	ldr	r3, [r2, #0]
 8005b20:	6825      	ldr	r5, [r4, #0]
 8005b22:	6961      	ldr	r1, [r4, #20]
 8005b24:	1d18      	adds	r0, r3, #4
 8005b26:	6010      	str	r0, [r2, #0]
 8005b28:	0628      	lsls	r0, r5, #24
 8005b2a:	681b      	ldr	r3, [r3, #0]
 8005b2c:	d501      	bpl.n	8005b32 <_printf_i+0x196>
 8005b2e:	6019      	str	r1, [r3, #0]
 8005b30:	e002      	b.n	8005b38 <_printf_i+0x19c>
 8005b32:	066a      	lsls	r2, r5, #25
 8005b34:	d5fb      	bpl.n	8005b2e <_printf_i+0x192>
 8005b36:	8019      	strh	r1, [r3, #0]
 8005b38:	2300      	movs	r3, #0
 8005b3a:	6123      	str	r3, [r4, #16]
 8005b3c:	4665      	mov	r5, ip
 8005b3e:	e7b9      	b.n	8005ab4 <_printf_i+0x118>
 8005b40:	6813      	ldr	r3, [r2, #0]
 8005b42:	1d19      	adds	r1, r3, #4
 8005b44:	6011      	str	r1, [r2, #0]
 8005b46:	681d      	ldr	r5, [r3, #0]
 8005b48:	6862      	ldr	r2, [r4, #4]
 8005b4a:	2100      	movs	r1, #0
 8005b4c:	4628      	mov	r0, r5
 8005b4e:	f7fa fb5f 	bl	8000210 <memchr>
 8005b52:	b108      	cbz	r0, 8005b58 <_printf_i+0x1bc>
 8005b54:	1b40      	subs	r0, r0, r5
 8005b56:	6060      	str	r0, [r4, #4]
 8005b58:	6863      	ldr	r3, [r4, #4]
 8005b5a:	6123      	str	r3, [r4, #16]
 8005b5c:	2300      	movs	r3, #0
 8005b5e:	f884 3043 	strb.w	r3, [r4, #67]	; 0x43
 8005b62:	e7a7      	b.n	8005ab4 <_printf_i+0x118>
 8005b64:	6923      	ldr	r3, [r4, #16]
 8005b66:	462a      	mov	r2, r5
 8005b68:	4639      	mov	r1, r7
 8005b6a:	4630      	mov	r0, r6
 8005b6c:	47c0      	blx	r8
 8005b6e:	3001      	adds	r0, #1
 8005b70:	d0aa      	beq.n	8005ac8 <_printf_i+0x12c>
 8005b72:	6823      	ldr	r3, [r4, #0]
 8005b74:	079b      	lsls	r3, r3, #30
 8005b76:	d413      	bmi.n	8005ba0 <_printf_i+0x204>
 8005b78:	68e0      	ldr	r0, [r4, #12]
 8005b7a:	9b03      	ldr	r3, [sp, #12]
 8005b7c:	4298      	cmp	r0, r3
 8005b7e:	bfb8      	it	lt
 8005b80:	4618      	movlt	r0, r3
 8005b82:	e7a3      	b.n	8005acc <_printf_i+0x130>
 8005b84:	2301      	movs	r3, #1
 8005b86:	464a      	mov	r2, r9
 8005b88:	4639      	mov	r1, r7
 8005b8a:	4630      	mov	r0, r6
 8005b8c:	47c0      	blx	r8
 8005b8e:	3001      	adds	r0, #1
 8005b90:	d09a      	beq.n	8005ac8 <_printf_i+0x12c>
 8005b92:	3501      	adds	r5, #1
 8005b94:	68e3      	ldr	r3, [r4, #12]
 8005b96:	9a03      	ldr	r2, [sp, #12]
 8005b98:	1a9b      	subs	r3, r3, r2
 8005b9a:	42ab      	cmp	r3, r5
 8005b9c:	dcf2      	bgt.n	8005b84 <_printf_i+0x1e8>
 8005b9e:	e7eb      	b.n	8005b78 <_printf_i+0x1dc>
 8005ba0:	2500      	movs	r5, #0
 8005ba2:	f104 0919 	add.w	r9, r4, #25
 8005ba6:	e7f5      	b.n	8005b94 <_printf_i+0x1f8>
 8005ba8:	2b00      	cmp	r3, #0
 8005baa:	d1ac      	bne.n	8005b06 <_printf_i+0x16a>
 8005bac:	7803      	ldrb	r3, [r0, #0]
 8005bae:	f884 3042 	strb.w	r3, [r4, #66]	; 0x42
 8005bb2:	f104 0542 	add.w	r5, r4, #66	; 0x42
 8005bb6:	e76c      	b.n	8005a92 <_printf_i+0xf6>
 8005bb8:	080062e0 	.word	0x080062e0
 8005bbc:	080062f1 	.word	0x080062f1

08005bc0 <memcpy>:
 8005bc0:	b510      	push	{r4, lr}
 8005bc2:	1e43      	subs	r3, r0, #1
 8005bc4:	440a      	add	r2, r1
 8005bc6:	4291      	cmp	r1, r2
 8005bc8:	d100      	bne.n	8005bcc <memcpy+0xc>
 8005bca:	bd10      	pop	{r4, pc}
 8005bcc:	f811 4b01 	ldrb.w	r4, [r1], #1
 8005bd0:	f803 4f01 	strb.w	r4, [r3, #1]!
 8005bd4:	e7f7      	b.n	8005bc6 <memcpy+0x6>

08005bd6 <memmove>:
 8005bd6:	4288      	cmp	r0, r1
 8005bd8:	b510      	push	{r4, lr}
 8005bda:	eb01 0302 	add.w	r3, r1, r2
 8005bde:	d807      	bhi.n	8005bf0 <memmove+0x1a>
 8005be0:	1e42      	subs	r2, r0, #1
 8005be2:	4299      	cmp	r1, r3
 8005be4:	d00a      	beq.n	8005bfc <memmove+0x26>
 8005be6:	f811 4b01 	ldrb.w	r4, [r1], #1
 8005bea:	f802 4f01 	strb.w	r4, [r2, #1]!
 8005bee:	e7f8      	b.n	8005be2 <memmove+0xc>
 8005bf0:	4283      	cmp	r3, r0
 8005bf2:	d9f5      	bls.n	8005be0 <memmove+0xa>
 8005bf4:	1881      	adds	r1, r0, r2
 8005bf6:	1ad2      	subs	r2, r2, r3
 8005bf8:	42d3      	cmn	r3, r2
 8005bfa:	d100      	bne.n	8005bfe <memmove+0x28>
 8005bfc:	bd10      	pop	{r4, pc}
 8005bfe:	f813 4d01 	ldrb.w	r4, [r3, #-1]!
 8005c02:	f801 4d01 	strb.w	r4, [r1, #-1]!
 8005c06:	e7f7      	b.n	8005bf8 <memmove+0x22>

08005c08 <_realloc_r>:
 8005c08:	b5f8      	push	{r3, r4, r5, r6, r7, lr}
 8005c0a:	4607      	mov	r7, r0
 8005c0c:	4614      	mov	r4, r2
 8005c0e:	460e      	mov	r6, r1
 8005c10:	b921      	cbnz	r1, 8005c1c <_realloc_r+0x14>
 8005c12:	4611      	mov	r1, r2
 8005c14:	e8bd 40f8 	ldmia.w	sp!, {r3, r4, r5, r6, r7, lr}
 8005c18:	f7ff bbb6 	b.w	8005388 <_malloc_r>
 8005c1c:	b922      	cbnz	r2, 8005c28 <_realloc_r+0x20>
 8005c1e:	f7ff fb65 	bl	80052ec <_free_r>
 8005c22:	4625      	mov	r5, r4
 8005c24:	4628      	mov	r0, r5
 8005c26:	bdf8      	pop	{r3, r4, r5, r6, r7, pc}
 8005c28:	f000 f814 	bl	8005c54 <_malloc_usable_size_r>
 8005c2c:	42a0      	cmp	r0, r4
 8005c2e:	d20f      	bcs.n	8005c50 <_realloc_r+0x48>
 8005c30:	4621      	mov	r1, r4
 8005c32:	4638      	mov	r0, r7
 8005c34:	f7ff fba8 	bl	8005388 <_malloc_r>
 8005c38:	4605      	mov	r5, r0
 8005c3a:	2800      	cmp	r0, #0
 8005c3c:	d0f2      	beq.n	8005c24 <_realloc_r+0x1c>
 8005c3e:	4631      	mov	r1, r6
 8005c40:	4622      	mov	r2, r4
 8005c42:	f7ff ffbd 	bl	8005bc0 <memcpy>
 8005c46:	4631      	mov	r1, r6
 8005c48:	4638      	mov	r0, r7
 8005c4a:	f7ff fb4f 	bl	80052ec <_free_r>
 8005c4e:	e7e9      	b.n	8005c24 <_realloc_r+0x1c>
 8005c50:	4635      	mov	r5, r6
 8005c52:	e7e7      	b.n	8005c24 <_realloc_r+0x1c>

08005c54 <_malloc_usable_size_r>:
 8005c54:	f851 3c04 	ldr.w	r3, [r1, #-4]
 8005c58:	1f18      	subs	r0, r3, #4
 8005c5a:	2b00      	cmp	r3, #0
 8005c5c:	bfbc      	itt	lt
 8005c5e:	580b      	ldrlt	r3, [r1, r0]
 8005c60:	18c0      	addlt	r0, r0, r3
 8005c62:	4770      	bx	lr

08005c64 <_init>:
 8005c64:	b5f8      	push	{r3, r4, r5, r6, r7, lr}
 8005c66:	bf00      	nop
 8005c68:	bcf8      	pop	{r3, r4, r5, r6, r7}
 8005c6a:	bc08      	pop	{r3}
 8005c6c:	469e      	mov	lr, r3
 8005c6e:	4770      	bx	lr

08005c70 <_fini>:
 8005c70:	b5f8      	push	{r3, r4, r5, r6, r7, lr}
 8005c72:	bf00      	nop
 8005c74:	bcf8      	pop	{r3, r4, r5, r6, r7}
 8005c76:	bc08      	pop	{r3}
 8005c78:	469e      	mov	lr, r3
 8005c7a:	4770      	bx	lr
